---
triple:          'arm64-apple-darwin'
binary-path:     '/Users/justincheng/Documents/GitHub/371a3/app'
relocations:
  - { offsetInCU: 0x52, offset: 0x52, size: 0x8, addend: 0x0, symName: _vertexShaderSource, symObjAddr: 0x40C88, symBinAddr: 0x10004C000, symSize: 0x0 }
  - { offsetInCU: 0x6C, offset: 0x6C, size: 0x8, addend: 0x0, symName: _fragmentShaderSource, symObjAddr: 0x40C90, symBinAddr: 0x10004C008, symSize: 0x0 }
  - { offsetInCU: 0x81, offset: 0x81, size: 0x8, addend: 0x0, symName: _translation, symObjAddr: 0x1DC938, symBinAddr: 0x10004C018, symSize: 0x0 }
  - { offsetInCU: 0x508, offset: 0x508, size: 0x8, addend: 0x0, symName: __ZN3glm9translateIfLNS_9qualifierE0EEENS_3matILi4ELi4ET_XT0_EEERKS4_RKNS_3vecILi3ES3_XT0_EEE, symObjAddr: 0xD57C, symBinAddr: 0x100011814, symSize: 0x188 }
  - { offsetInCU: 0x564, offset: 0x564, size: 0x8, addend: 0x0, symName: __ZN3glm6rotateIfLNS_9qualifierE0EEENS_3matILi4ELi4ET_XT0_EEERKS4_S3_RKNS_3vecILi3ES3_XT0_EEE, symObjAddr: 0xD704, symBinAddr: 0x10001199C, symSize: 0x8E4 }
  - { offsetInCU: 0x624, offset: 0x624, size: 0x8, addend: 0x0, symName: __ZN3glm7radiansIfEET_S1_, symObjAddr: 0xDFE8, symBinAddr: 0x100012280, symSize: 0x24 }
  - { offsetInCU: 0x659, offset: 0x659, size: 0x8, addend: 0x0, symName: __ZN3glm5scaleIfLNS_9qualifierE0EEENS_3matILi4ELi4ET_XT0_EEERKS4_RKNS_3vecILi3ES3_XT0_EEE, symObjAddr: 0xE050, symBinAddr: 0x1000122E8, symSize: 0x150 }
  - { offsetInCU: 0x6B5, offset: 0x6B5, size: 0x8, addend: 0x0, symName: __ZN3glm9value_ptrIfLNS_9qualifierE0EEEPT_RNS_3matILi4ELi4ES2_XT0_EEE, symObjAddr: 0xE1A0, symBinAddr: 0x100012438, symSize: 0x28 }
  - { offsetInCU: 0x6F4, offset: 0x6F4, size: 0x8, addend: 0x0, symName: __ZN3glmplIfLNS_9qualifierE0EEENS_3vecILi4ET_XT0_EEERKS4_S6_, symObjAddr: 0x39FCC, symBinAddr: 0x10003E264, symSize: 0x50 }
  - { offsetInCU: 0x744, offset: 0x744, size: 0x8, addend: 0x0, symName: __ZN3glmmlIfLNS_9qualifierE0EEENS_3vecILi4ET_XT0_EEERKS4_S3_, symObjAddr: 0x3A01C, symBinAddr: 0x10003E2B4, symSize: 0x50 }
  - { offsetInCU: 0x1B97, offset: 0x1B97, size: 0x8, addend: 0x0, symName: __ZN3glm9normalizeILi3EfLNS_9qualifierE0EEENS_3vecIXT_ET0_XT1_EEERKS4_, symObjAddr: 0x3E75C, symBinAddr: 0x1000429F4, symSize: 0x3C }
  - { offsetInCU: 0x1BE0, offset: 0x1BE0, size: 0x8, addend: 0x0, symName: __ZN3glmmlIfLNS_9qualifierE0EEENS_3vecILi3ET_XT0_EEES3_RKS4_, symObjAddr: 0x3E798, symBinAddr: 0x100042A30, symSize: 0x64 }
  - { offsetInCU: 0x1C30, offset: 0x1C30, size: 0x8, addend: 0x0, symName: __ZN3glmmlIfLNS_9qualifierE0EEENS_3vecILi3ET_XT0_EEERKS4_S3_, symObjAddr: 0x3EA74, symBinAddr: 0x100042D0C, symSize: 0x64 }
  - { offsetInCU: 0x1C80, offset: 0x1C80, size: 0x8, addend: 0x0, symName: __ZN3glm11inversesqrtIfEET_S1_, symObjAddr: 0x3EAD8, symBinAddr: 0x100042D70, symSize: 0x30 }
  - { offsetInCU: 0x1CB5, offset: 0x1CB5, size: 0x8, addend: 0x0, symName: __ZN3glm3dotILi3EfLNS_9qualifierE0EEET0_RKNS_3vecIXT_ES2_XT1_EEES6_, symObjAddr: 0x3EB08, symBinAddr: 0x100042DA0, symSize: 0x2C }
  - { offsetInCU: 0x1D0C, offset: 0x1D0C, size: 0x8, addend: 0x0, symName: __ZN3glmmlIfLNS_9qualifierE0EEENS_3vecILi3ET_XT0_EEERKS4_S6_, symObjAddr: 0x3EB98, symBinAddr: 0x100042E30, symSize: 0x70 }
  - { offsetInCU: 0x1DBC, offset: 0x1DBC, size: 0x8, addend: 0x0, symName: _rotationAngle, symObjAddr: 0x1DC944, symBinAddr: 0x10004C024, symSize: 0x0 }
  - { offsetInCU: 0x1DD1, offset: 0x1DD1, size: 0x8, addend: 0x0, symName: _scaleFactor, symObjAddr: 0x40C98, symBinAddr: 0x10004C010, symSize: 0x0 }
  - { offsetInCU: 0x1DE6, offset: 0x1DE6, size: 0x8, addend: 0x0, symName: _vertices, symObjAddr: 0x1DC948, symBinAddr: 0x10004C028, symSize: 0x0 }
  - { offsetInCU: 0x16CF8, offset: 0x16CF8, size: 0x8, addend: 0x0, symName: __ZNSt3__17advanceB8ue170006INS_21__tree_const_iteratorINS_12__value_typeINS_12basic_stringIcNS_11char_traitsIcEENS_9allocatorIcEEEES8_EEPNS_11__tree_nodeIS9_PvEElEEllvEEvRT_T0_, symObjAddr: 0x12DD8, symBinAddr: 0x100017070, symSize: 0x38 }
  - { offsetInCU: 0x170DD, offset: 0x170DD, size: 0x8, addend: 0x0, symName: __ZNSt3__17advanceB8ue170006IPN7tinyobj10material_tEllvEEvRT_T0_, symObjAddr: 0x14FC4, symBinAddr: 0x10001925C, symSize: 0x38 }
  - { offsetInCU: 0x1735D, offset: 0x1735D, size: 0x8, addend: 0x0, symName: __ZNSt3__17advanceB8ue170006INS_16reverse_iteratorIPN7tinyobj10material_tEEEllvEEvRT_T0_, symObjAddr: 0x153F4, symBinAddr: 0x10001968C, symSize: 0x38 }
  - { offsetInCU: 0x18ECD, offset: 0x18ECD, size: 0x8, addend: 0x0, symName: __ZNSt3__17advanceB8ue170006IPNS_12basic_stringIcNS_11char_traitsIcEENS_9allocatorIcEEEEllvEEvRT_T0_, symObjAddr: 0x16D10, symBinAddr: 0x10001AFA8, symSize: 0x38 }
  - { offsetInCU: 0x1914D, offset: 0x1914D, size: 0x8, addend: 0x0, symName: __ZNSt3__17advanceB8ue170006INS_16reverse_iteratorIPNS_12basic_stringIcNS_11char_traitsIcEENS_9allocatorIcEEEEEEllvEEvRT_T0_, symObjAddr: 0x17140, symBinAddr: 0x10001B3D8, symSize: 0x38 }
  - { offsetInCU: 0x191B8, offset: 0x191B8, size: 0x8, addend: 0x0, symName: __ZNSt3__16copy_nB8ue170006IPKcmPcEENS_9enable_ifIXsr37__has_random_access_iterator_categoryIT_EE5valueET1_E4typeES5_T0_S6_, symObjAddr: 0x17BD8, symBinAddr: 0x10001BE70, symSize: 0x44 }
  - { offsetInCU: 0x224BB, offset: 0x224BB, size: 0x8, addend: 0x0, symName: __ZNSt3__17advanceB8ue170006IPN7tinyobj13skin_weight_tEllvEEvRT_T0_, symObjAddr: 0x1E8C4, symBinAddr: 0x100022B5C, symSize: 0x38 }
  - { offsetInCU: 0x2273B, offset: 0x2273B, size: 0x8, addend: 0x0, symName: __ZNSt3__17advanceB8ue170006INS_16reverse_iteratorIPN7tinyobj13skin_weight_tEEEllvEEvRT_T0_, symObjAddr: 0x1ECEC, symBinAddr: 0x100022F84, symSize: 0x38 }
  - { offsetInCU: 0x259C6, offset: 0x259C6, size: 0x8, addend: 0x0, symName: __ZNSt3__17advanceB8ue170006IPN7tinyobj8__line_tEllvEEvRT_T0_, symObjAddr: 0x22C08, symBinAddr: 0x100026EA0, symSize: 0x38 }
  - { offsetInCU: 0x25C46, offset: 0x25C46, size: 0x8, addend: 0x0, symName: __ZNSt3__17advanceB8ue170006INS_16reverse_iteratorIPN7tinyobj8__line_tEEEllvEEvRT_T0_, symObjAddr: 0x23038, symBinAddr: 0x1000272D0, symSize: 0x38 }
  - { offsetInCU: 0x275AE, offset: 0x275AE, size: 0x8, addend: 0x0, symName: __ZNSt3__17advanceB8ue170006IPN7tinyobj10__points_tEllvEEvRT_T0_, symObjAddr: 0x24654, symBinAddr: 0x1000288EC, symSize: 0x38 }
  - { offsetInCU: 0x2782E, offset: 0x2782E, size: 0x8, addend: 0x0, symName: __ZNSt3__17advanceB8ue170006INS_16reverse_iteratorIPN7tinyobj10__points_tEEEllvEEvRT_T0_, symObjAddr: 0x24A84, symBinAddr: 0x100028D1C, symSize: 0x38 }
  - { offsetInCU: 0x29196, offset: 0x29196, size: 0x8, addend: 0x0, symName: __ZNSt3__17advanceB8ue170006IPN7tinyobj6face_tEllvEEvRT_T0_, symObjAddr: 0x26018, symBinAddr: 0x10002A2B0, symSize: 0x38 }
  - { offsetInCU: 0x29416, offset: 0x29416, size: 0x8, addend: 0x0, symName: __ZNSt3__17advanceB8ue170006INS_16reverse_iteratorIPN7tinyobj6face_tEEEllvEEvRT_T0_, symObjAddr: 0x26440, symBinAddr: 0x10002A6D8, symSize: 0x38 }
  - { offsetInCU: 0x298B9, offset: 0x298B9, size: 0x8, addend: 0x0, symName: __ZNSt3__17advanceB8ue170006IPN7tinyobj5tag_tEllvEEvRT_T0_, symObjAddr: 0x2A1EC, symBinAddr: 0x10002E484, symSize: 0x38 }
  - { offsetInCU: 0x2A02B, offset: 0x2A02B, size: 0x8, addend: 0x0, symName: __ZNSt3__17advanceB8ue170006IPillvEEvRT_T0_, symObjAddr: 0x2D7BC, symBinAddr: 0x100031A54, symSize: 0x38 }
  - { offsetInCU: 0x2A096, offset: 0x2A096, size: 0x8, addend: 0x0, symName: __ZNSt3__17advanceB8ue170006IPfllvEEvRT_T0_, symObjAddr: 0x2DC7C, symBinAddr: 0x100031F14, symSize: 0x38 }
  - { offsetInCU: 0x2A69A, offset: 0x2A69A, size: 0x8, addend: 0x0, symName: __ZNSt3__17advanceB8ue170006IPN7tinyobj7shape_tEllvEEvRT_T0_, symObjAddr: 0x32C14, symBinAddr: 0x100036EAC, symSize: 0x38 }
  - { offsetInCU: 0x2A91A, offset: 0x2A91A, size: 0x8, addend: 0x0, symName: __ZNSt3__17advanceB8ue170006INS_16reverse_iteratorIPN7tinyobj7shape_tEEEllvEEvRT_T0_, symObjAddr: 0x32FD4, symBinAddr: 0x10003726C, symSize: 0x38 }
  - { offsetInCU: 0x2ACDC, offset: 0x2ACDC, size: 0x8, addend: 0x0, symName: __ZNSt3__17advanceB8ue170006INS_16reverse_iteratorIPN7tinyobj5tag_tEEEllvEEvRT_T0_, symObjAddr: 0x359AC, symBinAddr: 0x100039C44, symSize: 0x38 }
  - { offsetInCU: 0x2E196, offset: 0x2E196, size: 0x8, addend: 0x0, symName: __ZNSt3__124__put_character_sequenceB8ue170006IcNS_11char_traitsIcEEEERNS_13basic_ostreamIT_T0_EES7_PKS4_m, symObjAddr: 0x3BA00, symBinAddr: 0x10003FC98, symSize: 0x1EC }
  - { offsetInCU: 0x32C1D, offset: 0x32C1D, size: 0x8, addend: 0x0, symName: __ZNSt3__1lsB8ue170006INS_11char_traitsIcEEEERNS_13basic_ostreamIcT_EES6_PKc, symObjAddr: 0x3534, symBinAddr: 0x1000077CC, symSize: 0x48 }
  - { offsetInCU: 0x32C63, offset: 0x32C63, size: 0x8, addend: 0x0, symName: __ZNSt3__1lsB8ue170006IcNS_11char_traitsIcEENS_9allocatorIcEEEERNS_13basic_ostreamIT_T0_EES9_RKNS_12basic_stringIS6_S7_T1_EE, symObjAddr: 0x357C, symBinAddr: 0x100007814, symSize: 0x4C }
  - { offsetInCU: 0x32F47, offset: 0x32F47, size: 0x8, addend: 0x0, symName: __ZNSt3__17getlineB8ue170006IcNS_11char_traitsIcEENS_9allocatorIcEEEERNS_13basic_istreamIT_T0_EES9_RNS_12basic_stringIS6_S7_T1_EES6_, symObjAddr: 0x3E94, symBinAddr: 0x10000812C, symSize: 0x238 }
  - { offsetInCU: 0x34530, offset: 0x34530, size: 0x8, addend: 0x0, symName: __ZNSt3__1plB8ue170006IcNS_11char_traitsIcEENS_9allocatorIcEEEENS_12basic_stringIT_T0_T1_EEOS9_PKS6_, symObjAddr: 0x7E5C, symBinAddr: 0x10000C0F4, symSize: 0x40 }
  - { offsetInCU: 0x34588, offset: 0x34588, size: 0x8, addend: 0x0, symName: __ZNSt3__1plB8ue170006IcNS_11char_traitsIcEENS_9allocatorIcEEEENS_12basic_stringIT_T0_T1_EEPKS6_OS9_, symObjAddr: 0x7E9C, symBinAddr: 0x10000C134, symSize: 0x44 }
  - { offsetInCU: 0x345E0, offset: 0x345E0, size: 0x8, addend: 0x0, symName: __ZNSt3__1neB8ue170006ERKNS_20__map_const_iteratorINS_21__tree_const_iteratorINS_12__value_typeINS_12basic_stringIcNS_11char_traitsIcEENS_9allocatorIcEEEEiEEPNS_11__tree_nodeIS9_PvEElEEEESH_, symObjAddr: 0x8364, symBinAddr: 0x10000C5FC, symSize: 0x30 }
  - { offsetInCU: 0x3461D, offset: 0x3461D, size: 0x8, addend: 0x0, symName: __ZNSt3__14endlB8ue170006IcNS_11char_traitsIcEEEERNS_13basic_ostreamIT_T0_EES7_, symObjAddr: 0xCA3C, symBinAddr: 0x100010CD4, symSize: 0x58 }
  - { offsetInCU: 0x3465D, offset: 0x3465D, size: 0x8, addend: 0x0, symName: __ZNSt3__1neB8ue170006IPN7tinyobj7shape_tEEEbRKNS_11__wrap_iterIT_EES8_, symObjAddr: 0xCAF4, symBinAddr: 0x100010D8C, symSize: 0x34 }
  - { offsetInCU: 0x346A0, offset: 0x346A0, size: 0x8, addend: 0x0, symName: __ZNSt3__1neB8ue170006IPKN7tinyobj7index_tEEEbRKNS_11__wrap_iterIT_EES9_, symObjAddr: 0xCBA0, symBinAddr: 0x100010E38, symSize: 0x34 }
  - { offsetInCU: 0x346E3, offset: 0x346E3, size: 0x8, addend: 0x0, symName: __ZNSt3__18distanceB8ue170006IPKcEENS_15iterator_traitsIT_E15difference_typeES4_S4_, symObjAddr: 0xEDF8, symBinAddr: 0x100013090, symSize: 0x2C }
  - { offsetInCU: 0x34726, offset: 0x34726, size: 0x8, addend: 0x0, symName: __ZNSt3__110__distanceB8ue170006IPKcEENS_15iterator_traitsIT_E15difference_typeES4_S4_NS_26random_access_iterator_tagE, symObjAddr: 0xEF68, symBinAddr: 0x100013200, symSize: 0x20 }
  - { offsetInCU: 0x34773, offset: 0x34773, size: 0x8, addend: 0x0, symName: __ZNSt3__119__allocate_at_leastB8ue170006INS_9allocatorIcEEEENS_19__allocation_resultINS_16allocator_traitsIT_E7pointerEEERS5_m, symObjAddr: 0xF110, symBinAddr: 0x1000133A8, symSize: 0x40 }
  - { offsetInCU: 0x349A3, offset: 0x349A3, size: 0x8, addend: 0x0, symName: __ZNSt3__120__throw_length_errorB8ue170006EPKc, symObjAddr: 0xF3B0, symBinAddr: 0x100013648, symSize: 0x64 }
  - { offsetInCU: 0x349CC, offset: 0x349CC, size: 0x8, addend: 0x0, symName: __ZNSt3__117__libcpp_allocateB8ue170006Emm, symObjAddr: 0xF534, symBinAddr: 0x1000137CC, symSize: 0x60 }
  - { offsetInCU: 0x34A27, offset: 0x34A27, size: 0x8, addend: 0x0, symName: __ZNSt3__124__is_overaligned_for_newB8ue170006Em, symObjAddr: 0xF594, symBinAddr: 0x10001382C, symSize: 0x20 }
  - { offsetInCU: 0x34A54, offset: 0x34A54, size: 0x8, addend: 0x0, symName: __ZNSt3__121__libcpp_operator_newB8ue170006IJmSt11align_val_tEEEPvDpT_, symObjAddr: 0xF5B4, symBinAddr: 0x10001384C, symSize: 0x2C }
  - { offsetInCU: 0x34AA1, offset: 0x34AA1, size: 0x8, addend: 0x0, symName: __ZNSt3__121__libcpp_operator_newB8ue170006IJmEEEPvDpT_, symObjAddr: 0xF5E0, symBinAddr: 0x100013878, symSize: 0x24 }
  - { offsetInCU: 0x34ADB, offset: 0x34ADB, size: 0x8, addend: 0x0, symName: __ZNSt3__119__libcpp_deallocateB8ue170006EPvmm, symObjAddr: 0xF888, symBinAddr: 0x100013B20, symSize: 0x60 }
  - { offsetInCU: 0x34B41, offset: 0x34B41, size: 0x8, addend: 0x0, symName: __ZNSt3__127__do_deallocate_handle_sizeB8ue170006IJSt11align_val_tEEEvPvmDpT_, symObjAddr: 0xF8E8, symBinAddr: 0x100013B80, symSize: 0x30 }
  - { offsetInCU: 0x34B95, offset: 0x34B95, size: 0x8, addend: 0x0, symName: __ZNSt3__127__do_deallocate_handle_sizeB8ue170006IJEEEvPvmDpT_, symObjAddr: 0xF918, symBinAddr: 0x100013BB0, symSize: 0x28 }
  - { offsetInCU: 0x34BD4, offset: 0x34BD4, size: 0x8, addend: 0x0, symName: __ZNSt3__124__libcpp_operator_deleteB8ue170006IJPvSt11align_val_tEEEvDpT_, symObjAddr: 0xF940, symBinAddr: 0x100013BD8, symSize: 0x2C }
  - { offsetInCU: 0x34C1E, offset: 0x34C1E, size: 0x8, addend: 0x0, symName: __ZNSt3__124__libcpp_operator_deleteB8ue170006IJPvEEEvDpT_, symObjAddr: 0xF96C, symBinAddr: 0x100013C04, symSize: 0x24 }
  - { offsetInCU: 0x34C53, offset: 0x34C53, size: 0x8, addend: 0x0, symName: __ZNSt3__118__constexpr_strlenB8ue170006EPKc, symObjAddr: 0xFA54, symBinAddr: 0x100013CEC, symSize: 0x24 }
  - { offsetInCU: 0x34CB2, offset: 0x34CB2, size: 0x8, addend: 0x0, symName: __ZNSt3__110destroy_atB8ue170006INS_4pairIKNS_12basic_stringIcNS_11char_traitsIcEENS_9allocatorIcEEEES7_EELi0EEEvPT_, symObjAddr: 0x10380, symBinAddr: 0x100014618, symSize: 0x24 }
  - { offsetInCU: 0x34CE9, offset: 0x34CE9, size: 0x8, addend: 0x0, symName: __ZNSt3__112__destroy_atB8ue170006INS_4pairIKNS_12basic_stringIcNS_11char_traitsIcEENS_9allocatorIcEEEES7_EELi0EEEvPT_, symObjAddr: 0x103A4, symBinAddr: 0x10001463C, symSize: 0x24 }
  - { offsetInCU: 0x34D20, offset: 0x34D20, size: 0x8, addend: 0x0, symName: __ZNSt3__17launderB8ue170006INS_4pairIKNS_12basic_stringIcNS_11char_traitsIcEENS_9allocatorIcEEEES7_EEEEPT_SB_, symObjAddr: 0x10450, symBinAddr: 0x1000146E8, symSize: 0x24 }
  - { offsetInCU: 0x34D58, offset: 0x34D58, size: 0x8, addend: 0x0, symName: __ZNSt3__19__launderB8ue170006INS_4pairIKNS_12basic_stringIcNS_11char_traitsIcEENS_9allocatorIcEEEES7_EEEEPT_SB_, symObjAddr: 0x10474, symBinAddr: 0x10001470C, symSize: 0x14 }
  - { offsetInCU: 0x34D8E, offset: 0x34D8E, size: 0x8, addend: 0x0, symName: __ZNSt3__122__str_find_last_not_ofB8ue170006IcmNS_11char_traitsIcEELm18446744073709551615EEET0_PKT_S3_S6_S3_S3_, symObjAddr: 0x1081C, symBinAddr: 0x100014AB4, symSize: 0xDC }
  - { offsetInCU: 0x34E43, offset: 0x34E43, size: 0x8, addend: 0x0, symName: __ZNSt3__118__constexpr_memchrB8ue170006IKccEEPT_S3_T0_m, symObjAddr: 0x10990, symBinAddr: 0x100014C28, symSize: 0x40 }
  - { offsetInCU: 0x34EB9, offset: 0x34EB9, size: 0x8, addend: 0x0, symName: __ZNSt3__112__to_addressB8ue170006IKcEEPT_S3_, symObjAddr: 0x109D0, symBinAddr: 0x100014C68, symSize: 0x14 }
  - { offsetInCU: 0x34F21, offset: 0x34F21, size: 0x8, addend: 0x0, symName: __ZNSt3__112__to_addressB8ue170006IN7tinyobj10material_tEEEPT_S4_, symObjAddr: 0x10DBC, symBinAddr: 0x100015054, symSize: 0x14 }
  - { offsetInCU: 0x34F7D, offset: 0x34F7D, size: 0x8, addend: 0x0, symName: __ZNSt3__112construct_atB8ue170006IN7tinyobj10material_tEJRKS2_EPS2_EEPT_S7_DpOT0_, symObjAddr: 0x10E48, symBinAddr: 0x1000150E0, symSize: 0x3C }
  - { offsetInCU: 0x34FEF, offset: 0x34FEF, size: 0x8, addend: 0x0, symName: __ZNSt3__1neB8ue170006ERKNS_20__map_const_iteratorINS_21__tree_const_iteratorINS_12__value_typeINS_12basic_stringIcNS_11char_traitsIcEENS_9allocatorIcEEEES8_EEPNS_11__tree_nodeIS9_PvEElEEEESH_, symObjAddr: 0x11A48, symBinAddr: 0x100015CE0, symSize: 0x30 }
  - { offsetInCU: 0x3502C, offset: 0x3502C, size: 0x8, addend: 0x0, symName: __ZNSt3__1neB8ue170006ERKNS_21__tree_const_iteratorINS_12__value_typeINS_12basic_stringIcNS_11char_traitsIcEENS_9allocatorIcEEEES7_EEPNS_11__tree_nodeIS8_PvEElEESF_, symObjAddr: 0x11B50, symBinAddr: 0x100015DE8, symSize: 0x34 }
  - { offsetInCU: 0x3506A, offset: 0x3506A, size: 0x8, addend: 0x0, symName: __ZNSt3__1eqB8ue170006ERKNS_21__tree_const_iteratorINS_12__value_typeINS_12basic_stringIcNS_11char_traitsIcEENS_9allocatorIcEEEES7_EEPNS_11__tree_nodeIS8_PvEElEESF_, symObjAddr: 0x11B84, symBinAddr: 0x100015E1C, symSize: 0x30 }
  - { offsetInCU: 0x350CA, offset: 0x350CA, size: 0x8, addend: 0x0, symName: __ZNSt3__14nextB8ue170006INS_21__tree_const_iteratorINS_12__value_typeINS_12basic_stringIcNS_11char_traitsIcEENS_9allocatorIcEEEES8_EEPNS_11__tree_nodeIS9_PvEElEEEENS_9enable_ifIXsr29__has_input_iterator_categoryIT_EE5valueESG_E4typeESG_NS_15iterator_traitsISG_E15difference_typeE, symObjAddr: 0x1268C, symBinAddr: 0x100016924, symSize: 0x3C }
  - { offsetInCU: 0x3510E, offset: 0x3510E, size: 0x8, addend: 0x0, symName: __ZNSt3__1ltB8ue170006ENS_15strong_orderingENS_20_CmpUnspecifiedParamE, symObjAddr: 0x12800, symBinAddr: 0x100016A98, symSize: 0x24 }
  - { offsetInCU: 0x35147, offset: 0x35147, size: 0x8, addend: 0x0, symName: __ZNSt3__1ssB8ue170006IcNS_11char_traitsIcEENS_9allocatorIcEEEEDaRKNS_12basic_stringIT_T0_T1_EESC_, symObjAddr: 0x12824, symBinAddr: 0x100016ABC, symSize: 0x5C }
  - { offsetInCU: 0x351BB, offset: 0x351BB, size: 0x8, addend: 0x0, symName: __ZNSt3__1ssB8ue170006IcNS_11char_traitsIcEEEEDaNS_17basic_string_viewIT_T0_EES7_, symObjAddr: 0x128B4, symBinAddr: 0x100016B4C, symSize: 0x7C }
  - { offsetInCU: 0x3520A, offset: 0x3520A, size: 0x8, addend: 0x0, symName: __ZNSt3__13minB8ue170006ImEERKT_S3_S3_, symObjAddr: 0x12ABC, symBinAddr: 0x100016D54, symSize: 0x2C }
  - { offsetInCU: 0x3524D, offset: 0x3524D, size: 0x8, addend: 0x0, symName: __ZNSt3__13minB8ue170006ImNS_6__lessIvvEEEERKT_S5_S5_T0_, symObjAddr: 0x12B4C, symBinAddr: 0x100016DE4, symSize: 0x54 }
  - { offsetInCU: 0x352EC, offset: 0x352EC, size: 0x8, addend: 0x0, symName: __ZNSt3__17launderB8ue170006IKNS_4pairIKNS_12basic_stringIcNS_11char_traitsIcEENS_9allocatorIcEEEES7_EEEEPT_SC_, symObjAddr: 0x12C54, symBinAddr: 0x100016EEC, symSize: 0x24 }
  - { offsetInCU: 0x35324, offset: 0x35324, size: 0x8, addend: 0x0, symName: __ZNSt3__19__launderB8ue170006IKNS_4pairIKNS_12basic_stringIcNS_11char_traitsIcEENS_9allocatorIcEEEES7_EEEEPT_SC_, symObjAddr: 0x12C78, symBinAddr: 0x100016F10, symSize: 0x14 }
  - { offsetInCU: 0x3535A, offset: 0x3535A, size: 0x8, addend: 0x0, symName: __ZNSt3__116__tree_prev_iterB8ue170006IPNS_16__tree_node_baseIPvEEPNS_15__tree_end_nodeIS4_EEEET_T0_, symObjAddr: 0x12C8C, symBinAddr: 0x100016F24, symSize: 0xA4 }
  - { offsetInCU: 0x353A6, offset: 0x353A6, size: 0x8, addend: 0x0, symName: __ZNSt3__110__tree_maxB8ue170006IPNS_16__tree_node_baseIPvEEEET_S5_, symObjAddr: 0x12D30, symBinAddr: 0x100016FC8, symSize: 0x40 }
  - { offsetInCU: 0x353DB, offset: 0x353DB, size: 0x8, addend: 0x0, symName: __ZNSt3__120__tree_is_left_childB8ue170006IPNS_16__tree_node_baseIPvEEEEbT_, symObjAddr: 0x12D70, symBinAddr: 0x100017008, symSize: 0x2C }
  - { offsetInCU: 0x35410, offset: 0x35410, size: 0x8, addend: 0x0, symName: __ZNSt3__121__convert_to_integralB8ue170006El, symObjAddr: 0x12E10, symBinAddr: 0x1000170A8, symSize: 0x14 }
  - { offsetInCU: 0x3543C, offset: 0x3543C, size: 0x8, addend: 0x0, symName: __ZNSt3__19__advanceB8ue170006INS_21__tree_const_iteratorINS_12__value_typeINS_12basic_stringIcNS_11char_traitsIcEENS_9allocatorIcEEEES8_EEPNS_11__tree_nodeIS9_PvEElEEEEvRT_NS_15iterator_traitsISF_E15difference_typeENS_26bidirectional_iterator_tagE, symObjAddr: 0x12E24, symBinAddr: 0x1000170BC, symSize: 0xA4 }
  - { offsetInCU: 0x35485, offset: 0x35485, size: 0x8, addend: 0x0, symName: __ZNSt3__116__tree_next_iterB8ue170006IPNS_15__tree_end_nodeIPNS_16__tree_node_baseIPvEEEES5_EET_T0_, symObjAddr: 0x12F00, symBinAddr: 0x100017198, symSize: 0x80 }
  - { offsetInCU: 0x354C3, offset: 0x354C3, size: 0x8, addend: 0x0, symName: __ZNSt3__110__tree_minB8ue170006IPNS_16__tree_node_baseIPvEEEET_S5_, symObjAddr: 0x12F80, symBinAddr: 0x100017218, symSize: 0x40 }
  - { offsetInCU: 0x3553D, offset: 0x3553D, size: 0x8, addend: 0x0, symName: __ZNSt3__112construct_atB8ue170006INS_4pairIKNS_12basic_stringIcNS_11char_traitsIcEENS_9allocatorIcEEEES7_EEJRKS9_EPS9_EEPT_SE_DpOT0_, symObjAddr: 0x132BC, symBinAddr: 0x100017554, symSize: 0x3C }
  - { offsetInCU: 0x355B0, offset: 0x355B0, size: 0x8, addend: 0x0, symName: __ZNSt3__127__tree_balance_after_insertB8ue170006IPNS_16__tree_node_baseIPvEEEEvT_S5_, symObjAddr: 0x13410, symBinAddr: 0x1000176A8, symSize: 0x27C }
  - { offsetInCU: 0x3562D, offset: 0x3562D, size: 0x8, addend: 0x0, symName: __ZNSt3__118__tree_left_rotateB8ue170006IPNS_16__tree_node_baseIPvEEEEvT_, symObjAddr: 0x1368C, symBinAddr: 0x100017924, symSize: 0xD8 }
  - { offsetInCU: 0x35670, offset: 0x35670, size: 0x8, addend: 0x0, symName: __ZNSt3__119__tree_right_rotateB8ue170006IPNS_16__tree_node_baseIPvEEEEvT_, symObjAddr: 0x13764, symBinAddr: 0x1000179FC, symSize: 0xCC }
  - { offsetInCU: 0x356E5, offset: 0x356E5, size: 0x8, addend: 0x0, symName: __ZNSt3__13maxB8ue170006ImEERKT_S3_S3_, symObjAddr: 0x13F20, symBinAddr: 0x1000181B8, symSize: 0x2C }
  - { offsetInCU: 0x35912, offset: 0x35912, size: 0x8, addend: 0x0, symName: __ZNSt3__13maxB8ue170006ImNS_6__lessIvvEEEERKT_S5_S5_T0_, symObjAddr: 0x14050, symBinAddr: 0x1000182E8, symSize: 0x54 }
  - { offsetInCU: 0x3596C, offset: 0x3596C, size: 0x8, addend: 0x0, symName: __ZNSt3__119__allocate_at_leastB8ue170006INS_9allocatorIN7tinyobj10material_tEEEEENS_19__allocation_resultINS_16allocator_traitsIT_E7pointerEEERS7_m, symObjAddr: 0x141C0, symBinAddr: 0x100018458, symSize: 0x40 }
  - { offsetInCU: 0x359AF, offset: 0x359AF, size: 0x8, addend: 0x0, symName: __ZNSt3__142__uninitialized_allocator_move_if_noexceptB8ue170006INS_9allocatorIN7tinyobj10material_tEEENS_16reverse_iteratorIPS3_EES7_S7_EET2_RT_T0_T1_S8_, symObjAddr: 0x14468, symBinAddr: 0x100018700, symSize: 0x12C }
  - { offsetInCU: 0x35A4F, offset: 0x35A4F, size: 0x8, addend: 0x0, symName: __ZNSt3__14swapB8ue170006IPN7tinyobj10material_tEEENS_9enable_ifIXaasr21is_move_constructibleIT_EE5valuesr18is_move_assignableIS5_EE5valueEvE4typeERS5_S8_, symObjAddr: 0x145E0, symBinAddr: 0x100018878, symSize: 0x3C }
  - { offsetInCU: 0x35AA0, offset: 0x35AA0, size: 0x8, addend: 0x0, symName: __ZNSt3__122__make_exception_guardB8ue170006INS_29_AllocatorDestroyRangeReverseINS_9allocatorIN7tinyobj10material_tEEENS_16reverse_iteratorIPS4_EEEEEENS_28__exception_guard_exceptionsIT_EESB_, symObjAddr: 0x1472C, symBinAddr: 0x1000189C4, symSize: 0x4C }
  - { offsetInCU: 0x35AD6, offset: 0x35AD6, size: 0x8, addend: 0x0, symName: __ZNSt3__1neB8ue170006IPN7tinyobj10material_tES3_EEbRKNS_16reverse_iteratorIT_EERKNS4_IT0_EE, symObjAddr: 0x147BC, symBinAddr: 0x100018A54, symSize: 0x48 }
  - { offsetInCU: 0x35B22, offset: 0x35B22, size: 0x8, addend: 0x0, symName: __ZNSt3__112__to_addressB8ue170006INS_16reverse_iteratorIPN7tinyobj10material_tEEEvEEu7__decayIDTclsr19__to_address_helperIT_EE6__callclsr3stdE7declvalIRKS6_EEEEES8_, symObjAddr: 0x14834, symBinAddr: 0x100018ACC, symSize: 0x24 }
  - { offsetInCU: 0x35B58, offset: 0x35B58, size: 0x8, addend: 0x0, symName: __ZNSt3__112construct_atB8ue170006IN7tinyobj10material_tEJS2_EPS2_EEPT_S5_DpOT0_, symObjAddr: 0x14984, symBinAddr: 0x100018C1C, symSize: 0x3C }
  - { offsetInCU: 0x35BF4, offset: 0x35BF4, size: 0x8, addend: 0x0, symName: __ZNSt3__14prevB8ue170006IPN7tinyobj10material_tEEENS_9enable_ifIXsr29__has_input_iterator_categoryIT_EE5valueES5_E4typeES5_NS_15iterator_traitsIS5_E15difference_typeE, symObjAddr: 0x14F88, symBinAddr: 0x100019220, symSize: 0x3C }
  - { offsetInCU: 0x35C38, offset: 0x35C38, size: 0x8, addend: 0x0, symName: __ZNSt3__19__advanceB8ue170006IPN7tinyobj10material_tEEEvRT_NS_15iterator_traitsIS4_E15difference_typeENS_26random_access_iterator_tagE, symObjAddr: 0x14FFC, symBinAddr: 0x100019294, symSize: 0x30 }
  - { offsetInCU: 0x35C82, offset: 0x35C82, size: 0x8, addend: 0x0, symName: __ZNSt3__119__allocator_destroyB8ue170006INS_9allocatorIN7tinyobj10material_tEEENS_16reverse_iteratorINS5_IPS3_EEEES8_EEvRT_T0_T1_, symObjAddr: 0x15130, symBinAddr: 0x1000193C8, symSize: 0x70 }
  - { offsetInCU: 0x35CE7, offset: 0x35CE7, size: 0x8, addend: 0x0, symName: __ZNSt3__1neB8ue170006INS_16reverse_iteratorIPN7tinyobj10material_tEEES5_EEbRKNS1_IT_EERKNS1_IT0_EE, symObjAddr: 0x151DC, symBinAddr: 0x100019474, symSize: 0x60 }
  - { offsetInCU: 0x35D33, offset: 0x35D33, size: 0x8, addend: 0x0, symName: __ZNSt3__112__to_addressB8ue170006INS_16reverse_iteratorINS1_IPN7tinyobj10material_tEEEEEvEEu7__decayIDTclsr19__to_address_helperIT_EE6__callclsr3stdE7declvalIRKS7_EEEEES9_, symObjAddr: 0x15264, symBinAddr: 0x1000194FC, symSize: 0x24 }
  - { offsetInCU: 0x35D69, offset: 0x35D69, size: 0x8, addend: 0x0, symName: __ZNSt3__110destroy_atB8ue170006IN7tinyobj10material_tELi0EEEvPT_, symObjAddr: 0x152DC, symBinAddr: 0x100019574, symSize: 0x24 }
  - { offsetInCU: 0x35DA0, offset: 0x35DA0, size: 0x8, addend: 0x0, symName: __ZNSt3__112__destroy_atB8ue170006IN7tinyobj10material_tELi0EEEvPT_, symObjAddr: 0x15300, symBinAddr: 0x100019598, symSize: 0x24 }
  - { offsetInCU: 0x35E01, offset: 0x35E01, size: 0x8, addend: 0x0, symName: __ZNSt3__14prevB8ue170006INS_16reverse_iteratorIPN7tinyobj10material_tEEEEENS_9enable_ifIXsr29__has_input_iterator_categoryIT_EE5valueES7_E4typeES7_NS_15iterator_traitsIS7_E15difference_typeE, symObjAddr: 0x153A8, symBinAddr: 0x100019640, symSize: 0x4C }
  - { offsetInCU: 0x35E44, offset: 0x35E44, size: 0x8, addend: 0x0, symName: __ZNSt3__19__advanceB8ue170006INS_16reverse_iteratorIPN7tinyobj10material_tEEEEEvRT_NS_15iterator_traitsIS6_E15difference_typeENS_26random_access_iterator_tagE, symObjAddr: 0x1542C, symBinAddr: 0x1000196C4, symSize: 0x2C }
  - { offsetInCU: 0x35E8D, offset: 0x35E8D, size: 0x8, addend: 0x0, symName: __ZNSt3__112__to_addressB8ue170006INS_12basic_stringIcNS_11char_traitsIcEENS_9allocatorIcEEEEEEPT_S8_, symObjAddr: 0x15E78, symBinAddr: 0x10001A110, symSize: 0x14 }
  - { offsetInCU: 0x35EE9, offset: 0x35EE9, size: 0x8, addend: 0x0, symName: __ZNSt3__112construct_atB8ue170006INS_12basic_stringIcNS_11char_traitsIcEENS_9allocatorIcEEEEJRKS6_EPS6_EEPT_SB_DpOT0_, symObjAddr: 0x15F04, symBinAddr: 0x10001A19C, symSize: 0x3C }
  - { offsetInCU: 0x35F5B, offset: 0x35F5B, size: 0x8, addend: 0x0, symName: __ZNSt3__119__allocate_at_leastB8ue170006INS_9allocatorINS_12basic_stringIcNS_11char_traitsIcEENS1_IcEEEEEEEENS_19__allocation_resultINS_16allocator_traitsIT_E7pointerEEERSA_m, symObjAddr: 0x1648C, symBinAddr: 0x10001A724, symSize: 0x40 }
  - { offsetInCU: 0x35F9E, offset: 0x35F9E, size: 0x8, addend: 0x0, symName: __ZNSt3__142__uninitialized_allocator_move_if_noexceptB8ue170006INS_9allocatorINS_12basic_stringIcNS_11char_traitsIcEENS1_IcEEEEEENS_16reverse_iteratorIPS6_EESA_SA_EET2_RT_T0_T1_SB_, symObjAddr: 0x16718, symBinAddr: 0x10001A9B0, symSize: 0x12C }
  - { offsetInCU: 0x3603E, offset: 0x3603E, size: 0x8, addend: 0x0, symName: __ZNSt3__14swapB8ue170006IPNS_12basic_stringIcNS_11char_traitsIcEENS_9allocatorIcEEEEEENS_9enable_ifIXaasr21is_move_constructibleIT_EE5valuesr18is_move_assignableIS9_EE5valueEvE4typeERS9_SC_, symObjAddr: 0x16890, symBinAddr: 0x10001AB28, symSize: 0x3C }
  - { offsetInCU: 0x3608F, offset: 0x3608F, size: 0x8, addend: 0x0, symName: __ZNSt3__122__make_exception_guardB8ue170006INS_29_AllocatorDestroyRangeReverseINS_9allocatorINS_12basic_stringIcNS_11char_traitsIcEENS2_IcEEEEEENS_16reverse_iteratorIPS7_EEEEEENS_28__exception_guard_exceptionsIT_EESE_, symObjAddr: 0x169DC, symBinAddr: 0x10001AC74, symSize: 0x4C }
  - { offsetInCU: 0x360C5, offset: 0x360C5, size: 0x8, addend: 0x0, symName: __ZNSt3__1neB8ue170006IPNS_12basic_stringIcNS_11char_traitsIcEENS_9allocatorIcEEEES7_EEbRKNS_16reverse_iteratorIT_EERKNS8_IT0_EE, symObjAddr: 0x16A6C, symBinAddr: 0x10001AD04, symSize: 0x48 }
  - { offsetInCU: 0x36111, offset: 0x36111, size: 0x8, addend: 0x0, symName: __ZNSt3__112__to_addressB8ue170006INS_16reverse_iteratorIPNS_12basic_stringIcNS_11char_traitsIcEENS_9allocatorIcEEEEEEvEEu7__decayIDTclsr19__to_address_helperIT_EE6__callclsr3stdE7declvalIRKSA_EEEEESC_, symObjAddr: 0x16AE4, symBinAddr: 0x10001AD7C, symSize: 0x24 }
  - { offsetInCU: 0x36147, offset: 0x36147, size: 0x8, addend: 0x0, symName: __ZNSt3__112construct_atB8ue170006INS_12basic_stringIcNS_11char_traitsIcEENS_9allocatorIcEEEEJS6_EPS6_EEPT_S9_DpOT0_, symObjAddr: 0x16C34, symBinAddr: 0x10001AECC, symSize: 0x3C }
  - { offsetInCU: 0x361E3, offset: 0x361E3, size: 0x8, addend: 0x0, symName: __ZNSt3__14prevB8ue170006IPNS_12basic_stringIcNS_11char_traitsIcEENS_9allocatorIcEEEEEENS_9enable_ifIXsr29__has_input_iterator_categoryIT_EE5valueES9_E4typeES9_NS_15iterator_traitsIS9_E15difference_typeE, symObjAddr: 0x16CD4, symBinAddr: 0x10001AF6C, symSize: 0x3C }
  - { offsetInCU: 0x36227, offset: 0x36227, size: 0x8, addend: 0x0, symName: __ZNSt3__19__advanceB8ue170006IPNS_12basic_stringIcNS_11char_traitsIcEENS_9allocatorIcEEEEEEvRT_NS_15iterator_traitsIS8_E15difference_typeENS_26random_access_iterator_tagE, symObjAddr: 0x16D48, symBinAddr: 0x10001AFE0, symSize: 0x30 }
  - { offsetInCU: 0x36271, offset: 0x36271, size: 0x8, addend: 0x0, symName: __ZNSt3__119__allocator_destroyB8ue170006INS_9allocatorINS_12basic_stringIcNS_11char_traitsIcEENS1_IcEEEEEENS_16reverse_iteratorINS8_IPS6_EEEESB_EEvRT_T0_T1_, symObjAddr: 0x16E7C, symBinAddr: 0x10001B114, symSize: 0x70 }
  - { offsetInCU: 0x362D6, offset: 0x362D6, size: 0x8, addend: 0x0, symName: __ZNSt3__1neB8ue170006INS_16reverse_iteratorIPNS_12basic_stringIcNS_11char_traitsIcEENS_9allocatorIcEEEEEES9_EEbRKNS1_IT_EERKNS1_IT0_EE, symObjAddr: 0x16F28, symBinAddr: 0x10001B1C0, symSize: 0x60 }
  - { offsetInCU: 0x36322, offset: 0x36322, size: 0x8, addend: 0x0, symName: __ZNSt3__112__to_addressB8ue170006INS_16reverse_iteratorINS1_IPNS_12basic_stringIcNS_11char_traitsIcEENS_9allocatorIcEEEEEEEEvEEu7__decayIDTclsr19__to_address_helperIT_EE6__callclsr3stdE7declvalIRKSB_EEEEESD_, symObjAddr: 0x16FB0, symBinAddr: 0x10001B248, symSize: 0x24 }
  - { offsetInCU: 0x36358, offset: 0x36358, size: 0x8, addend: 0x0, symName: __ZNSt3__110destroy_atB8ue170006INS_12basic_stringIcNS_11char_traitsIcEENS_9allocatorIcEEEELi0EEEvPT_, symObjAddr: 0x17028, symBinAddr: 0x10001B2C0, symSize: 0x24 }
  - { offsetInCU: 0x3638F, offset: 0x3638F, size: 0x8, addend: 0x0, symName: __ZNSt3__112__destroy_atB8ue170006INS_12basic_stringIcNS_11char_traitsIcEENS_9allocatorIcEEEELi0EEEvPT_, symObjAddr: 0x1704C, symBinAddr: 0x10001B2E4, symSize: 0x24 }
  - { offsetInCU: 0x363F0, offset: 0x363F0, size: 0x8, addend: 0x0, symName: __ZNSt3__14prevB8ue170006INS_16reverse_iteratorIPNS_12basic_stringIcNS_11char_traitsIcEENS_9allocatorIcEEEEEEEENS_9enable_ifIXsr29__has_input_iterator_categoryIT_EE5valueESB_E4typeESB_NS_15iterator_traitsISB_E15difference_typeE, symObjAddr: 0x170F4, symBinAddr: 0x10001B38C, symSize: 0x4C }
  - { offsetInCU: 0x36433, offset: 0x36433, size: 0x8, addend: 0x0, symName: __ZNSt3__19__advanceB8ue170006INS_16reverse_iteratorIPNS_12basic_stringIcNS_11char_traitsIcEENS_9allocatorIcEEEEEEEEvRT_NS_15iterator_traitsISA_E15difference_typeENS_26random_access_iterator_tagE, symObjAddr: 0x17178, symBinAddr: 0x10001B410, symSize: 0x2C }
  - { offsetInCU: 0x3647C, offset: 0x3647C, size: 0x8, addend: 0x0, symName: __ZNSt3__1plB8ue170006IcNS_11char_traitsIcEENS_9allocatorIcEEEENS_12basic_stringIT_T0_T1_EEOS9_RKS9_, symObjAddr: 0x17524, symBinAddr: 0x10001B7BC, symSize: 0x40 }
  - { offsetInCU: 0x364D4, offset: 0x364D4, size: 0x8, addend: 0x0, symName: __ZNSt3__1plB8ue170006IcNS_11char_traitsIcEENS_9allocatorIcEEEENS_12basic_stringIT_T0_T1_EERKS9_OS9_, symObjAddr: 0x17564, symBinAddr: 0x10001B7FC, symSize: 0x44 }
  - { offsetInCU: 0x3652C, offset: 0x3652C, size: 0x8, addend: 0x0, symName: __ZNSt3__1plB8ue170006IcNS_11char_traitsIcEENS_9allocatorIcEEEENS_12basic_stringIT_T0_T1_EERKS9_SB_, symObjAddr: 0x175A8, symBinAddr: 0x10001B840, symSize: 0x134 }
  - { offsetInCU: 0x365CD, offset: 0x365CD, size: 0x8, addend: 0x0, symName: __ZNSt3__112__to_addressB8ue170006IcEEPT_S2_, symObjAddr: 0x17970, symBinAddr: 0x10001BC08, symSize: 0x14 }
  - { offsetInCU: 0x36602, offset: 0x36602, size: 0x8, addend: 0x0, symName: __ZNSt3__14copyB8ue170006IPKcPcEET0_T_S5_S4_, symObjAddr: 0x17C1C, symBinAddr: 0x10001BEB4, symSize: 0x40 }
  - { offsetInCU: 0x3665C, offset: 0x3665C, size: 0x8, addend: 0x0, symName: __ZNSt3__16__copyB8ue170006INS_17_ClassicAlgPolicyEPKcS3_PcEENS_4pairIT0_T2_EES6_T1_S7_, symObjAddr: 0x17C5C, symBinAddr: 0x10001BEF4, symSize: 0x44 }
  - { offsetInCU: 0x366C8, offset: 0x366C8, size: 0x8, addend: 0x0, symName: __ZNSt3__123__dispatch_copy_or_moveB8ue170006INS_17_ClassicAlgPolicyENS_11__copy_loopIS1_EENS_14__copy_trivialEPKcS6_PcEENS_4pairIT2_T4_EES9_T3_SA_, symObjAddr: 0x17CA0, symBinAddr: 0x10001BF38, symSize: 0x44 }
  - { offsetInCU: 0x36746, offset: 0x36746, size: 0x8, addend: 0x0, symName: __ZNSt3__121__unwrap_and_dispatchB8ue170006INS_10__overloadINS_11__copy_loopINS_17_ClassicAlgPolicyEEENS_14__copy_trivialEEEPKcS8_PcLi0EEENS_4pairIT0_T2_EESB_T1_SC_, symObjAddr: 0x17CE4, symBinAddr: 0x10001BF7C, symSize: 0xB4 }
  - { offsetInCU: 0x367D4, offset: 0x367D4, size: 0x8, addend: 0x0, symName: __ZNSt3__114__unwrap_rangeB8ue170006IPKcS2_EEDaT_T0_, symObjAddr: 0x17D98, symBinAddr: 0x10001C030, symSize: 0x3C }
  - { offsetInCU: 0x36AD1, offset: 0x36AD1, size: 0x8, addend: 0x0, symName: __ZNSt3__113__unwrap_iterB8ue170006IPcNS_18__unwrap_iter_implIS1_Lb1EEELi0EEEDTclsrT0_8__unwrapclsr3stdE7declvalIT_EEEES5_, symObjAddr: 0x17E1C, symBinAddr: 0x10001C0B4, symSize: 0x24 }
  - { offsetInCU: 0x36B15, offset: 0x36B15, size: 0x8, addend: 0x0, symName: __ZNSt3__19make_pairB8ue170006IPKcPcEENS_4pairINS_18__unwrap_ref_decayIT_E4typeENS5_IT0_E4typeEEEOS6_OS9_, symObjAddr: 0x17E40, symBinAddr: 0x10001C0D8, symSize: 0x38 }
  - { offsetInCU: 0x36B64, offset: 0x36B64, size: 0x8, addend: 0x0, symName: __ZNSt3__114__rewrap_rangeB8ue170006IPKcS2_S2_EET0_S3_T1_, symObjAddr: 0x17E78, symBinAddr: 0x10001C110, symSize: 0x2C }
  - { offsetInCU: 0x36BB9, offset: 0x36BB9, size: 0x8, addend: 0x0, symName: __ZNSt3__113__rewrap_iterB8ue170006IPcS1_NS_18__unwrap_iter_implIS1_Lb1EEEEET_S4_T0_, symObjAddr: 0x17EA4, symBinAddr: 0x10001C13C, symSize: 0x3C }
  - { offsetInCU: 0x36D2A, offset: 0x36D2A, size: 0x8, addend: 0x0, symName: __ZNSt3__113__unwrap_iterB8ue170006IPKcNS_18__unwrap_iter_implIS2_Lb1EEELi0EEEDTclsrT0_8__unwrapclsr3stdE7declvalIT_EEEES6_, symObjAddr: 0x17F38, symBinAddr: 0x10001C1D0, symSize: 0x24 }
  - { offsetInCU: 0x36DC1, offset: 0x36DC1, size: 0x8, addend: 0x0, symName: __ZNSt3__119__copy_trivial_implB8ue170006IKccEENS_4pairIPT_PT0_EES4_S4_S6_, symObjAddr: 0x17FF0, symBinAddr: 0x10001C288, symSize: 0x78 }
  - { offsetInCU: 0x36E29, offset: 0x36E29, size: 0x8, addend: 0x0, symName: __ZNSt3__119__constexpr_memmoveB8ue170006IcKcLi0EEEPT_S3_PT0_NS_15__element_countE, symObjAddr: 0x18068, symBinAddr: 0x10001C300, symSize: 0x64 }
  - { offsetInCU: 0x36E97, offset: 0x36E97, size: 0x8, addend: 0x0, symName: __ZNSt3__19make_pairB8ue170006IRPKcPcEENS_4pairINS_18__unwrap_ref_decayIT_E4typeENS6_IT0_E4typeEEEOS7_OSA_, symObjAddr: 0x180CC, symBinAddr: 0x10001C364, symSize: 0x38 }
  - { offsetInCU: 0x36F39, offset: 0x36F39, size: 0x8, addend: 0x0, symName: __ZNSt3__113__rewrap_iterB8ue170006IPKcS2_NS_18__unwrap_iter_implIS2_Lb1EEEEET_S5_T0_, symObjAddr: 0x18234, symBinAddr: 0x10001C4CC, symSize: 0x3C }
  - { offsetInCU: 0x36F8E, offset: 0x36F8E, size: 0x8, addend: 0x0, symName: __ZNSt3__16fill_nB8ue170006IPcmcEET_S2_T0_RKT1_, symObjAddr: 0x18300, symBinAddr: 0x10001C598, symSize: 0x44 }
  - { offsetInCU: 0x36FF1, offset: 0x36FF1, size: 0x8, addend: 0x0, symName: __ZNSt3__18__fill_nB8ue170006IPcmcEET_S2_T0_RKT1_, symObjAddr: 0x18344, symBinAddr: 0x10001C5DC, symSize: 0x64 }
  - { offsetInCU: 0x37054, offset: 0x37054, size: 0x8, addend: 0x0, symName: __ZNSt3__121__convert_to_integralB8ue170006Em, symObjAddr: 0x183A8, symBinAddr: 0x10001C640, symSize: 0x14 }
  - { offsetInCU: 0x37080, offset: 0x37080, size: 0x8, addend: 0x0, symName: __ZNSt3__112__to_addressB8ue170006IfEEPT_S2_, symObjAddr: 0x18868, symBinAddr: 0x10001CB00, symSize: 0x14 }
  - { offsetInCU: 0x370B5, offset: 0x370B5, size: 0x8, addend: 0x0, symName: __ZNSt3__110destroy_atB8ue170006IfLi0EEEvPT_, symObjAddr: 0x1887C, symBinAddr: 0x10001CB14, symSize: 0x24 }
  - { offsetInCU: 0x370ED, offset: 0x370ED, size: 0x8, addend: 0x0, symName: __ZNSt3__112__destroy_atB8ue170006IfLi0EEEvPT_, symObjAddr: 0x188A0, symBinAddr: 0x10001CB38, symSize: 0x10 }
  - { offsetInCU: 0x37124, offset: 0x37124, size: 0x8, addend: 0x0, symName: __ZNSt3__112__to_addressB8ue170006IN7tinyobj7shape_tEEEPT_S4_, symObjAddr: 0x18BCC, symBinAddr: 0x10001CE64, symSize: 0x14 }
  - { offsetInCU: 0x37159, offset: 0x37159, size: 0x8, addend: 0x0, symName: __ZNSt3__110destroy_atB8ue170006IN7tinyobj7shape_tELi0EEEvPT_, symObjAddr: 0x18BE0, symBinAddr: 0x10001CE78, symSize: 0x24 }
  - { offsetInCU: 0x37190, offset: 0x37190, size: 0x8, addend: 0x0, symName: __ZNSt3__112__destroy_atB8ue170006IN7tinyobj7shape_tELi0EEEvPT_, symObjAddr: 0x18C04, symBinAddr: 0x10001CE9C, symSize: 0x24 }
  - { offsetInCU: 0x371EE, offset: 0x371EE, size: 0x8, addend: 0x0, symName: __ZNSt3__112construct_atB8ue170006IfJRKfEPfEEPT_S5_DpOT0_, symObjAddr: 0x19ED8, symBinAddr: 0x10001E170, symSize: 0x2C }
  - { offsetInCU: 0x37260, offset: 0x37260, size: 0x8, addend: 0x0, symName: __ZNSt3__119__allocate_at_leastB8ue170006INS_9allocatorIfEEEENS_19__allocation_resultINS_16allocator_traitsIT_E7pointerEEERS5_m, symObjAddr: 0x1A36C, symBinAddr: 0x10001E604, symSize: 0x40 }
  - { offsetInCU: 0x372A3, offset: 0x372A3, size: 0x8, addend: 0x0, symName: __ZNSt3__142__uninitialized_allocator_move_if_noexceptB8ue170006INS_9allocatorIfEENS_16reverse_iteratorIPfEES5_fvEET1_RT_T0_S9_S6_, symObjAddr: 0x1A5D8, symBinAddr: 0x10001E870, symSize: 0x78 }
  - { offsetInCU: 0x37321, offset: 0x37321, size: 0x8, addend: 0x0, symName: __ZNSt3__14swapB8ue170006IPfEENS_9enable_ifIXaasr21is_move_constructibleIT_EE5valuesr18is_move_assignableIS3_EE5valueEvE4typeERS3_S6_, symObjAddr: 0x1A69C, symBinAddr: 0x10001E934, symSize: 0x3C }
  - { offsetInCU: 0x37372, offset: 0x37372, size: 0x8, addend: 0x0, symName: __ZNSt3__14moveB8ue170006INS_16reverse_iteratorIPfEES3_EET0_T_S5_S4_, symObjAddr: 0x1A784, symBinAddr: 0x10001EA1C, symSize: 0x78 }
  - { offsetInCU: 0x373CC, offset: 0x373CC, size: 0x8, addend: 0x0, symName: __ZNSt3__16__moveB8ue170006INS_17_ClassicAlgPolicyENS_16reverse_iteratorIPfEES4_S4_EENS_4pairIT0_T2_EES6_T1_S7_, symObjAddr: 0x1A7FC, symBinAddr: 0x10001EA94, symSize: 0x64 }
  - { offsetInCU: 0x37438, offset: 0x37438, size: 0x8, addend: 0x0, symName: __ZNSt3__123__dispatch_copy_or_moveB8ue170006INS_17_ClassicAlgPolicyENS_11__move_loopIS1_EENS_14__move_trivialENS_16reverse_iteratorIPfEES7_S7_EENS_4pairIT2_T4_EES9_T3_SA_, symObjAddr: 0x1A860, symBinAddr: 0x10001EAF8, symSize: 0x64 }
  - { offsetInCU: 0x374B6, offset: 0x374B6, size: 0x8, addend: 0x0, symName: __ZNSt3__121__unwrap_and_dispatchB8ue170006INS_10__overloadINS_11__move_loopINS_17_ClassicAlgPolicyEEENS_14__move_trivialEEENS_16reverse_iteratorIPfEES9_S9_Li0EEENS_4pairIT0_T2_EESB_T1_SC_, symObjAddr: 0x1A8C4, symBinAddr: 0x10001EB5C, symSize: 0x12C }
  - { offsetInCU: 0x37546, offset: 0x37546, size: 0x8, addend: 0x0, symName: __ZNSt3__114__unwrap_rangeB8ue170006INS_16reverse_iteratorIPfEES3_EEDaT_T0_, symObjAddr: 0x1A9F0, symBinAddr: 0x10001EC88, symSize: 0x4C }
  - { offsetInCU: 0x3783B, offset: 0x3783B, size: 0x8, addend: 0x0, symName: __ZNSt3__113__unwrap_iterB8ue170006INS_16reverse_iteratorIPfEENS_18__unwrap_iter_implIS3_Lb0EEELi0EEEDTclsrT0_8__unwrapclsr3stdE7declvalIT_EEEES7_, symObjAddr: 0x1AADC, symBinAddr: 0x10001ED74, symSize: 0x44 }
  - { offsetInCU: 0x3787F, offset: 0x3787F, size: 0x8, addend: 0x0, symName: __ZNSt3__19make_pairB8ue170006INS_16reverse_iteratorIPfEES3_EENS_4pairINS_18__unwrap_ref_decayIT_E4typeENS5_IT0_E4typeEEEOS6_OS9_, symObjAddr: 0x1AB20, symBinAddr: 0x10001EDB8, symSize: 0x38 }
  - { offsetInCU: 0x378CE, offset: 0x378CE, size: 0x8, addend: 0x0, symName: __ZNSt3__114__rewrap_rangeB8ue170006INS_16reverse_iteratorIPfEES3_S3_EET0_S4_T1_, symObjAddr: 0x1AB58, symBinAddr: 0x10001EDF0, symSize: 0x5C }
  - { offsetInCU: 0x37923, offset: 0x37923, size: 0x8, addend: 0x0, symName: __ZNSt3__113__rewrap_iterB8ue170006INS_16reverse_iteratorIPfEES3_NS_18__unwrap_iter_implIS3_Lb0EEEEET_S6_T0_, symObjAddr: 0x1ABB4, symBinAddr: 0x10001EE4C, symSize: 0x74 }
  - { offsetInCU: 0x379C8, offset: 0x379C8, size: 0x8, addend: 0x0, symName: __ZNSt3__1neB8ue170006IPfS1_EEbRKNS_16reverse_iteratorIT_EERKNS2_IT0_EE, symObjAddr: 0x1AD1C, symBinAddr: 0x10001EFB4, symSize: 0x48 }
  - { offsetInCU: 0x37BF8, offset: 0x37BF8, size: 0x8, addend: 0x0, symName: __ZNSt3__112__to_addressB8ue170006IN7tinyobj18joint_and_weight_tEEEPT_S4_, symObjAddr: 0x1B514, symBinAddr: 0x10001F7AC, symSize: 0x14 }
  - { offsetInCU: 0x37C54, offset: 0x37C54, size: 0x8, addend: 0x0, symName: __ZNSt3__112construct_atB8ue170006IN7tinyobj18joint_and_weight_tEJRKS2_EPS2_EEPT_S7_DpOT0_, symObjAddr: 0x1B598, symBinAddr: 0x10001F830, symSize: 0x2C }
  - { offsetInCU: 0x37CC6, offset: 0x37CC6, size: 0x8, addend: 0x0, symName: __ZNSt3__119__allocate_at_leastB8ue170006INS_9allocatorIN7tinyobj18joint_and_weight_tEEEEENS_19__allocation_resultINS_16allocator_traitsIT_E7pointerEEERS7_m, symObjAddr: 0x1BB2C, symBinAddr: 0x10001FDC4, symSize: 0x40 }
  - { offsetInCU: 0x37D09, offset: 0x37D09, size: 0x8, addend: 0x0, symName: __ZNSt3__142__uninitialized_allocator_move_if_noexceptB8ue170006INS_9allocatorIN7tinyobj18joint_and_weight_tEEENS_16reverse_iteratorIPS3_EES7_S3_vEET1_RT_T0_SB_S8_, symObjAddr: 0x1BD98, symBinAddr: 0x100020030, symSize: 0x78 }
  - { offsetInCU: 0x37D87, offset: 0x37D87, size: 0x8, addend: 0x0, symName: __ZNSt3__14swapB8ue170006IPN7tinyobj18joint_and_weight_tEEENS_9enable_ifIXaasr21is_move_constructibleIT_EE5valuesr18is_move_assignableIS5_EE5valueEvE4typeERS5_S8_, symObjAddr: 0x1BE5C, symBinAddr: 0x1000200F4, symSize: 0x3C }
  - { offsetInCU: 0x37DD8, offset: 0x37DD8, size: 0x8, addend: 0x0, symName: __ZNSt3__14moveB8ue170006INS_16reverse_iteratorIPN7tinyobj18joint_and_weight_tEEES5_EET0_T_S7_S6_, symObjAddr: 0x1BF8C, symBinAddr: 0x100020224, symSize: 0x78 }
  - { offsetInCU: 0x37E32, offset: 0x37E32, size: 0x8, addend: 0x0, symName: __ZNSt3__16__moveB8ue170006INS_17_ClassicAlgPolicyENS_16reverse_iteratorIPN7tinyobj18joint_and_weight_tEEES6_S6_EENS_4pairIT0_T2_EES8_T1_S9_, symObjAddr: 0x1C004, symBinAddr: 0x10002029C, symSize: 0x64 }
  - { offsetInCU: 0x37E9E, offset: 0x37E9E, size: 0x8, addend: 0x0, symName: __ZNSt3__123__dispatch_copy_or_moveB8ue170006INS_17_ClassicAlgPolicyENS_11__move_loopIS1_EENS_14__move_trivialENS_16reverse_iteratorIPN7tinyobj18joint_and_weight_tEEES9_S9_EENS_4pairIT2_T4_EESB_T3_SC_, symObjAddr: 0x1C068, symBinAddr: 0x100020300, symSize: 0x64 }
  - { offsetInCU: 0x37F1C, offset: 0x37F1C, size: 0x8, addend: 0x0, symName: __ZNSt3__121__unwrap_and_dispatchB8ue170006INS_10__overloadINS_11__move_loopINS_17_ClassicAlgPolicyEEENS_14__move_trivialEEENS_16reverse_iteratorIPN7tinyobj18joint_and_weight_tEEESB_SB_Li0EEENS_4pairIT0_T2_EESD_T1_SE_, symObjAddr: 0x1C0CC, symBinAddr: 0x100020364, symSize: 0x12C }
  - { offsetInCU: 0x37FAC, offset: 0x37FAC, size: 0x8, addend: 0x0, symName: __ZNSt3__114__unwrap_rangeB8ue170006INS_16reverse_iteratorIPN7tinyobj18joint_and_weight_tEEES5_EEDaT_T0_, symObjAddr: 0x1C1F8, symBinAddr: 0x100020490, symSize: 0x4C }
  - { offsetInCU: 0x380CC, offset: 0x380CC, size: 0x8, addend: 0x0, symName: __ZNSt3__113__unwrap_iterB8ue170006INS_16reverse_iteratorIPN7tinyobj18joint_and_weight_tEEENS_18__unwrap_iter_implIS5_Lb0EEELi0EEEDTclsrT0_8__unwrapclsr3stdE7declvalIT_EEEES9_, symObjAddr: 0x1C2E4, symBinAddr: 0x10002057C, symSize: 0x44 }
  - { offsetInCU: 0x38110, offset: 0x38110, size: 0x8, addend: 0x0, symName: __ZNSt3__19make_pairB8ue170006INS_16reverse_iteratorIPN7tinyobj18joint_and_weight_tEEES5_EENS_4pairINS_18__unwrap_ref_decayIT_E4typeENS7_IT0_E4typeEEEOS8_OSB_, symObjAddr: 0x1C328, symBinAddr: 0x1000205C0, symSize: 0x38 }
  - { offsetInCU: 0x3815F, offset: 0x3815F, size: 0x8, addend: 0x0, symName: __ZNSt3__114__rewrap_rangeB8ue170006INS_16reverse_iteratorIPN7tinyobj18joint_and_weight_tEEES5_S5_EET0_S6_T1_, symObjAddr: 0x1C360, symBinAddr: 0x1000205F8, symSize: 0x5C }
  - { offsetInCU: 0x381B4, offset: 0x381B4, size: 0x8, addend: 0x0, symName: __ZNSt3__113__rewrap_iterB8ue170006INS_16reverse_iteratorIPN7tinyobj18joint_and_weight_tEEES5_NS_18__unwrap_iter_implIS5_Lb0EEEEET_S8_T0_, symObjAddr: 0x1C3BC, symBinAddr: 0x100020654, symSize: 0x74 }
  - { offsetInCU: 0x38259, offset: 0x38259, size: 0x8, addend: 0x0, symName: __ZNSt3__1neB8ue170006IPN7tinyobj18joint_and_weight_tES3_EEbRKNS_16reverse_iteratorIT_EERKNS4_IT0_EE, symObjAddr: 0x1C524, symBinAddr: 0x1000207BC, symSize: 0x48 }
  - { offsetInCU: 0x38311, offset: 0x38311, size: 0x8, addend: 0x0, symName: __ZNSt3__110destroy_atB8ue170006IN7tinyobj18joint_and_weight_tELi0EEEvPT_, symObjAddr: 0x1C8B0, symBinAddr: 0x100020B48, symSize: 0x24 }
  - { offsetInCU: 0x38349, offset: 0x38349, size: 0x8, addend: 0x0, symName: __ZNSt3__112__destroy_atB8ue170006IN7tinyobj18joint_and_weight_tELi0EEEvPT_, symObjAddr: 0x1C8D4, symBinAddr: 0x100020B6C, symSize: 0x10 }
  - { offsetInCU: 0x38380, offset: 0x38380, size: 0x8, addend: 0x0, symName: __ZNSt3__112__to_addressB8ue170006IN7tinyobj13skin_weight_tEEEPT_S4_, symObjAddr: 0x1CBCC, symBinAddr: 0x100020E64, symSize: 0x14 }
  - { offsetInCU: 0x383DC, offset: 0x383DC, size: 0x8, addend: 0x0, symName: __ZNSt3__112construct_atB8ue170006IN7tinyobj13skin_weight_tEJRKS2_EPS2_EEPT_S7_DpOT0_, symObjAddr: 0x1CC50, symBinAddr: 0x100020EE8, symSize: 0x3C }
  - { offsetInCU: 0x3844E, offset: 0x3844E, size: 0x8, addend: 0x0, symName: __ZNSt3__122__make_exception_guardB8ue170006INS_6vectorIN7tinyobj18joint_and_weight_tENS_9allocatorIS3_EEE16__destroy_vectorEEENS_28__exception_guard_exceptionsIT_EES9_, symObjAddr: 0x1CF30, symBinAddr: 0x1000211C8, symSize: 0x40 }
  - { offsetInCU: 0x38483, offset: 0x38483, size: 0x8, addend: 0x0, symName: __ZNSt3__130__uninitialized_allocator_copyB8ue170006INS_9allocatorIN7tinyobj18joint_and_weight_tEEEPS3_S5_S5_EET2_RT_T0_T1_S6_, symObjAddr: 0x1D19C, symBinAddr: 0x100021434, symSize: 0x80 }
  - { offsetInCU: 0x38520, offset: 0x38520, size: 0x8, addend: 0x0, symName: __ZNSt3__114__unwrap_rangeB8ue170006IPN7tinyobj18joint_and_weight_tES3_EEDaT_T0_, symObjAddr: 0x1D21C, symBinAddr: 0x1000214B4, symSize: 0x3C }
  - { offsetInCU: 0x3856C, offset: 0x3856C, size: 0x8, addend: 0x0, symName: __ZNSt3__135__uninitialized_allocator_copy_implB8ue170006INS_9allocatorIN7tinyobj18joint_and_weight_tEEES3_S3_S3_LPv0EEEPT2_RT_PT0_SB_S7_, symObjAddr: 0x1D258, symBinAddr: 0x1000214F0, symSize: 0x38 }
  - { offsetInCU: 0x385EE, offset: 0x385EE, size: 0x8, addend: 0x0, symName: __ZNSt3__113__unwrap_iterB8ue170006IPN7tinyobj18joint_and_weight_tENS_18__unwrap_iter_implIS3_Lb1EEELi0EEEDTclsrT0_8__unwrapclsr3stdE7declvalIT_EEEES7_, symObjAddr: 0x1D290, symBinAddr: 0x100021528, symSize: 0x24 }
  - { offsetInCU: 0x38632, offset: 0x38632, size: 0x8, addend: 0x0, symName: __ZNSt3__113__rewrap_iterB8ue170006IPN7tinyobj18joint_and_weight_tES3_NS_18__unwrap_iter_implIS3_Lb1EEEEET_S6_T0_, symObjAddr: 0x1D2B4, symBinAddr: 0x10002154C, symSize: 0x3C }
  - { offsetInCU: 0x387D2, offset: 0x387D2, size: 0x8, addend: 0x0, symName: __ZNSt3__14copyB8ue170006IPN7tinyobj18joint_and_weight_tES3_EET0_T_S5_S4_, symObjAddr: 0x1D3B8, symBinAddr: 0x100021650, symSize: 0x40 }
  - { offsetInCU: 0x3882C, offset: 0x3882C, size: 0x8, addend: 0x0, symName: __ZNSt3__16__copyB8ue170006INS_17_ClassicAlgPolicyEPN7tinyobj18joint_and_weight_tES4_S4_EENS_4pairIT0_T2_EES6_T1_S7_, symObjAddr: 0x1D3F8, symBinAddr: 0x100021690, symSize: 0x44 }
  - { offsetInCU: 0x38898, offset: 0x38898, size: 0x8, addend: 0x0, symName: __ZNSt3__123__dispatch_copy_or_moveB8ue170006INS_17_ClassicAlgPolicyENS_11__copy_loopIS1_EENS_14__copy_trivialEPN7tinyobj18joint_and_weight_tES7_S7_EENS_4pairIT2_T4_EES9_T3_SA_, symObjAddr: 0x1D43C, symBinAddr: 0x1000216D4, symSize: 0x44 }
  - { offsetInCU: 0x38916, offset: 0x38916, size: 0x8, addend: 0x0, symName: __ZNSt3__121__unwrap_and_dispatchB8ue170006INS_10__overloadINS_11__copy_loopINS_17_ClassicAlgPolicyEEENS_14__copy_trivialEEEPN7tinyobj18joint_and_weight_tES9_S9_Li0EEENS_4pairIT0_T2_EESB_T1_SC_, symObjAddr: 0x1D480, symBinAddr: 0x100021718, symSize: 0xB4 }
  - { offsetInCU: 0x389A4, offset: 0x389A4, size: 0x8, addend: 0x0, symName: __ZNSt3__19make_pairB8ue170006IPN7tinyobj18joint_and_weight_tES3_EENS_4pairINS_18__unwrap_ref_decayIT_E4typeENS5_IT0_E4typeEEEOS6_OS9_, symObjAddr: 0x1D57C, symBinAddr: 0x100021814, symSize: 0x38 }
  - { offsetInCU: 0x389F3, offset: 0x389F3, size: 0x8, addend: 0x0, symName: __ZNSt3__114__rewrap_rangeB8ue170006IPN7tinyobj18joint_and_weight_tES3_S3_EET0_S4_T1_, symObjAddr: 0x1D5B4, symBinAddr: 0x10002184C, symSize: 0x2C }
  - { offsetInCU: 0x38A48, offset: 0x38A48, size: 0x8, addend: 0x0, symName: __ZNSt3__119__copy_trivial_implB8ue170006IN7tinyobj18joint_and_weight_tES2_EENS_4pairIPT_PT0_EES5_S5_S7_, symObjAddr: 0x1D5E0, symBinAddr: 0x100021878, symSize: 0x80 }
  - { offsetInCU: 0x38AB0, offset: 0x38AB0, size: 0x8, addend: 0x0, symName: __ZNSt3__119__constexpr_memmoveB8ue170006IN7tinyobj18joint_and_weight_tES2_Li0EEEPT_S4_PT0_NS_15__element_countE, symObjAddr: 0x1D660, symBinAddr: 0x1000218F8, symSize: 0x64 }
  - { offsetInCU: 0x38B1E, offset: 0x38B1E, size: 0x8, addend: 0x0, symName: __ZNSt3__19make_pairB8ue170006IRPN7tinyobj18joint_and_weight_tES3_EENS_4pairINS_18__unwrap_ref_decayIT_E4typeENS6_IT0_E4typeEEEOS7_OSA_, symObjAddr: 0x1D6C4, symBinAddr: 0x10002195C, symSize: 0x38 }
  - { offsetInCU: 0x38BC0, offset: 0x38BC0, size: 0x8, addend: 0x0, symName: __ZNSt3__119__allocate_at_leastB8ue170006INS_9allocatorIN7tinyobj13skin_weight_tEEEEENS_19__allocation_resultINS_16allocator_traitsIT_E7pointerEEERS7_m, symObjAddr: 0x1DF08, symBinAddr: 0x1000221A0, symSize: 0x40 }
  - { offsetInCU: 0x38C03, offset: 0x38C03, size: 0x8, addend: 0x0, symName: __ZNSt3__142__uninitialized_allocator_move_if_noexceptB8ue170006INS_9allocatorIN7tinyobj13skin_weight_tEEENS_16reverse_iteratorIPS3_EES7_S7_EET2_RT_T0_T1_S8_, symObjAddr: 0x1E174, symBinAddr: 0x10002240C, symSize: 0x12C }
  - { offsetInCU: 0x38CA3, offset: 0x38CA3, size: 0x8, addend: 0x0, symName: __ZNSt3__14swapB8ue170006IPN7tinyobj13skin_weight_tEEENS_9enable_ifIXaasr21is_move_constructibleIT_EE5valuesr18is_move_assignableIS5_EE5valueEvE4typeERS5_S8_, symObjAddr: 0x1E2EC, symBinAddr: 0x100022584, symSize: 0x3C }
  - { offsetInCU: 0x38CF4, offset: 0x38CF4, size: 0x8, addend: 0x0, symName: __ZNSt3__122__make_exception_guardB8ue170006INS_29_AllocatorDestroyRangeReverseINS_9allocatorIN7tinyobj13skin_weight_tEEENS_16reverse_iteratorIPS4_EEEEEENS_28__exception_guard_exceptionsIT_EESB_, symObjAddr: 0x1E41C, symBinAddr: 0x1000226B4, symSize: 0x4C }
  - { offsetInCU: 0x38D2A, offset: 0x38D2A, size: 0x8, addend: 0x0, symName: __ZNSt3__1neB8ue170006IPN7tinyobj13skin_weight_tES3_EEbRKNS_16reverse_iteratorIT_EERKNS4_IT0_EE, symObjAddr: 0x1E4AC, symBinAddr: 0x100022744, symSize: 0x48 }
  - { offsetInCU: 0x38D76, offset: 0x38D76, size: 0x8, addend: 0x0, symName: __ZNSt3__112__to_addressB8ue170006INS_16reverse_iteratorIPN7tinyobj13skin_weight_tEEEvEEu7__decayIDTclsr19__to_address_helperIT_EE6__callclsr3stdE7declvalIRKS6_EEEEES8_, symObjAddr: 0x1E524, symBinAddr: 0x1000227BC, symSize: 0x24 }
  - { offsetInCU: 0x38DAC, offset: 0x38DAC, size: 0x8, addend: 0x0, symName: __ZNSt3__112construct_atB8ue170006IN7tinyobj13skin_weight_tEJS2_EPS2_EEPT_S5_DpOT0_, symObjAddr: 0x1E674, symBinAddr: 0x10002290C, symSize: 0x3C }
  - { offsetInCU: 0x38E48, offset: 0x38E48, size: 0x8, addend: 0x0, symName: __ZNSt3__14prevB8ue170006IPN7tinyobj13skin_weight_tEEENS_9enable_ifIXsr29__has_input_iterator_categoryIT_EE5valueES5_E4typeES5_NS_15iterator_traitsIS5_E15difference_typeE, symObjAddr: 0x1E888, symBinAddr: 0x100022B20, symSize: 0x3C }
  - { offsetInCU: 0x38E8C, offset: 0x38E8C, size: 0x8, addend: 0x0, symName: __ZNSt3__19__advanceB8ue170006IPN7tinyobj13skin_weight_tEEEvRT_NS_15iterator_traitsIS4_E15difference_typeENS_26random_access_iterator_tagE, symObjAddr: 0x1E8FC, symBinAddr: 0x100022B94, symSize: 0x28 }
  - { offsetInCU: 0x38ED6, offset: 0x38ED6, size: 0x8, addend: 0x0, symName: __ZNSt3__119__allocator_destroyB8ue170006INS_9allocatorIN7tinyobj13skin_weight_tEEENS_16reverse_iteratorINS5_IPS3_EEEES8_EEvRT_T0_T1_, symObjAddr: 0x1EA28, symBinAddr: 0x100022CC0, symSize: 0x70 }
  - { offsetInCU: 0x38F3B, offset: 0x38F3B, size: 0x8, addend: 0x0, symName: __ZNSt3__1neB8ue170006INS_16reverse_iteratorIPN7tinyobj13skin_weight_tEEES5_EEbRKNS1_IT_EERKNS1_IT0_EE, symObjAddr: 0x1EAD4, symBinAddr: 0x100022D6C, symSize: 0x60 }
  - { offsetInCU: 0x38F87, offset: 0x38F87, size: 0x8, addend: 0x0, symName: __ZNSt3__112__to_addressB8ue170006INS_16reverse_iteratorINS1_IPN7tinyobj13skin_weight_tEEEEEvEEu7__decayIDTclsr19__to_address_helperIT_EE6__callclsr3stdE7declvalIRKS7_EEEEES9_, symObjAddr: 0x1EB5C, symBinAddr: 0x100022DF4, symSize: 0x24 }
  - { offsetInCU: 0x38FBD, offset: 0x38FBD, size: 0x8, addend: 0x0, symName: __ZNSt3__110destroy_atB8ue170006IN7tinyobj13skin_weight_tELi0EEEvPT_, symObjAddr: 0x1EBD4, symBinAddr: 0x100022E6C, symSize: 0x24 }
  - { offsetInCU: 0x38FF4, offset: 0x38FF4, size: 0x8, addend: 0x0, symName: __ZNSt3__112__destroy_atB8ue170006IN7tinyobj13skin_weight_tELi0EEEvPT_, symObjAddr: 0x1EBF8, symBinAddr: 0x100022E90, symSize: 0x24 }
  - { offsetInCU: 0x39055, offset: 0x39055, size: 0x8, addend: 0x0, symName: __ZNSt3__14prevB8ue170006INS_16reverse_iteratorIPN7tinyobj13skin_weight_tEEEEENS_9enable_ifIXsr29__has_input_iterator_categoryIT_EE5valueES7_E4typeES7_NS_15iterator_traitsIS7_E15difference_typeE, symObjAddr: 0x1ECA0, symBinAddr: 0x100022F38, symSize: 0x4C }
  - { offsetInCU: 0x39098, offset: 0x39098, size: 0x8, addend: 0x0, symName: __ZNSt3__19__advanceB8ue170006INS_16reverse_iteratorIPN7tinyobj13skin_weight_tEEEEEvRT_NS_15iterator_traitsIS6_E15difference_typeENS_26random_access_iterator_tagE, symObjAddr: 0x1ED24, symBinAddr: 0x100022FBC, symSize: 0x2C }
  - { offsetInCU: 0x390E1, offset: 0x390E1, size: 0x8, addend: 0x0, symName: __ZNSt3__112__to_addressB8ue170006IN7tinyobj14vertex_index_tEEEPT_S4_, symObjAddr: 0x1F7B0, symBinAddr: 0x100023A48, symSize: 0x14 }
  - { offsetInCU: 0x3913D, offset: 0x3913D, size: 0x8, addend: 0x0, symName: __ZNSt3__112construct_atB8ue170006IN7tinyobj14vertex_index_tEJRKS2_EPS2_EEPT_S7_DpOT0_, symObjAddr: 0x1F83C, symBinAddr: 0x100023AD4, symSize: 0x34 }
  - { offsetInCU: 0x391AF, offset: 0x391AF, size: 0x8, addend: 0x0, symName: __ZNSt3__119__allocate_at_leastB8ue170006INS_9allocatorIN7tinyobj14vertex_index_tEEEEENS_19__allocation_resultINS_16allocator_traitsIT_E7pointerEEERS7_m, symObjAddr: 0x1FDE4, symBinAddr: 0x10002407C, symSize: 0x40 }
  - { offsetInCU: 0x391F2, offset: 0x391F2, size: 0x8, addend: 0x0, symName: __ZNSt3__142__uninitialized_allocator_move_if_noexceptB8ue170006INS_9allocatorIN7tinyobj14vertex_index_tEEENS_16reverse_iteratorIPS3_EES7_S3_vEET1_RT_T0_SB_S8_, symObjAddr: 0x20070, symBinAddr: 0x100024308, symSize: 0x78 }
  - { offsetInCU: 0x39270, offset: 0x39270, size: 0x8, addend: 0x0, symName: __ZNSt3__14swapB8ue170006IPN7tinyobj14vertex_index_tEEENS_9enable_ifIXaasr21is_move_constructibleIT_EE5valuesr18is_move_assignableIS5_EE5valueEvE4typeERS5_S8_, symObjAddr: 0x20134, symBinAddr: 0x1000243CC, symSize: 0x3C }
  - { offsetInCU: 0x392C1, offset: 0x392C1, size: 0x8, addend: 0x0, symName: __ZNSt3__14moveB8ue170006INS_16reverse_iteratorIPN7tinyobj14vertex_index_tEEES5_EET0_T_S7_S6_, symObjAddr: 0x20280, symBinAddr: 0x100024518, symSize: 0x78 }
  - { offsetInCU: 0x3931B, offset: 0x3931B, size: 0x8, addend: 0x0, symName: __ZNSt3__16__moveB8ue170006INS_17_ClassicAlgPolicyENS_16reverse_iteratorIPN7tinyobj14vertex_index_tEEES6_S6_EENS_4pairIT0_T2_EES8_T1_S9_, symObjAddr: 0x202F8, symBinAddr: 0x100024590, symSize: 0x64 }
  - { offsetInCU: 0x39387, offset: 0x39387, size: 0x8, addend: 0x0, symName: __ZNSt3__123__dispatch_copy_or_moveB8ue170006INS_17_ClassicAlgPolicyENS_11__move_loopIS1_EENS_14__move_trivialENS_16reverse_iteratorIPN7tinyobj14vertex_index_tEEES9_S9_EENS_4pairIT2_T4_EESB_T3_SC_, symObjAddr: 0x2035C, symBinAddr: 0x1000245F4, symSize: 0x64 }
  - { offsetInCU: 0x39405, offset: 0x39405, size: 0x8, addend: 0x0, symName: __ZNSt3__121__unwrap_and_dispatchB8ue170006INS_10__overloadINS_11__move_loopINS_17_ClassicAlgPolicyEEENS_14__move_trivialEEENS_16reverse_iteratorIPN7tinyobj14vertex_index_tEEESB_SB_Li0EEENS_4pairIT0_T2_EESD_T1_SE_, symObjAddr: 0x203C0, symBinAddr: 0x100024658, symSize: 0x12C }
  - { offsetInCU: 0x39495, offset: 0x39495, size: 0x8, addend: 0x0, symName: __ZNSt3__114__unwrap_rangeB8ue170006INS_16reverse_iteratorIPN7tinyobj14vertex_index_tEEES5_EEDaT_T0_, symObjAddr: 0x204EC, symBinAddr: 0x100024784, symSize: 0x4C }
  - { offsetInCU: 0x395B5, offset: 0x395B5, size: 0x8, addend: 0x0, symName: __ZNSt3__113__unwrap_iterB8ue170006INS_16reverse_iteratorIPN7tinyobj14vertex_index_tEEENS_18__unwrap_iter_implIS5_Lb0EEELi0EEEDTclsrT0_8__unwrapclsr3stdE7declvalIT_EEEES9_, symObjAddr: 0x205E0, symBinAddr: 0x100024878, symSize: 0x44 }
  - { offsetInCU: 0x395F9, offset: 0x395F9, size: 0x8, addend: 0x0, symName: __ZNSt3__19make_pairB8ue170006INS_16reverse_iteratorIPN7tinyobj14vertex_index_tEEES5_EENS_4pairINS_18__unwrap_ref_decayIT_E4typeENS7_IT0_E4typeEEEOS8_OSB_, symObjAddr: 0x20624, symBinAddr: 0x1000248BC, symSize: 0x38 }
  - { offsetInCU: 0x39648, offset: 0x39648, size: 0x8, addend: 0x0, symName: __ZNSt3__114__rewrap_rangeB8ue170006INS_16reverse_iteratorIPN7tinyobj14vertex_index_tEEES5_S5_EET0_S6_T1_, symObjAddr: 0x2065C, symBinAddr: 0x1000248F4, symSize: 0x5C }
  - { offsetInCU: 0x3969D, offset: 0x3969D, size: 0x8, addend: 0x0, symName: __ZNSt3__113__rewrap_iterB8ue170006INS_16reverse_iteratorIPN7tinyobj14vertex_index_tEEES5_NS_18__unwrap_iter_implIS5_Lb0EEEEET_S8_T0_, symObjAddr: 0x206B8, symBinAddr: 0x100024950, symSize: 0x74 }
  - { offsetInCU: 0x39742, offset: 0x39742, size: 0x8, addend: 0x0, symName: __ZNSt3__1neB8ue170006IPN7tinyobj14vertex_index_tES3_EEbRKNS_16reverse_iteratorIT_EERKNS4_IT0_EE, symObjAddr: 0x20820, symBinAddr: 0x100024AB8, symSize: 0x48 }
  - { offsetInCU: 0x397FA, offset: 0x397FA, size: 0x8, addend: 0x0, symName: __ZNSt3__110destroy_atB8ue170006IN7tinyobj14vertex_index_tELi0EEEvPT_, symObjAddr: 0x20BAC, symBinAddr: 0x100024E44, symSize: 0x24 }
  - { offsetInCU: 0x39832, offset: 0x39832, size: 0x8, addend: 0x0, symName: __ZNSt3__112__destroy_atB8ue170006IN7tinyobj14vertex_index_tELi0EEEvPT_, symObjAddr: 0x20BD0, symBinAddr: 0x100024E68, symSize: 0x10 }
  - { offsetInCU: 0x39869, offset: 0x39869, size: 0x8, addend: 0x0, symName: __ZNSt3__112__to_addressB8ue170006IN7tinyobj8__line_tEEEPT_S4_, symObjAddr: 0x20ECC, symBinAddr: 0x100025164, symSize: 0x14 }
  - { offsetInCU: 0x398C5, offset: 0x398C5, size: 0x8, addend: 0x0, symName: __ZNSt3__112construct_atB8ue170006IN7tinyobj8__line_tEJRKS2_EPS2_EEPT_S7_DpOT0_, symObjAddr: 0x20F58, symBinAddr: 0x1000251F0, symSize: 0x3C }
  - { offsetInCU: 0x39937, offset: 0x39937, size: 0x8, addend: 0x0, symName: __ZNSt3__122__make_exception_guardB8ue170006INS_6vectorIN7tinyobj14vertex_index_tENS_9allocatorIS3_EEE16__destroy_vectorEEENS_28__exception_guard_exceptionsIT_EES9_, symObjAddr: 0x21224, symBinAddr: 0x1000254BC, symSize: 0x40 }
  - { offsetInCU: 0x3996C, offset: 0x3996C, size: 0x8, addend: 0x0, symName: __ZNSt3__130__uninitialized_allocator_copyB8ue170006INS_9allocatorIN7tinyobj14vertex_index_tEEEPS3_S5_S5_EET2_RT_T0_T1_S6_, symObjAddr: 0x21498, symBinAddr: 0x100025730, symSize: 0x80 }
  - { offsetInCU: 0x39A09, offset: 0x39A09, size: 0x8, addend: 0x0, symName: __ZNSt3__114__unwrap_rangeB8ue170006IPN7tinyobj14vertex_index_tES3_EEDaT_T0_, symObjAddr: 0x21518, symBinAddr: 0x1000257B0, symSize: 0x3C }
  - { offsetInCU: 0x39A55, offset: 0x39A55, size: 0x8, addend: 0x0, symName: __ZNSt3__135__uninitialized_allocator_copy_implB8ue170006INS_9allocatorIN7tinyobj14vertex_index_tEEES3_S3_S3_LPv0EEEPT2_RT_PT0_SB_S7_, symObjAddr: 0x21554, symBinAddr: 0x1000257EC, symSize: 0x38 }
  - { offsetInCU: 0x39AD7, offset: 0x39AD7, size: 0x8, addend: 0x0, symName: __ZNSt3__113__unwrap_iterB8ue170006IPN7tinyobj14vertex_index_tENS_18__unwrap_iter_implIS3_Lb1EEELi0EEEDTclsrT0_8__unwrapclsr3stdE7declvalIT_EEEES7_, symObjAddr: 0x2158C, symBinAddr: 0x100025824, symSize: 0x24 }
  - { offsetInCU: 0x39B1B, offset: 0x39B1B, size: 0x8, addend: 0x0, symName: __ZNSt3__113__rewrap_iterB8ue170006IPN7tinyobj14vertex_index_tES3_NS_18__unwrap_iter_implIS3_Lb1EEEEET_S6_T0_, symObjAddr: 0x215B0, symBinAddr: 0x100025848, symSize: 0x3C }
  - { offsetInCU: 0x39CBB, offset: 0x39CBB, size: 0x8, addend: 0x0, symName: __ZNSt3__14copyB8ue170006IPN7tinyobj14vertex_index_tES3_EET0_T_S5_S4_, symObjAddr: 0x216B4, symBinAddr: 0x10002594C, symSize: 0x40 }
  - { offsetInCU: 0x39D15, offset: 0x39D15, size: 0x8, addend: 0x0, symName: __ZNSt3__16__copyB8ue170006INS_17_ClassicAlgPolicyEPN7tinyobj14vertex_index_tES4_S4_EENS_4pairIT0_T2_EES6_T1_S7_, symObjAddr: 0x216F4, symBinAddr: 0x10002598C, symSize: 0x44 }
  - { offsetInCU: 0x39D81, offset: 0x39D81, size: 0x8, addend: 0x0, symName: __ZNSt3__123__dispatch_copy_or_moveB8ue170006INS_17_ClassicAlgPolicyENS_11__copy_loopIS1_EENS_14__copy_trivialEPN7tinyobj14vertex_index_tES7_S7_EENS_4pairIT2_T4_EES9_T3_SA_, symObjAddr: 0x21738, symBinAddr: 0x1000259D0, symSize: 0x44 }
  - { offsetInCU: 0x39DFF, offset: 0x39DFF, size: 0x8, addend: 0x0, symName: __ZNSt3__121__unwrap_and_dispatchB8ue170006INS_10__overloadINS_11__copy_loopINS_17_ClassicAlgPolicyEEENS_14__copy_trivialEEEPN7tinyobj14vertex_index_tES9_S9_Li0EEENS_4pairIT0_T2_EESB_T1_SC_, symObjAddr: 0x2177C, symBinAddr: 0x100025A14, symSize: 0xB4 }
  - { offsetInCU: 0x39E8D, offset: 0x39E8D, size: 0x8, addend: 0x0, symName: __ZNSt3__19make_pairB8ue170006IPN7tinyobj14vertex_index_tES3_EENS_4pairINS_18__unwrap_ref_decayIT_E4typeENS5_IT0_E4typeEEEOS6_OS9_, symObjAddr: 0x21878, symBinAddr: 0x100025B10, symSize: 0x38 }
  - { offsetInCU: 0x39EDC, offset: 0x39EDC, size: 0x8, addend: 0x0, symName: __ZNSt3__114__rewrap_rangeB8ue170006IPN7tinyobj14vertex_index_tES3_S3_EET0_S4_T1_, symObjAddr: 0x218B0, symBinAddr: 0x100025B48, symSize: 0x2C }
  - { offsetInCU: 0x39F31, offset: 0x39F31, size: 0x8, addend: 0x0, symName: __ZNSt3__119__copy_trivial_implB8ue170006IN7tinyobj14vertex_index_tES2_EENS_4pairIPT_PT0_EES5_S5_S7_, symObjAddr: 0x218DC, symBinAddr: 0x100025B74, symSize: 0x88 }
  - { offsetInCU: 0x39F99, offset: 0x39F99, size: 0x8, addend: 0x0, symName: __ZNSt3__119__constexpr_memmoveB8ue170006IN7tinyobj14vertex_index_tES2_Li0EEEPT_S4_PT0_NS_15__element_countE, symObjAddr: 0x21964, symBinAddr: 0x100025BFC, symSize: 0x68 }
  - { offsetInCU: 0x3A007, offset: 0x3A007, size: 0x8, addend: 0x0, symName: __ZNSt3__19make_pairB8ue170006IRPN7tinyobj14vertex_index_tES3_EENS_4pairINS_18__unwrap_ref_decayIT_E4typeENS6_IT0_E4typeEEEOS7_OSA_, symObjAddr: 0x219CC, symBinAddr: 0x100025C64, symSize: 0x38 }
  - { offsetInCU: 0x3A0A9, offset: 0x3A0A9, size: 0x8, addend: 0x0, symName: __ZNSt3__119__allocate_at_leastB8ue170006INS_9allocatorIN7tinyobj8__line_tEEEEENS_19__allocation_resultINS_16allocator_traitsIT_E7pointerEEERS7_m, symObjAddr: 0x22224, symBinAddr: 0x1000264BC, symSize: 0x40 }
  - { offsetInCU: 0x3A0EC, offset: 0x3A0EC, size: 0x8, addend: 0x0, symName: __ZNSt3__142__uninitialized_allocator_move_if_noexceptB8ue170006INS_9allocatorIN7tinyobj8__line_tEEENS_16reverse_iteratorIPS3_EES7_S7_EET2_RT_T0_T1_S8_, symObjAddr: 0x224B0, symBinAddr: 0x100026748, symSize: 0x12C }
  - { offsetInCU: 0x3A18C, offset: 0x3A18C, size: 0x8, addend: 0x0, symName: __ZNSt3__14swapB8ue170006IPN7tinyobj8__line_tEEENS_9enable_ifIXaasr21is_move_constructibleIT_EE5valuesr18is_move_assignableIS5_EE5valueEvE4typeERS5_S8_, symObjAddr: 0x22628, symBinAddr: 0x1000268C0, symSize: 0x3C }
  - { offsetInCU: 0x3A1DD, offset: 0x3A1DD, size: 0x8, addend: 0x0, symName: __ZNSt3__122__make_exception_guardB8ue170006INS_29_AllocatorDestroyRangeReverseINS_9allocatorIN7tinyobj8__line_tEEENS_16reverse_iteratorIPS4_EEEEEENS_28__exception_guard_exceptionsIT_EESB_, symObjAddr: 0x22774, symBinAddr: 0x100026A0C, symSize: 0x4C }
  - { offsetInCU: 0x3A213, offset: 0x3A213, size: 0x8, addend: 0x0, symName: __ZNSt3__1neB8ue170006IPN7tinyobj8__line_tES3_EEbRKNS_16reverse_iteratorIT_EERKNS4_IT0_EE, symObjAddr: 0x22804, symBinAddr: 0x100026A9C, symSize: 0x48 }
  - { offsetInCU: 0x3A25F, offset: 0x3A25F, size: 0x8, addend: 0x0, symName: __ZNSt3__112__to_addressB8ue170006INS_16reverse_iteratorIPN7tinyobj8__line_tEEEvEEu7__decayIDTclsr19__to_address_helperIT_EE6__callclsr3stdE7declvalIRKS6_EEEEES8_, symObjAddr: 0x2287C, symBinAddr: 0x100026B14, symSize: 0x24 }
  - { offsetInCU: 0x3A295, offset: 0x3A295, size: 0x8, addend: 0x0, symName: __ZNSt3__112construct_atB8ue170006IN7tinyobj8__line_tEJS2_EPS2_EEPT_S5_DpOT0_, symObjAddr: 0x229CC, symBinAddr: 0x100026C64, symSize: 0x3C }
  - { offsetInCU: 0x3A331, offset: 0x3A331, size: 0x8, addend: 0x0, symName: __ZNSt3__14prevB8ue170006IPN7tinyobj8__line_tEEENS_9enable_ifIXsr29__has_input_iterator_categoryIT_EE5valueES5_E4typeES5_NS_15iterator_traitsIS5_E15difference_typeE, symObjAddr: 0x22BCC, symBinAddr: 0x100026E64, symSize: 0x3C }
  - { offsetInCU: 0x3A375, offset: 0x3A375, size: 0x8, addend: 0x0, symName: __ZNSt3__19__advanceB8ue170006IPN7tinyobj8__line_tEEEvRT_NS_15iterator_traitsIS4_E15difference_typeENS_26random_access_iterator_tagE, symObjAddr: 0x22C40, symBinAddr: 0x100026ED8, symSize: 0x30 }
  - { offsetInCU: 0x3A3BF, offset: 0x3A3BF, size: 0x8, addend: 0x0, symName: __ZNSt3__119__allocator_destroyB8ue170006INS_9allocatorIN7tinyobj8__line_tEEENS_16reverse_iteratorINS5_IPS3_EEEES8_EEvRT_T0_T1_, symObjAddr: 0x22D74, symBinAddr: 0x10002700C, symSize: 0x70 }
  - { offsetInCU: 0x3A424, offset: 0x3A424, size: 0x8, addend: 0x0, symName: __ZNSt3__1neB8ue170006INS_16reverse_iteratorIPN7tinyobj8__line_tEEES5_EEbRKNS1_IT_EERKNS1_IT0_EE, symObjAddr: 0x22E20, symBinAddr: 0x1000270B8, symSize: 0x60 }
  - { offsetInCU: 0x3A470, offset: 0x3A470, size: 0x8, addend: 0x0, symName: __ZNSt3__112__to_addressB8ue170006INS_16reverse_iteratorINS1_IPN7tinyobj8__line_tEEEEEvEEu7__decayIDTclsr19__to_address_helperIT_EE6__callclsr3stdE7declvalIRKS7_EEEEES9_, symObjAddr: 0x22EA8, symBinAddr: 0x100027140, symSize: 0x24 }
  - { offsetInCU: 0x3A4A6, offset: 0x3A4A6, size: 0x8, addend: 0x0, symName: __ZNSt3__110destroy_atB8ue170006IN7tinyobj8__line_tELi0EEEvPT_, symObjAddr: 0x22F20, symBinAddr: 0x1000271B8, symSize: 0x24 }
  - { offsetInCU: 0x3A4DD, offset: 0x3A4DD, size: 0x8, addend: 0x0, symName: __ZNSt3__112__destroy_atB8ue170006IN7tinyobj8__line_tELi0EEEvPT_, symObjAddr: 0x22F44, symBinAddr: 0x1000271DC, symSize: 0x24 }
  - { offsetInCU: 0x3A53E, offset: 0x3A53E, size: 0x8, addend: 0x0, symName: __ZNSt3__14prevB8ue170006INS_16reverse_iteratorIPN7tinyobj8__line_tEEEEENS_9enable_ifIXsr29__has_input_iterator_categoryIT_EE5valueES7_E4typeES7_NS_15iterator_traitsIS7_E15difference_typeE, symObjAddr: 0x22FEC, symBinAddr: 0x100027284, symSize: 0x4C }
  - { offsetInCU: 0x3A581, offset: 0x3A581, size: 0x8, addend: 0x0, symName: __ZNSt3__19__advanceB8ue170006INS_16reverse_iteratorIPN7tinyobj8__line_tEEEEEvRT_NS_15iterator_traitsIS6_E15difference_typeENS_26random_access_iterator_tagE, symObjAddr: 0x23070, symBinAddr: 0x100027308, symSize: 0x2C }
  - { offsetInCU: 0x3A5CA, offset: 0x3A5CA, size: 0x8, addend: 0x0, symName: __ZNSt3__112__to_addressB8ue170006IN7tinyobj10__points_tEEEPT_S4_, symObjAddr: 0x236C4, symBinAddr: 0x10002795C, symSize: 0x14 }
  - { offsetInCU: 0x3A626, offset: 0x3A626, size: 0x8, addend: 0x0, symName: __ZNSt3__112construct_atB8ue170006IN7tinyobj10__points_tEJRKS2_EPS2_EEPT_S7_DpOT0_, symObjAddr: 0x23750, symBinAddr: 0x1000279E8, symSize: 0x3C }
  - { offsetInCU: 0x3A698, offset: 0x3A698, size: 0x8, addend: 0x0, symName: __ZNSt3__119__allocate_at_leastB8ue170006INS_9allocatorIN7tinyobj10__points_tEEEEENS_19__allocation_resultINS_16allocator_traitsIT_E7pointerEEERS7_m, symObjAddr: 0x23D68, symBinAddr: 0x100028000, symSize: 0x40 }
  - { offsetInCU: 0x3A6DB, offset: 0x3A6DB, size: 0x8, addend: 0x0, symName: __ZNSt3__142__uninitialized_allocator_move_if_noexceptB8ue170006INS_9allocatorIN7tinyobj10__points_tEEENS_16reverse_iteratorIPS3_EES7_S7_EET2_RT_T0_T1_S8_, symObjAddr: 0x23FF4, symBinAddr: 0x10002828C, symSize: 0x12C }
  - { offsetInCU: 0x3A77B, offset: 0x3A77B, size: 0x8, addend: 0x0, symName: __ZNSt3__14swapB8ue170006IPN7tinyobj10__points_tEEENS_9enable_ifIXaasr21is_move_constructibleIT_EE5valuesr18is_move_assignableIS5_EE5valueEvE4typeERS5_S8_, symObjAddr: 0x2416C, symBinAddr: 0x100028404, symSize: 0x3C }
  - { offsetInCU: 0x3A7CC, offset: 0x3A7CC, size: 0x8, addend: 0x0, symName: __ZNSt3__122__make_exception_guardB8ue170006INS_29_AllocatorDestroyRangeReverseINS_9allocatorIN7tinyobj10__points_tEEENS_16reverse_iteratorIPS4_EEEEEENS_28__exception_guard_exceptionsIT_EESB_, symObjAddr: 0x242B8, symBinAddr: 0x100028550, symSize: 0x4C }
  - { offsetInCU: 0x3A802, offset: 0x3A802, size: 0x8, addend: 0x0, symName: __ZNSt3__1neB8ue170006IPN7tinyobj10__points_tES3_EEbRKNS_16reverse_iteratorIT_EERKNS4_IT0_EE, symObjAddr: 0x24348, symBinAddr: 0x1000285E0, symSize: 0x48 }
  - { offsetInCU: 0x3A84E, offset: 0x3A84E, size: 0x8, addend: 0x0, symName: __ZNSt3__112__to_addressB8ue170006INS_16reverse_iteratorIPN7tinyobj10__points_tEEEvEEu7__decayIDTclsr19__to_address_helperIT_EE6__callclsr3stdE7declvalIRKS6_EEEEES8_, symObjAddr: 0x243C0, symBinAddr: 0x100028658, symSize: 0x24 }
  - { offsetInCU: 0x3A884, offset: 0x3A884, size: 0x8, addend: 0x0, symName: __ZNSt3__112construct_atB8ue170006IN7tinyobj10__points_tEJS2_EPS2_EEPT_S5_DpOT0_, symObjAddr: 0x24510, symBinAddr: 0x1000287A8, symSize: 0x3C }
  - { offsetInCU: 0x3A920, offset: 0x3A920, size: 0x8, addend: 0x0, symName: __ZNSt3__14prevB8ue170006IPN7tinyobj10__points_tEEENS_9enable_ifIXsr29__has_input_iterator_categoryIT_EE5valueES5_E4typeES5_NS_15iterator_traitsIS5_E15difference_typeE, symObjAddr: 0x24618, symBinAddr: 0x1000288B0, symSize: 0x3C }
  - { offsetInCU: 0x3A964, offset: 0x3A964, size: 0x8, addend: 0x0, symName: __ZNSt3__19__advanceB8ue170006IPN7tinyobj10__points_tEEEvRT_NS_15iterator_traitsIS4_E15difference_typeENS_26random_access_iterator_tagE, symObjAddr: 0x2468C, symBinAddr: 0x100028924, symSize: 0x30 }
  - { offsetInCU: 0x3A9AE, offset: 0x3A9AE, size: 0x8, addend: 0x0, symName: __ZNSt3__119__allocator_destroyB8ue170006INS_9allocatorIN7tinyobj10__points_tEEENS_16reverse_iteratorINS5_IPS3_EEEES8_EEvRT_T0_T1_, symObjAddr: 0x247C0, symBinAddr: 0x100028A58, symSize: 0x70 }
  - { offsetInCU: 0x3AA13, offset: 0x3AA13, size: 0x8, addend: 0x0, symName: __ZNSt3__1neB8ue170006INS_16reverse_iteratorIPN7tinyobj10__points_tEEES5_EEbRKNS1_IT_EERKNS1_IT0_EE, symObjAddr: 0x2486C, symBinAddr: 0x100028B04, symSize: 0x60 }
  - { offsetInCU: 0x3AA5F, offset: 0x3AA5F, size: 0x8, addend: 0x0, symName: __ZNSt3__112__to_addressB8ue170006INS_16reverse_iteratorINS1_IPN7tinyobj10__points_tEEEEEvEEu7__decayIDTclsr19__to_address_helperIT_EE6__callclsr3stdE7declvalIRKS7_EEEEES9_, symObjAddr: 0x248F4, symBinAddr: 0x100028B8C, symSize: 0x24 }
  - { offsetInCU: 0x3AA95, offset: 0x3AA95, size: 0x8, addend: 0x0, symName: __ZNSt3__110destroy_atB8ue170006IN7tinyobj10__points_tELi0EEEvPT_, symObjAddr: 0x2496C, symBinAddr: 0x100028C04, symSize: 0x24 }
  - { offsetInCU: 0x3AACC, offset: 0x3AACC, size: 0x8, addend: 0x0, symName: __ZNSt3__112__destroy_atB8ue170006IN7tinyobj10__points_tELi0EEEvPT_, symObjAddr: 0x24990, symBinAddr: 0x100028C28, symSize: 0x24 }
  - { offsetInCU: 0x3AB2D, offset: 0x3AB2D, size: 0x8, addend: 0x0, symName: __ZNSt3__14prevB8ue170006INS_16reverse_iteratorIPN7tinyobj10__points_tEEEEENS_9enable_ifIXsr29__has_input_iterator_categoryIT_EE5valueES7_E4typeES7_NS_15iterator_traitsIS7_E15difference_typeE, symObjAddr: 0x24A38, symBinAddr: 0x100028CD0, symSize: 0x4C }
  - { offsetInCU: 0x3AB70, offset: 0x3AB70, size: 0x8, addend: 0x0, symName: __ZNSt3__19__advanceB8ue170006INS_16reverse_iteratorIPN7tinyobj10__points_tEEEEEvRT_NS_15iterator_traitsIS6_E15difference_typeENS_26random_access_iterator_tagE, symObjAddr: 0x24ABC, symBinAddr: 0x100028D54, symSize: 0x2C }
  - { offsetInCU: 0x3ABB9, offset: 0x3ABB9, size: 0x8, addend: 0x0, symName: __ZNSt3__112__to_addressB8ue170006IN7tinyobj6face_tEEEPT_S4_, symObjAddr: 0x250B0, symBinAddr: 0x100029348, symSize: 0x14 }
  - { offsetInCU: 0x3AC15, offset: 0x3AC15, size: 0x8, addend: 0x0, symName: __ZNSt3__112construct_atB8ue170006IN7tinyobj6face_tEJRKS2_EPS2_EEPT_S7_DpOT0_, symObjAddr: 0x25134, symBinAddr: 0x1000293CC, symSize: 0x3C }
  - { offsetInCU: 0x3AC87, offset: 0x3AC87, size: 0x8, addend: 0x0, symName: __ZNSt3__119__allocate_at_leastB8ue170006INS_9allocatorIN7tinyobj6face_tEEEEENS_19__allocation_resultINS_16allocator_traitsIT_E7pointerEEERS7_m, symObjAddr: 0x25754, symBinAddr: 0x1000299EC, symSize: 0x40 }
  - { offsetInCU: 0x3ACCA, offset: 0x3ACCA, size: 0x8, addend: 0x0, symName: __ZNSt3__142__uninitialized_allocator_move_if_noexceptB8ue170006INS_9allocatorIN7tinyobj6face_tEEENS_16reverse_iteratorIPS3_EES7_S7_EET2_RT_T0_T1_S8_, symObjAddr: 0x259C0, symBinAddr: 0x100029C58, symSize: 0x12C }
  - { offsetInCU: 0x3AD6A, offset: 0x3AD6A, size: 0x8, addend: 0x0, symName: __ZNSt3__14swapB8ue170006IPN7tinyobj6face_tEEENS_9enable_ifIXaasr21is_move_constructibleIT_EE5valuesr18is_move_assignableIS5_EE5valueEvE4typeERS5_S8_, symObjAddr: 0x25B38, symBinAddr: 0x100029DD0, symSize: 0x3C }
  - { offsetInCU: 0x3ADBB, offset: 0x3ADBB, size: 0x8, addend: 0x0, symName: __ZNSt3__122__make_exception_guardB8ue170006INS_29_AllocatorDestroyRangeReverseINS_9allocatorIN7tinyobj6face_tEEENS_16reverse_iteratorIPS4_EEEEEENS_28__exception_guard_exceptionsIT_EESB_, symObjAddr: 0x25C68, symBinAddr: 0x100029F00, symSize: 0x4C }
  - { offsetInCU: 0x3ADF1, offset: 0x3ADF1, size: 0x8, addend: 0x0, symName: __ZNSt3__1neB8ue170006IPN7tinyobj6face_tES3_EEbRKNS_16reverse_iteratorIT_EERKNS4_IT0_EE, symObjAddr: 0x25CF8, symBinAddr: 0x100029F90, symSize: 0x48 }
  - { offsetInCU: 0x3AE3D, offset: 0x3AE3D, size: 0x8, addend: 0x0, symName: __ZNSt3__112__to_addressB8ue170006INS_16reverse_iteratorIPN7tinyobj6face_tEEEvEEu7__decayIDTclsr19__to_address_helperIT_EE6__callclsr3stdE7declvalIRKS6_EEEEES8_, symObjAddr: 0x25D70, symBinAddr: 0x10002A008, symSize: 0x24 }
  - { offsetInCU: 0x3AE73, offset: 0x3AE73, size: 0x8, addend: 0x0, symName: __ZNSt3__112construct_atB8ue170006IN7tinyobj6face_tEJS2_EPS2_EEPT_S5_DpOT0_, symObjAddr: 0x25EC0, symBinAddr: 0x10002A158, symSize: 0x3C }
  - { offsetInCU: 0x3AF0F, offset: 0x3AF0F, size: 0x8, addend: 0x0, symName: __ZNSt3__14prevB8ue170006IPN7tinyobj6face_tEEENS_9enable_ifIXsr29__has_input_iterator_categoryIT_EE5valueES5_E4typeES5_NS_15iterator_traitsIS5_E15difference_typeE, symObjAddr: 0x25FDC, symBinAddr: 0x10002A274, symSize: 0x3C }
  - { offsetInCU: 0x3AF53, offset: 0x3AF53, size: 0x8, addend: 0x0, symName: __ZNSt3__19__advanceB8ue170006IPN7tinyobj6face_tEEEvRT_NS_15iterator_traitsIS4_E15difference_typeENS_26random_access_iterator_tagE, symObjAddr: 0x26050, symBinAddr: 0x10002A2E8, symSize: 0x28 }
  - { offsetInCU: 0x3AF9D, offset: 0x3AF9D, size: 0x8, addend: 0x0, symName: __ZNSt3__119__allocator_destroyB8ue170006INS_9allocatorIN7tinyobj6face_tEEENS_16reverse_iteratorINS5_IPS3_EEEES8_EEvRT_T0_T1_, symObjAddr: 0x2617C, symBinAddr: 0x10002A414, symSize: 0x70 }
  - { offsetInCU: 0x3B002, offset: 0x3B002, size: 0x8, addend: 0x0, symName: __ZNSt3__1neB8ue170006INS_16reverse_iteratorIPN7tinyobj6face_tEEES5_EEbRKNS1_IT_EERKNS1_IT0_EE, symObjAddr: 0x26228, symBinAddr: 0x10002A4C0, symSize: 0x60 }
  - { offsetInCU: 0x3B04E, offset: 0x3B04E, size: 0x8, addend: 0x0, symName: __ZNSt3__112__to_addressB8ue170006INS_16reverse_iteratorINS1_IPN7tinyobj6face_tEEEEEvEEu7__decayIDTclsr19__to_address_helperIT_EE6__callclsr3stdE7declvalIRKS7_EEEEES9_, symObjAddr: 0x262B0, symBinAddr: 0x10002A548, symSize: 0x24 }
  - { offsetInCU: 0x3B084, offset: 0x3B084, size: 0x8, addend: 0x0, symName: __ZNSt3__110destroy_atB8ue170006IN7tinyobj6face_tELi0EEEvPT_, symObjAddr: 0x26328, symBinAddr: 0x10002A5C0, symSize: 0x24 }
  - { offsetInCU: 0x3B0BB, offset: 0x3B0BB, size: 0x8, addend: 0x0, symName: __ZNSt3__112__destroy_atB8ue170006IN7tinyobj6face_tELi0EEEvPT_, symObjAddr: 0x2634C, symBinAddr: 0x10002A5E4, symSize: 0x24 }
  - { offsetInCU: 0x3B11C, offset: 0x3B11C, size: 0x8, addend: 0x0, symName: __ZNSt3__14prevB8ue170006INS_16reverse_iteratorIPN7tinyobj6face_tEEEEENS_9enable_ifIXsr29__has_input_iterator_categoryIT_EE5valueES7_E4typeES7_NS_15iterator_traitsIS7_E15difference_typeE, symObjAddr: 0x263F4, symBinAddr: 0x10002A68C, symSize: 0x4C }
  - { offsetInCU: 0x3B15F, offset: 0x3B15F, size: 0x8, addend: 0x0, symName: __ZNSt3__19__advanceB8ue170006INS_16reverse_iteratorIPN7tinyobj6face_tEEEEEvRT_NS_15iterator_traitsIS6_E15difference_typeENS_26random_access_iterator_tagE, symObjAddr: 0x26478, symBinAddr: 0x10002A710, symSize: 0x2C }
  - { offsetInCU: 0x3B599, offset: 0x3B599, size: 0x8, addend: 0x0, symName: __ZNSt3__112__to_addressB8ue170006IiEEPT_S2_, symObjAddr: 0x26F5C, symBinAddr: 0x10002B1F4, symSize: 0x14 }
  - { offsetInCU: 0x3B5F5, offset: 0x3B5F5, size: 0x8, addend: 0x0, symName: __ZNSt3__112construct_atB8ue170006IiJRKiEPiEEPT_S5_DpOT0_, symObjAddr: 0x26FE0, symBinAddr: 0x10002B278, symSize: 0x2C }
  - { offsetInCU: 0x3B667, offset: 0x3B667, size: 0x8, addend: 0x0, symName: __ZNSt3__119__allocate_at_leastB8ue170006INS_9allocatorIiEEEENS_19__allocation_resultINS_16allocator_traitsIT_E7pointerEEERS5_m, symObjAddr: 0x27574, symBinAddr: 0x10002B80C, symSize: 0x40 }
  - { offsetInCU: 0x3B6AA, offset: 0x3B6AA, size: 0x8, addend: 0x0, symName: __ZNSt3__142__uninitialized_allocator_move_if_noexceptB8ue170006INS_9allocatorIiEENS_16reverse_iteratorIPiEES5_ivEET1_RT_T0_S9_S6_, symObjAddr: 0x277E0, symBinAddr: 0x10002BA78, symSize: 0x78 }
  - { offsetInCU: 0x3B728, offset: 0x3B728, size: 0x8, addend: 0x0, symName: __ZNSt3__14swapB8ue170006IPiEENS_9enable_ifIXaasr21is_move_constructibleIT_EE5valuesr18is_move_assignableIS3_EE5valueEvE4typeERS3_S6_, symObjAddr: 0x278A4, symBinAddr: 0x10002BB3C, symSize: 0x3C }
  - { offsetInCU: 0x3B779, offset: 0x3B779, size: 0x8, addend: 0x0, symName: __ZNSt3__14moveB8ue170006INS_16reverse_iteratorIPiEES3_EET0_T_S5_S4_, symObjAddr: 0x279D4, symBinAddr: 0x10002BC6C, symSize: 0x78 }
  - { offsetInCU: 0x3B7D3, offset: 0x3B7D3, size: 0x8, addend: 0x0, symName: __ZNSt3__16__moveB8ue170006INS_17_ClassicAlgPolicyENS_16reverse_iteratorIPiEES4_S4_EENS_4pairIT0_T2_EES6_T1_S7_, symObjAddr: 0x27A4C, symBinAddr: 0x10002BCE4, symSize: 0x64 }
  - { offsetInCU: 0x3B83F, offset: 0x3B83F, size: 0x8, addend: 0x0, symName: __ZNSt3__123__dispatch_copy_or_moveB8ue170006INS_17_ClassicAlgPolicyENS_11__move_loopIS1_EENS_14__move_trivialENS_16reverse_iteratorIPiEES7_S7_EENS_4pairIT2_T4_EES9_T3_SA_, symObjAddr: 0x27AB0, symBinAddr: 0x10002BD48, symSize: 0x64 }
  - { offsetInCU: 0x3B8BD, offset: 0x3B8BD, size: 0x8, addend: 0x0, symName: __ZNSt3__121__unwrap_and_dispatchB8ue170006INS_10__overloadINS_11__move_loopINS_17_ClassicAlgPolicyEEENS_14__move_trivialEEENS_16reverse_iteratorIPiEES9_S9_Li0EEENS_4pairIT0_T2_EESB_T1_SC_, symObjAddr: 0x27B14, symBinAddr: 0x10002BDAC, symSize: 0x12C }
  - { offsetInCU: 0x3B94D, offset: 0x3B94D, size: 0x8, addend: 0x0, symName: __ZNSt3__114__unwrap_rangeB8ue170006INS_16reverse_iteratorIPiEES3_EEDaT_T0_, symObjAddr: 0x27C40, symBinAddr: 0x10002BED8, symSize: 0x4C }
  - { offsetInCU: 0x3BA6D, offset: 0x3BA6D, size: 0x8, addend: 0x0, symName: __ZNSt3__113__unwrap_iterB8ue170006INS_16reverse_iteratorIPiEENS_18__unwrap_iter_implIS3_Lb0EEELi0EEEDTclsrT0_8__unwrapclsr3stdE7declvalIT_EEEES7_, symObjAddr: 0x27D2C, symBinAddr: 0x10002BFC4, symSize: 0x44 }
  - { offsetInCU: 0x3BAB1, offset: 0x3BAB1, size: 0x8, addend: 0x0, symName: __ZNSt3__19make_pairB8ue170006INS_16reverse_iteratorIPiEES3_EENS_4pairINS_18__unwrap_ref_decayIT_E4typeENS5_IT0_E4typeEEEOS6_OS9_, symObjAddr: 0x27D70, symBinAddr: 0x10002C008, symSize: 0x38 }
  - { offsetInCU: 0x3BB00, offset: 0x3BB00, size: 0x8, addend: 0x0, symName: __ZNSt3__114__rewrap_rangeB8ue170006INS_16reverse_iteratorIPiEES3_S3_EET0_S4_T1_, symObjAddr: 0x27DA8, symBinAddr: 0x10002C040, symSize: 0x5C }
  - { offsetInCU: 0x3BB55, offset: 0x3BB55, size: 0x8, addend: 0x0, symName: __ZNSt3__113__rewrap_iterB8ue170006INS_16reverse_iteratorIPiEES3_NS_18__unwrap_iter_implIS3_Lb0EEEEET_S6_T0_, symObjAddr: 0x27E04, symBinAddr: 0x10002C09C, symSize: 0x74 }
  - { offsetInCU: 0x3BBFA, offset: 0x3BBFA, size: 0x8, addend: 0x0, symName: __ZNSt3__1neB8ue170006IPiS1_EEbRKNS_16reverse_iteratorIT_EERKNS2_IT0_EE, symObjAddr: 0x27F6C, symBinAddr: 0x10002C204, symSize: 0x48 }
  - { offsetInCU: 0x3BCB2, offset: 0x3BCB2, size: 0x8, addend: 0x0, symName: __ZNSt3__110destroy_atB8ue170006IiLi0EEEvPT_, symObjAddr: 0x282F8, symBinAddr: 0x10002C590, symSize: 0x24 }
  - { offsetInCU: 0x3BCEA, offset: 0x3BCEA, size: 0x8, addend: 0x0, symName: __ZNSt3__112__destroy_atB8ue170006IiLi0EEEvPT_, symObjAddr: 0x2831C, symBinAddr: 0x10002C5B4, symSize: 0x10 }
  - { offsetInCU: 0x3BD21, offset: 0x3BD21, size: 0x8, addend: 0x0, symName: __ZNSt3__112__to_addressB8ue170006IjEEPT_S2_, symObjAddr: 0x28614, symBinAddr: 0x10002C8AC, symSize: 0x14 }
  - { offsetInCU: 0x3BD7D, offset: 0x3BD7D, size: 0x8, addend: 0x0, symName: __ZNSt3__112construct_atB8ue170006IjJRKjEPjEEPT_S5_DpOT0_, symObjAddr: 0x28698, symBinAddr: 0x10002C930, symSize: 0x2C }
  - { offsetInCU: 0x3BDEF, offset: 0x3BDEF, size: 0x8, addend: 0x0, symName: __ZNSt3__119__allocate_at_leastB8ue170006INS_9allocatorIjEEEENS_19__allocation_resultINS_16allocator_traitsIT_E7pointerEEERS5_m, symObjAddr: 0x28C04, symBinAddr: 0x10002CE9C, symSize: 0x40 }
  - { offsetInCU: 0x3BE32, offset: 0x3BE32, size: 0x8, addend: 0x0, symName: __ZNSt3__142__uninitialized_allocator_move_if_noexceptB8ue170006INS_9allocatorIjEENS_16reverse_iteratorIPjEES5_jvEET1_RT_T0_S9_S6_, symObjAddr: 0x28E70, symBinAddr: 0x10002D108, symSize: 0x78 }
  - { offsetInCU: 0x3BEB0, offset: 0x3BEB0, size: 0x8, addend: 0x0, symName: __ZNSt3__14swapB8ue170006IPjEENS_9enable_ifIXaasr21is_move_constructibleIT_EE5valuesr18is_move_assignableIS3_EE5valueEvE4typeERS3_S6_, symObjAddr: 0x28F34, symBinAddr: 0x10002D1CC, symSize: 0x3C }
  - { offsetInCU: 0x3BF01, offset: 0x3BF01, size: 0x8, addend: 0x0, symName: __ZNSt3__14moveB8ue170006INS_16reverse_iteratorIPjEES3_EET0_T_S5_S4_, symObjAddr: 0x29064, symBinAddr: 0x10002D2FC, symSize: 0x78 }
  - { offsetInCU: 0x3BF5B, offset: 0x3BF5B, size: 0x8, addend: 0x0, symName: __ZNSt3__16__moveB8ue170006INS_17_ClassicAlgPolicyENS_16reverse_iteratorIPjEES4_S4_EENS_4pairIT0_T2_EES6_T1_S7_, symObjAddr: 0x290DC, symBinAddr: 0x10002D374, symSize: 0x64 }
  - { offsetInCU: 0x3BFC7, offset: 0x3BFC7, size: 0x8, addend: 0x0, symName: __ZNSt3__123__dispatch_copy_or_moveB8ue170006INS_17_ClassicAlgPolicyENS_11__move_loopIS1_EENS_14__move_trivialENS_16reverse_iteratorIPjEES7_S7_EENS_4pairIT2_T4_EES9_T3_SA_, symObjAddr: 0x29140, symBinAddr: 0x10002D3D8, symSize: 0x64 }
  - { offsetInCU: 0x3C045, offset: 0x3C045, size: 0x8, addend: 0x0, symName: __ZNSt3__121__unwrap_and_dispatchB8ue170006INS_10__overloadINS_11__move_loopINS_17_ClassicAlgPolicyEEENS_14__move_trivialEEENS_16reverse_iteratorIPjEES9_S9_Li0EEENS_4pairIT0_T2_EESB_T1_SC_, symObjAddr: 0x291A4, symBinAddr: 0x10002D43C, symSize: 0x12C }
  - { offsetInCU: 0x3C0D5, offset: 0x3C0D5, size: 0x8, addend: 0x0, symName: __ZNSt3__114__unwrap_rangeB8ue170006INS_16reverse_iteratorIPjEES3_EEDaT_T0_, symObjAddr: 0x292D0, symBinAddr: 0x10002D568, symSize: 0x4C }
  - { offsetInCU: 0x3C1F5, offset: 0x3C1F5, size: 0x8, addend: 0x0, symName: __ZNSt3__113__unwrap_iterB8ue170006INS_16reverse_iteratorIPjEENS_18__unwrap_iter_implIS3_Lb0EEELi0EEEDTclsrT0_8__unwrapclsr3stdE7declvalIT_EEEES7_, symObjAddr: 0x293BC, symBinAddr: 0x10002D654, symSize: 0x44 }
  - { offsetInCU: 0x3C239, offset: 0x3C239, size: 0x8, addend: 0x0, symName: __ZNSt3__19make_pairB8ue170006INS_16reverse_iteratorIPjEES3_EENS_4pairINS_18__unwrap_ref_decayIT_E4typeENS5_IT0_E4typeEEEOS6_OS9_, symObjAddr: 0x29400, symBinAddr: 0x10002D698, symSize: 0x38 }
  - { offsetInCU: 0x3C288, offset: 0x3C288, size: 0x8, addend: 0x0, symName: __ZNSt3__114__rewrap_rangeB8ue170006INS_16reverse_iteratorIPjEES3_S3_EET0_S4_T1_, symObjAddr: 0x29438, symBinAddr: 0x10002D6D0, symSize: 0x5C }
  - { offsetInCU: 0x3C2DD, offset: 0x3C2DD, size: 0x8, addend: 0x0, symName: __ZNSt3__113__rewrap_iterB8ue170006INS_16reverse_iteratorIPjEES3_NS_18__unwrap_iter_implIS3_Lb0EEEEET_S6_T0_, symObjAddr: 0x29494, symBinAddr: 0x10002D72C, symSize: 0x74 }
  - { offsetInCU: 0x3C382, offset: 0x3C382, size: 0x8, addend: 0x0, symName: __ZNSt3__1neB8ue170006IPjS1_EEbRKNS_16reverse_iteratorIT_EERKNS2_IT0_EE, symObjAddr: 0x295FC, symBinAddr: 0x10002D894, symSize: 0x48 }
  - { offsetInCU: 0x3C43A, offset: 0x3C43A, size: 0x8, addend: 0x0, symName: __ZNSt3__110destroy_atB8ue170006IjLi0EEEvPT_, symObjAddr: 0x29988, symBinAddr: 0x10002DC20, symSize: 0x24 }
  - { offsetInCU: 0x3C472, offset: 0x3C472, size: 0x8, addend: 0x0, symName: __ZNSt3__112__destroy_atB8ue170006IjLi0EEEvPT_, symObjAddr: 0x299AC, symBinAddr: 0x10002DC44, symSize: 0x10 }
  - { offsetInCU: 0x3C4A9, offset: 0x3C4A9, size: 0x8, addend: 0x0, symName: __ZNSt3__18distanceB8ue170006IPN7tinyobj5tag_tEEENS_15iterator_traitsIT_E15difference_typeES5_S5_, symObjAddr: 0x29D6C, symBinAddr: 0x10002E004, symSize: 0x2C }
  - { offsetInCU: 0x3C4EC, offset: 0x3C4EC, size: 0x8, addend: 0x0, symName: __ZNSt3__14nextB8ue170006IPN7tinyobj5tag_tEEENS_9enable_ifIXsr29__has_input_iterator_categoryIT_EE5valueES5_E4typeES5_NS_15iterator_traitsIS5_E15difference_typeE, symObjAddr: 0x29E00, symBinAddr: 0x10002E098, symSize: 0x34 }
  - { offsetInCU: 0x3C52F, offset: 0x3C52F, size: 0x8, addend: 0x0, symName: __ZNSt3__14copyB8ue170006IPN7tinyobj5tag_tES3_EET0_T_S5_S4_, symObjAddr: 0x29E34, symBinAddr: 0x10002E0CC, symSize: 0x40 }
  - { offsetInCU: 0x3C589, offset: 0x3C589, size: 0x8, addend: 0x0, symName: __ZNSt3__16__copyB8ue170006INS_17_ClassicAlgPolicyEPN7tinyobj5tag_tES4_S4_EENS_4pairIT0_T2_EES6_T1_S7_, symObjAddr: 0x29F00, symBinAddr: 0x10002E198, symSize: 0x44 }
  - { offsetInCU: 0x3C5F6, offset: 0x3C5F6, size: 0x8, addend: 0x0, symName: __ZNSt3__19__advanceB8ue170006IPN7tinyobj5tag_tEEEvRT_NS_15iterator_traitsIS4_E15difference_typeENS_26random_access_iterator_tagE, symObjAddr: 0x2A224, symBinAddr: 0x10002E4BC, symSize: 0x30 }
  - { offsetInCU: 0x3C63F, offset: 0x3C63F, size: 0x8, addend: 0x0, symName: __ZNSt3__130__uninitialized_allocator_copyB8ue170006INS_9allocatorIN7tinyobj5tag_tEEEPS3_S5_S5_EET2_RT_T0_T1_S6_, symObjAddr: 0x2A290, symBinAddr: 0x10002E528, symSize: 0x80 }
  - { offsetInCU: 0x3C6DC, offset: 0x3C6DC, size: 0x8, addend: 0x0, symName: __ZNSt3__114__unwrap_rangeB8ue170006IPN7tinyobj5tag_tES3_EEDaT_T0_, symObjAddr: 0x2A3B0, symBinAddr: 0x10002E648, symSize: 0x3C }
  - { offsetInCU: 0x3C728, offset: 0x3C728, size: 0x8, addend: 0x0, symName: __ZNSt3__135__uninitialized_allocator_copy_implB8ue170006INS_9allocatorIN7tinyobj5tag_tEEEPS3_S5_S5_EET2_RT_T0_T1_S6_, symObjAddr: 0x2A3EC, symBinAddr: 0x10002E684, symSize: 0xF4 }
  - { offsetInCU: 0x3C7C6, offset: 0x3C7C6, size: 0x8, addend: 0x0, symName: __ZNSt3__113__unwrap_iterB8ue170006IPN7tinyobj5tag_tENS_18__unwrap_iter_implIS3_Lb1EEELi0EEEDTclsrT0_8__unwrapclsr3stdE7declvalIT_EEEES7_, symObjAddr: 0x2A4E0, symBinAddr: 0x10002E778, symSize: 0x24 }
  - { offsetInCU: 0x3C80A, offset: 0x3C80A, size: 0x8, addend: 0x0, symName: __ZNSt3__113__rewrap_iterB8ue170006IPN7tinyobj5tag_tES3_NS_18__unwrap_iter_implIS3_Lb1EEEEET_S6_T0_, symObjAddr: 0x2A504, symBinAddr: 0x10002E79C, symSize: 0x3C }
  - { offsetInCU: 0x3C983, offset: 0x3C983, size: 0x8, addend: 0x0, symName: __ZNSt3__122__make_exception_guardB8ue170006INS_29_AllocatorDestroyRangeReverseINS_9allocatorIN7tinyobj5tag_tEEEPS4_EEEENS_28__exception_guard_exceptionsIT_EES9_, symObjAddr: 0x2A608, symBinAddr: 0x10002E8A0, symSize: 0x4C }
  - { offsetInCU: 0x3C9B9, offset: 0x3C9B9, size: 0x8, addend: 0x0, symName: __ZNSt3__112__to_addressB8ue170006IN7tinyobj5tag_tEEEPT_S4_, symObjAddr: 0x2A6C8, symBinAddr: 0x10002E960, symSize: 0x14 }
  - { offsetInCU: 0x3CA15, offset: 0x3CA15, size: 0x8, addend: 0x0, symName: __ZNSt3__112construct_atB8ue170006IN7tinyobj5tag_tEJRS2_EPS2_EEPT_S6_DpOT0_, symObjAddr: 0x2A7C0, symBinAddr: 0x10002EA58, symSize: 0x3C }
  - { offsetInCU: 0x3CA87, offset: 0x3CA87, size: 0x8, addend: 0x0, symName: __ZNSt3__122__make_exception_guardB8ue170006INS_6vectorIiNS_9allocatorIiEEE16__destroy_vectorEEENS_28__exception_guard_exceptionsIT_EES7_, symObjAddr: 0x2ABCC, symBinAddr: 0x10002EE64, symSize: 0x40 }
  - { offsetInCU: 0x3CABC, offset: 0x3CABC, size: 0x8, addend: 0x0, symName: __ZNSt3__130__uninitialized_allocator_copyB8ue170006INS_9allocatorIiEEPiS3_S3_EET2_RT_T0_T1_S4_, symObjAddr: 0x2AE38, symBinAddr: 0x10002F0D0, symSize: 0x80 }
  - { offsetInCU: 0x3CB59, offset: 0x3CB59, size: 0x8, addend: 0x0, symName: __ZNSt3__114__unwrap_rangeB8ue170006IPiS1_EEDaT_T0_, symObjAddr: 0x2AEB8, symBinAddr: 0x10002F150, symSize: 0x3C }
  - { offsetInCU: 0x3CBA5, offset: 0x3CBA5, size: 0x8, addend: 0x0, symName: __ZNSt3__135__uninitialized_allocator_copy_implB8ue170006INS_9allocatorIiEEiiiLPv0EEEPT2_RT_PT0_S9_S5_, symObjAddr: 0x2AEF4, symBinAddr: 0x10002F18C, symSize: 0x38 }
  - { offsetInCU: 0x3CC27, offset: 0x3CC27, size: 0x8, addend: 0x0, symName: __ZNSt3__113__unwrap_iterB8ue170006IPiNS_18__unwrap_iter_implIS1_Lb1EEELi0EEEDTclsrT0_8__unwrapclsr3stdE7declvalIT_EEEES5_, symObjAddr: 0x2AF2C, symBinAddr: 0x10002F1C4, symSize: 0x24 }
  - { offsetInCU: 0x3CC6B, offset: 0x3CC6B, size: 0x8, addend: 0x0, symName: __ZNSt3__113__rewrap_iterB8ue170006IPiS1_NS_18__unwrap_iter_implIS1_Lb1EEEEET_S4_T0_, symObjAddr: 0x2AF50, symBinAddr: 0x10002F1E8, symSize: 0x3C }
  - { offsetInCU: 0x3CE13, offset: 0x3CE13, size: 0x8, addend: 0x0, symName: __ZNSt3__14copyB8ue170006IPiS1_EET0_T_S3_S2_, symObjAddr: 0x2B054, symBinAddr: 0x10002F2EC, symSize: 0x40 }
  - { offsetInCU: 0x3CE6D, offset: 0x3CE6D, size: 0x8, addend: 0x0, symName: __ZNSt3__16__copyB8ue170006INS_17_ClassicAlgPolicyEPiS2_S2_EENS_4pairIT0_T2_EES4_T1_S5_, symObjAddr: 0x2B094, symBinAddr: 0x10002F32C, symSize: 0x44 }
  - { offsetInCU: 0x3CED9, offset: 0x3CED9, size: 0x8, addend: 0x0, symName: __ZNSt3__123__dispatch_copy_or_moveB8ue170006INS_17_ClassicAlgPolicyENS_11__copy_loopIS1_EENS_14__copy_trivialEPiS5_S5_EENS_4pairIT2_T4_EES7_T3_S8_, symObjAddr: 0x2B0D8, symBinAddr: 0x10002F370, symSize: 0x44 }
  - { offsetInCU: 0x3CF57, offset: 0x3CF57, size: 0x8, addend: 0x0, symName: __ZNSt3__121__unwrap_and_dispatchB8ue170006INS_10__overloadINS_11__copy_loopINS_17_ClassicAlgPolicyEEENS_14__copy_trivialEEEPiS7_S7_Li0EEENS_4pairIT0_T2_EES9_T1_SA_, symObjAddr: 0x2B11C, symBinAddr: 0x10002F3B4, symSize: 0xB4 }
  - { offsetInCU: 0x3CFE5, offset: 0x3CFE5, size: 0x8, addend: 0x0, symName: __ZNSt3__19make_pairB8ue170006IPiS1_EENS_4pairINS_18__unwrap_ref_decayIT_E4typeENS3_IT0_E4typeEEEOS4_OS7_, symObjAddr: 0x2B218, symBinAddr: 0x10002F4B0, symSize: 0x38 }
  - { offsetInCU: 0x3D034, offset: 0x3D034, size: 0x8, addend: 0x0, symName: __ZNSt3__114__rewrap_rangeB8ue170006IPiS1_S1_EET0_S2_T1_, symObjAddr: 0x2B250, symBinAddr: 0x10002F4E8, symSize: 0x2C }
  - { offsetInCU: 0x3D089, offset: 0x3D089, size: 0x8, addend: 0x0, symName: __ZNSt3__119__copy_trivial_implB8ue170006IiiEENS_4pairIPT_PT0_EES3_S3_S5_, symObjAddr: 0x2B27C, symBinAddr: 0x10002F514, symSize: 0x80 }
  - { offsetInCU: 0x3D0F1, offset: 0x3D0F1, size: 0x8, addend: 0x0, symName: __ZNSt3__119__constexpr_memmoveB8ue170006IiiLi0EEEPT_S2_PT0_NS_15__element_countE, symObjAddr: 0x2B2FC, symBinAddr: 0x10002F594, symSize: 0x64 }
  - { offsetInCU: 0x3D15F, offset: 0x3D15F, size: 0x8, addend: 0x0, symName: __ZNSt3__19make_pairB8ue170006IRPiS1_EENS_4pairINS_18__unwrap_ref_decayIT_E4typeENS4_IT0_E4typeEEEOS5_OS8_, symObjAddr: 0x2B360, symBinAddr: 0x10002F5F8, symSize: 0x38 }
  - { offsetInCU: 0x3D201, offset: 0x3D201, size: 0x8, addend: 0x0, symName: __ZNSt3__122__make_exception_guardB8ue170006INS_6vectorIfNS_9allocatorIfEEE16__destroy_vectorEEENS_28__exception_guard_exceptionsIT_EES7_, symObjAddr: 0x2B830, symBinAddr: 0x10002FAC8, symSize: 0x40 }
  - { offsetInCU: 0x3D236, offset: 0x3D236, size: 0x8, addend: 0x0, symName: __ZNSt3__130__uninitialized_allocator_copyB8ue170006INS_9allocatorIfEEPfS3_S3_EET2_RT_T0_T1_S4_, symObjAddr: 0x2BA9C, symBinAddr: 0x10002FD34, symSize: 0x80 }
  - { offsetInCU: 0x3D2D3, offset: 0x3D2D3, size: 0x8, addend: 0x0, symName: __ZNSt3__114__unwrap_rangeB8ue170006IPfS1_EEDaT_T0_, symObjAddr: 0x2BB1C, symBinAddr: 0x10002FDB4, symSize: 0x3C }
  - { offsetInCU: 0x3D31F, offset: 0x3D31F, size: 0x8, addend: 0x0, symName: __ZNSt3__135__uninitialized_allocator_copy_implB8ue170006INS_9allocatorIfEEfffLPv0EEEPT2_RT_PT0_S9_S5_, symObjAddr: 0x2BB58, symBinAddr: 0x10002FDF0, symSize: 0x38 }
  - { offsetInCU: 0x3D3A1, offset: 0x3D3A1, size: 0x8, addend: 0x0, symName: __ZNSt3__113__unwrap_iterB8ue170006IPfNS_18__unwrap_iter_implIS1_Lb1EEELi0EEEDTclsrT0_8__unwrapclsr3stdE7declvalIT_EEEES5_, symObjAddr: 0x2BB90, symBinAddr: 0x10002FE28, symSize: 0x24 }
  - { offsetInCU: 0x3D3E5, offset: 0x3D3E5, size: 0x8, addend: 0x0, symName: __ZNSt3__113__rewrap_iterB8ue170006IPfS1_NS_18__unwrap_iter_implIS1_Lb1EEEEET_S4_T0_, symObjAddr: 0x2BBB4, symBinAddr: 0x10002FE4C, symSize: 0x3C }
  - { offsetInCU: 0x3D58D, offset: 0x3D58D, size: 0x8, addend: 0x0, symName: __ZNSt3__14copyB8ue170006IPfS1_EET0_T_S3_S2_, symObjAddr: 0x2BCB8, symBinAddr: 0x10002FF50, symSize: 0x40 }
  - { offsetInCU: 0x3D5E7, offset: 0x3D5E7, size: 0x8, addend: 0x0, symName: __ZNSt3__16__copyB8ue170006INS_17_ClassicAlgPolicyEPfS2_S2_EENS_4pairIT0_T2_EES4_T1_S5_, symObjAddr: 0x2BCF8, symBinAddr: 0x10002FF90, symSize: 0x44 }
  - { offsetInCU: 0x3D653, offset: 0x3D653, size: 0x8, addend: 0x0, symName: __ZNSt3__123__dispatch_copy_or_moveB8ue170006INS_17_ClassicAlgPolicyENS_11__copy_loopIS1_EENS_14__copy_trivialEPfS5_S5_EENS_4pairIT2_T4_EES7_T3_S8_, symObjAddr: 0x2BD3C, symBinAddr: 0x10002FFD4, symSize: 0x44 }
  - { offsetInCU: 0x3D6D1, offset: 0x3D6D1, size: 0x8, addend: 0x0, symName: __ZNSt3__121__unwrap_and_dispatchB8ue170006INS_10__overloadINS_11__copy_loopINS_17_ClassicAlgPolicyEEENS_14__copy_trivialEEEPfS7_S7_Li0EEENS_4pairIT0_T2_EES9_T1_SA_, symObjAddr: 0x2BD80, symBinAddr: 0x100030018, symSize: 0xB4 }
  - { offsetInCU: 0x3D75F, offset: 0x3D75F, size: 0x8, addend: 0x0, symName: __ZNSt3__19make_pairB8ue170006IPfS1_EENS_4pairINS_18__unwrap_ref_decayIT_E4typeENS3_IT0_E4typeEEEOS4_OS7_, symObjAddr: 0x2BE7C, symBinAddr: 0x100030114, symSize: 0x38 }
  - { offsetInCU: 0x3D7AE, offset: 0x3D7AE, size: 0x8, addend: 0x0, symName: __ZNSt3__114__rewrap_rangeB8ue170006IPfS1_S1_EET0_S2_T1_, symObjAddr: 0x2BEB4, symBinAddr: 0x10003014C, symSize: 0x2C }
  - { offsetInCU: 0x3D803, offset: 0x3D803, size: 0x8, addend: 0x0, symName: __ZNSt3__119__copy_trivial_implB8ue170006IffEENS_4pairIPT_PT0_EES3_S3_S5_, symObjAddr: 0x2BEE0, symBinAddr: 0x100030178, symSize: 0x80 }
  - { offsetInCU: 0x3D86B, offset: 0x3D86B, size: 0x8, addend: 0x0, symName: __ZNSt3__119__constexpr_memmoveB8ue170006IffLi0EEEPT_S2_PT0_NS_15__element_countE, symObjAddr: 0x2BF60, symBinAddr: 0x1000301F8, symSize: 0x64 }
  - { offsetInCU: 0x3D8D9, offset: 0x3D8D9, size: 0x8, addend: 0x0, symName: __ZNSt3__19make_pairB8ue170006IRPfS1_EENS_4pairINS_18__unwrap_ref_decayIT_E4typeENS4_IT0_E4typeEEEOS5_OS8_, symObjAddr: 0x2BFC4, symBinAddr: 0x10003025C, symSize: 0x38 }
  - { offsetInCU: 0x3D97B, offset: 0x3D97B, size: 0x8, addend: 0x0, symName: __ZNSt3__122__make_exception_guardB8ue170006INS_6vectorINS_12basic_stringIcNS_11char_traitsIcEENS_9allocatorIcEEEENS5_IS7_EEE16__destroy_vectorEEENS_28__exception_guard_exceptionsIT_EESC_, symObjAddr: 0x2C3E0, symBinAddr: 0x100030678, symSize: 0x40 }
  - { offsetInCU: 0x3D9B0, offset: 0x3D9B0, size: 0x8, addend: 0x0, symName: __ZNSt3__130__uninitialized_allocator_copyB8ue170006INS_9allocatorINS_12basic_stringIcNS_11char_traitsIcEENS1_IcEEEEEEPS6_S8_S8_EET2_RT_T0_T1_S9_, symObjAddr: 0x2C600, symBinAddr: 0x100030898, symSize: 0x80 }
  - { offsetInCU: 0x3DA4D, offset: 0x3DA4D, size: 0x8, addend: 0x0, symName: __ZNSt3__114__unwrap_rangeB8ue170006IPNS_12basic_stringIcNS_11char_traitsIcEENS_9allocatorIcEEEES7_EEDaT_T0_, symObjAddr: 0x2C680, symBinAddr: 0x100030918, symSize: 0x3C }
  - { offsetInCU: 0x3DA99, offset: 0x3DA99, size: 0x8, addend: 0x0, symName: __ZNSt3__135__uninitialized_allocator_copy_implB8ue170006INS_9allocatorINS_12basic_stringIcNS_11char_traitsIcEENS1_IcEEEEEEPS6_S8_S8_EET2_RT_T0_T1_S9_, symObjAddr: 0x2C6BC, symBinAddr: 0x100030954, symSize: 0xF4 }
  - { offsetInCU: 0x3DB37, offset: 0x3DB37, size: 0x8, addend: 0x0, symName: __ZNSt3__113__unwrap_iterB8ue170006IPNS_12basic_stringIcNS_11char_traitsIcEENS_9allocatorIcEEEENS_18__unwrap_iter_implIS7_Lb1EEELi0EEEDTclsrT0_8__unwrapclsr3stdE7declvalIT_EEEESB_, symObjAddr: 0x2C7B0, symBinAddr: 0x100030A48, symSize: 0x24 }
  - { offsetInCU: 0x3DB7B, offset: 0x3DB7B, size: 0x8, addend: 0x0, symName: __ZNSt3__113__rewrap_iterB8ue170006IPNS_12basic_stringIcNS_11char_traitsIcEENS_9allocatorIcEEEES7_NS_18__unwrap_iter_implIS7_Lb1EEEEET_SA_T0_, symObjAddr: 0x2C7D4, symBinAddr: 0x100030A6C, symSize: 0x3C }
  - { offsetInCU: 0x3DCF4, offset: 0x3DCF4, size: 0x8, addend: 0x0, symName: __ZNSt3__122__make_exception_guardB8ue170006INS_29_AllocatorDestroyRangeReverseINS_9allocatorINS_12basic_stringIcNS_11char_traitsIcEENS2_IcEEEEEEPS7_EEEENS_28__exception_guard_exceptionsIT_EESC_, symObjAddr: 0x2C8D8, symBinAddr: 0x100030B70, symSize: 0x4C }
  - { offsetInCU: 0x3DD2A, offset: 0x3DD2A, size: 0x8, addend: 0x0, symName: __ZNSt3__112construct_atB8ue170006INS_12basic_stringIcNS_11char_traitsIcEENS_9allocatorIcEEEEJRS6_EPS6_EEPT_SA_DpOT0_, symObjAddr: 0x2CA7C, symBinAddr: 0x100030D14, symSize: 0x3C }
  - { offsetInCU: 0x3DD9D, offset: 0x3DD9D, size: 0x8, addend: 0x0, symName: __ZNSt3__119__allocator_destroyB8ue170006INS_9allocatorINS_12basic_stringIcNS_11char_traitsIcEENS1_IcEEEEEENS_16reverse_iteratorIPS6_EESA_EEvRT_T0_T1_, symObjAddr: 0x2CB70, symBinAddr: 0x100030E08, symSize: 0x70 }
  - { offsetInCU: 0x3DE54, offset: 0x3DE54, size: 0x8, addend: 0x0, symName: __ZNSt3__119__allocator_destroyB8ue170006INS_9allocatorIN7tinyobj5tag_tEEENS_16reverse_iteratorIPS3_EES7_EEvRT_T0_T1_, symObjAddr: 0x2CD9C, symBinAddr: 0x100031034, symSize: 0x70 }
  - { offsetInCU: 0x3DEB7, offset: 0x3DEB7, size: 0x8, addend: 0x0, symName: __ZNSt3__1neB8ue170006IPN7tinyobj5tag_tES3_EEbRKNS_16reverse_iteratorIT_EERKNS4_IT0_EE, symObjAddr: 0x2CE40, symBinAddr: 0x1000310D8, symSize: 0x48 }
  - { offsetInCU: 0x3DF03, offset: 0x3DF03, size: 0x8, addend: 0x0, symName: __ZNSt3__112__to_addressB8ue170006INS_16reverse_iteratorIPN7tinyobj5tag_tEEEvEEu7__decayIDTclsr19__to_address_helperIT_EE6__callclsr3stdE7declvalIRKS6_EEEEES8_, symObjAddr: 0x2CEB0, symBinAddr: 0x100031148, symSize: 0x24 }
  - { offsetInCU: 0x3DF39, offset: 0x3DF39, size: 0x8, addend: 0x0, symName: __ZNSt3__110destroy_atB8ue170006IN7tinyobj5tag_tELi0EEEvPT_, symObjAddr: 0x2CF0C, symBinAddr: 0x1000311A4, symSize: 0x24 }
  - { offsetInCU: 0x3DF70, offset: 0x3DF70, size: 0x8, addend: 0x0, symName: __ZNSt3__112__destroy_atB8ue170006IN7tinyobj5tag_tELi0EEEvPT_, symObjAddr: 0x2CF30, symBinAddr: 0x1000311C8, symSize: 0x24 }
  - { offsetInCU: 0x3DFD1, offset: 0x3DFD1, size: 0x8, addend: 0x0, symName: __ZNSt3__14prevB8ue170006IPN7tinyobj5tag_tEEENS_9enable_ifIXsr29__has_input_iterator_categoryIT_EE5valueES5_E4typeES5_NS_15iterator_traitsIS5_E15difference_typeE, symObjAddr: 0x2CFB8, symBinAddr: 0x100031250, symSize: 0x3C }
  - { offsetInCU: 0x3E067, offset: 0x3E067, size: 0x8, addend: 0x0, symName: __ZNSt3__123__dispatch_copy_or_moveB8ue170006INS_17_ClassicAlgPolicyENS_11__copy_loopIS1_EENS_14__copy_trivialEPN7tinyobj5tag_tES7_S7_EENS_4pairIT2_T4_EES9_T3_SA_, symObjAddr: 0x2D0F0, symBinAddr: 0x100031388, symSize: 0x44 }
  - { offsetInCU: 0x3E0E5, offset: 0x3E0E5, size: 0x8, addend: 0x0, symName: __ZNSt3__121__unwrap_and_dispatchB8ue170006INS_10__overloadINS_11__copy_loopINS_17_ClassicAlgPolicyEEENS_14__copy_trivialEEEPN7tinyobj5tag_tES9_S9_Li0EEENS_4pairIT0_T2_EESB_T1_SC_, symObjAddr: 0x2D134, symBinAddr: 0x1000313CC, symSize: 0xB4 }
  - { offsetInCU: 0x3E204, offset: 0x3E204, size: 0x8, addend: 0x0, symName: __ZNSt3__19make_pairB8ue170006IPN7tinyobj5tag_tES3_EENS_4pairINS_18__unwrap_ref_decayIT_E4typeENS5_IT0_E4typeEEEOS6_OS9_, symObjAddr: 0x2D270, symBinAddr: 0x100031508, symSize: 0x38 }
  - { offsetInCU: 0x3E253, offset: 0x3E253, size: 0x8, addend: 0x0, symName: __ZNSt3__114__rewrap_rangeB8ue170006IPN7tinyobj5tag_tES3_S3_EET0_S4_T1_, symObjAddr: 0x2D2A8, symBinAddr: 0x100031540, symSize: 0x2C }
  - { offsetInCU: 0x3E2A8, offset: 0x3E2A8, size: 0x8, addend: 0x0, symName: __ZNSt3__18distanceB8ue170006IPiEENS_15iterator_traitsIT_E15difference_typeES3_S3_, symObjAddr: 0x2D67C, symBinAddr: 0x100031914, symSize: 0x2C }
  - { offsetInCU: 0x3E2EB, offset: 0x3E2EB, size: 0x8, addend: 0x0, symName: __ZNSt3__14nextB8ue170006IPiEENS_9enable_ifIXsr29__has_input_iterator_categoryIT_EE5valueES3_E4typeES3_NS_15iterator_traitsIS3_E15difference_typeE, symObjAddr: 0x2D6A8, symBinAddr: 0x100031940, symSize: 0x34 }
  - { offsetInCU: 0x3E32F, offset: 0x3E32F, size: 0x8, addend: 0x0, symName: __ZNSt3__19__advanceB8ue170006IPiEEvRT_NS_15iterator_traitsIS2_E15difference_typeENS_26random_access_iterator_tagE, symObjAddr: 0x2D7F4, symBinAddr: 0x100031A8C, symSize: 0x28 }
  - { offsetInCU: 0x3E378, offset: 0x3E378, size: 0x8, addend: 0x0, symName: __ZNSt3__110__distanceB8ue170006IPiEENS_15iterator_traitsIT_E15difference_typeES3_S3_NS_26random_access_iterator_tagE, symObjAddr: 0x2D914, symBinAddr: 0x100031BAC, symSize: 0x28 }
  - { offsetInCU: 0x3E3C5, offset: 0x3E3C5, size: 0x8, addend: 0x0, symName: __ZNSt3__18distanceB8ue170006IPfEENS_15iterator_traitsIT_E15difference_typeES3_S3_, symObjAddr: 0x2DB3C, symBinAddr: 0x100031DD4, symSize: 0x2C }
  - { offsetInCU: 0x3E408, offset: 0x3E408, size: 0x8, addend: 0x0, symName: __ZNSt3__14nextB8ue170006IPfEENS_9enable_ifIXsr29__has_input_iterator_categoryIT_EE5valueES3_E4typeES3_NS_15iterator_traitsIS3_E15difference_typeE, symObjAddr: 0x2DB68, symBinAddr: 0x100031E00, symSize: 0x34 }
  - { offsetInCU: 0x3E44C, offset: 0x3E44C, size: 0x8, addend: 0x0, symName: __ZNSt3__19__advanceB8ue170006IPfEEvRT_NS_15iterator_traitsIS2_E15difference_typeENS_26random_access_iterator_tagE, symObjAddr: 0x2DCB4, symBinAddr: 0x100031F4C, symSize: 0x28 }
  - { offsetInCU: 0x3E495, offset: 0x3E495, size: 0x8, addend: 0x0, symName: __ZNSt3__110__distanceB8ue170006IPfEENS_15iterator_traitsIT_E15difference_typeES3_S3_NS_26random_access_iterator_tagE, symObjAddr: 0x2DCDC, symBinAddr: 0x100031F74, symSize: 0x28 }
  - { offsetInCU: 0x3E4E2, offset: 0x3E4E2, size: 0x8, addend: 0x0, symName: __ZNSt3__18distanceB8ue170006IPNS_12basic_stringIcNS_11char_traitsIcEENS_9allocatorIcEEEEEENS_15iterator_traitsIT_E15difference_typeES9_S9_, symObjAddr: 0x2DF04, symBinAddr: 0x10003219C, symSize: 0x2C }
  - { offsetInCU: 0x3E525, offset: 0x3E525, size: 0x8, addend: 0x0, symName: __ZNSt3__14nextB8ue170006IPNS_12basic_stringIcNS_11char_traitsIcEENS_9allocatorIcEEEEEENS_9enable_ifIXsr29__has_input_iterator_categoryIT_EE5valueES9_E4typeES9_NS_15iterator_traitsIS9_E15difference_typeE, symObjAddr: 0x2DF30, symBinAddr: 0x1000321C8, symSize: 0x34 }
  - { offsetInCU: 0x3E568, offset: 0x3E568, size: 0x8, addend: 0x0, symName: __ZNSt3__14copyB8ue170006IPNS_12basic_stringIcNS_11char_traitsIcEENS_9allocatorIcEEEES7_EET0_T_S9_S8_, symObjAddr: 0x2DF64, symBinAddr: 0x1000321FC, symSize: 0x40 }
  - { offsetInCU: 0x3E5C2, offset: 0x3E5C2, size: 0x8, addend: 0x0, symName: __ZNSt3__16__copyB8ue170006INS_17_ClassicAlgPolicyEPNS_12basic_stringIcNS_11char_traitsIcEENS_9allocatorIcEEEES8_S8_EENS_4pairIT0_T2_EESA_T1_SB_, symObjAddr: 0x2DFA4, symBinAddr: 0x10003223C, symSize: 0x44 }
  - { offsetInCU: 0x3E62E, offset: 0x3E62E, size: 0x8, addend: 0x0, symName: __ZNSt3__123__dispatch_copy_or_moveB8ue170006INS_17_ClassicAlgPolicyENS_11__copy_loopIS1_EENS_14__copy_trivialEPNS_12basic_stringIcNS_11char_traitsIcEENS_9allocatorIcEEEESB_SB_EENS_4pairIT2_T4_EESD_T3_SE_, symObjAddr: 0x2E0C8, symBinAddr: 0x100032360, symSize: 0x44 }
  - { offsetInCU: 0x3E6AC, offset: 0x3E6AC, size: 0x8, addend: 0x0, symName: __ZNSt3__121__unwrap_and_dispatchB8ue170006INS_10__overloadINS_11__copy_loopINS_17_ClassicAlgPolicyEEENS_14__copy_trivialEEEPNS_12basic_stringIcNS_11char_traitsIcEENS_9allocatorIcEEEESD_SD_Li0EEENS_4pairIT0_T2_EESF_T1_SG_, symObjAddr: 0x2E10C, symBinAddr: 0x1000323A4, symSize: 0xB4 }
  - { offsetInCU: 0x3E73A, offset: 0x3E73A, size: 0x8, addend: 0x0, symName: __ZNSt3__19make_pairB8ue170006IPNS_12basic_stringIcNS_11char_traitsIcEENS_9allocatorIcEEEES7_EENS_4pairINS_18__unwrap_ref_decayIT_E4typeENS9_IT0_E4typeEEEOSA_OSD_, symObjAddr: 0x2E248, symBinAddr: 0x1000324E0, symSize: 0x38 }
  - { offsetInCU: 0x3E789, offset: 0x3E789, size: 0x8, addend: 0x0, symName: __ZNSt3__114__rewrap_rangeB8ue170006IPNS_12basic_stringIcNS_11char_traitsIcEENS_9allocatorIcEEEES7_S7_EET0_S8_T1_, symObjAddr: 0x2E280, symBinAddr: 0x100032518, symSize: 0x2C }
  - { offsetInCU: 0x3E7DE, offset: 0x3E7DE, size: 0x8, addend: 0x0, symName: __ZNSt3__110__distanceB8ue170006IPNS_12basic_stringIcNS_11char_traitsIcEENS_9allocatorIcEEEEEENS_15iterator_traitsIT_E15difference_typeES9_S9_NS_26random_access_iterator_tagE, symObjAddr: 0x2E3A8, symBinAddr: 0x100032640, symSize: 0x28 }
  - { offsetInCU: 0x3E82B, offset: 0x3E82B, size: 0x8, addend: 0x0, symName: __ZNSt3__119__allocate_at_leastB8ue170006INS_9allocatorIN7tinyobj5tag_tEEEEENS_19__allocation_resultINS_16allocator_traitsIT_E7pointerEEERS7_m, symObjAddr: 0x2E834, symBinAddr: 0x100032ACC, symSize: 0x40 }
  - { offsetInCU: 0x3E86E, offset: 0x3E86E, size: 0x8, addend: 0x0, symName: __ZNSt3__110__distanceB8ue170006IPN7tinyobj5tag_tEEENS_15iterator_traitsIT_E15difference_typeES5_S5_NS_26random_access_iterator_tagE, symObjAddr: 0x2EA20, symBinAddr: 0x100032CB8, symSize: 0x28 }
  - { offsetInCU: 0x3E8BB, offset: 0x3E8BB, size: 0x8, addend: 0x0, symName: __ZNSt3__112construct_atB8ue170006IiJiEPiEEPT_S3_DpOT0_, symObjAddr: 0x2EBE0, symBinAddr: 0x100032E78, symSize: 0x2C }
  - { offsetInCU: 0x3E954, offset: 0x3E954, size: 0x8, addend: 0x0, symName: __ZNSt3__112construct_atB8ue170006IN7tinyobj7shape_tEJRKS2_EPS2_EEPT_S7_DpOT0_, symObjAddr: 0x2F050, symBinAddr: 0x1000332E8, symSize: 0x3C }
  - { offsetInCU: 0x3E9C6, offset: 0x3E9C6, size: 0x8, addend: 0x0, symName: __ZNSt3__122__make_exception_guardB8ue170006INS_6vectorIN7tinyobj7index_tENS_9allocatorIS3_EEE16__destroy_vectorEEENS_28__exception_guard_exceptionsIT_EES9_, symObjAddr: 0x2F6B8, symBinAddr: 0x100033950, symSize: 0x40 }
  - { offsetInCU: 0x3E9FB, offset: 0x3E9FB, size: 0x8, addend: 0x0, symName: __ZNSt3__119__allocate_at_leastB8ue170006INS_9allocatorIN7tinyobj7index_tEEEEENS_19__allocation_resultINS_16allocator_traitsIT_E7pointerEEERS7_m, symObjAddr: 0x2F9A8, symBinAddr: 0x100033C40, symSize: 0x40 }
  - { offsetInCU: 0x3EA3E, offset: 0x3EA3E, size: 0x8, addend: 0x0, symName: __ZNSt3__112__to_addressB8ue170006IN7tinyobj7index_tEEEPT_S4_, symObjAddr: 0x2FC7C, symBinAddr: 0x100033F14, symSize: 0x14 }
  - { offsetInCU: 0x3EA73, offset: 0x3EA73, size: 0x8, addend: 0x0, symName: __ZNSt3__130__uninitialized_allocator_copyB8ue170006INS_9allocatorIN7tinyobj7index_tEEEPS3_S5_S5_EET2_RT_T0_T1_S6_, symObjAddr: 0x2FD2C, symBinAddr: 0x100033FC4, symSize: 0x80 }
  - { offsetInCU: 0x3EB10, offset: 0x3EB10, size: 0x8, addend: 0x0, symName: __ZNSt3__114__unwrap_rangeB8ue170006IPN7tinyobj7index_tES3_EEDaT_T0_, symObjAddr: 0x2FE24, symBinAddr: 0x1000340BC, symSize: 0x3C }
  - { offsetInCU: 0x3EB5C, offset: 0x3EB5C, size: 0x8, addend: 0x0, symName: __ZNSt3__135__uninitialized_allocator_copy_implB8ue170006INS_9allocatorIN7tinyobj7index_tEEES3_S3_S3_LPv0EEEPT2_RT_PT0_SB_S7_, symObjAddr: 0x2FE60, symBinAddr: 0x1000340F8, symSize: 0x38 }
  - { offsetInCU: 0x3EBDE, offset: 0x3EBDE, size: 0x8, addend: 0x0, symName: __ZNSt3__113__unwrap_iterB8ue170006IPN7tinyobj7index_tENS_18__unwrap_iter_implIS3_Lb1EEELi0EEEDTclsrT0_8__unwrapclsr3stdE7declvalIT_EEEES7_, symObjAddr: 0x2FE98, symBinAddr: 0x100034130, symSize: 0x24 }
  - { offsetInCU: 0x3EC22, offset: 0x3EC22, size: 0x8, addend: 0x0, symName: __ZNSt3__113__rewrap_iterB8ue170006IPN7tinyobj7index_tES3_NS_18__unwrap_iter_implIS3_Lb1EEEEET_S6_T0_, symObjAddr: 0x2FEBC, symBinAddr: 0x100034154, symSize: 0x3C }
  - { offsetInCU: 0x3EDC2, offset: 0x3EDC2, size: 0x8, addend: 0x0, symName: __ZNSt3__14copyB8ue170006IPN7tinyobj7index_tES3_EET0_T_S5_S4_, symObjAddr: 0x2FFC0, symBinAddr: 0x100034258, symSize: 0x40 }
  - { offsetInCU: 0x3EE1C, offset: 0x3EE1C, size: 0x8, addend: 0x0, symName: __ZNSt3__16__copyB8ue170006INS_17_ClassicAlgPolicyEPN7tinyobj7index_tES4_S4_EENS_4pairIT0_T2_EES6_T1_S7_, symObjAddr: 0x30000, symBinAddr: 0x100034298, symSize: 0x44 }
  - { offsetInCU: 0x3EE88, offset: 0x3EE88, size: 0x8, addend: 0x0, symName: __ZNSt3__123__dispatch_copy_or_moveB8ue170006INS_17_ClassicAlgPolicyENS_11__copy_loopIS1_EENS_14__copy_trivialEPN7tinyobj7index_tES7_S7_EENS_4pairIT2_T4_EES9_T3_SA_, symObjAddr: 0x30044, symBinAddr: 0x1000342DC, symSize: 0x44 }
  - { offsetInCU: 0x3EF06, offset: 0x3EF06, size: 0x8, addend: 0x0, symName: __ZNSt3__121__unwrap_and_dispatchB8ue170006INS_10__overloadINS_11__copy_loopINS_17_ClassicAlgPolicyEEENS_14__copy_trivialEEEPN7tinyobj7index_tES9_S9_Li0EEENS_4pairIT0_T2_EESB_T1_SC_, symObjAddr: 0x30088, symBinAddr: 0x100034320, symSize: 0xB4 }
  - { offsetInCU: 0x3EF94, offset: 0x3EF94, size: 0x8, addend: 0x0, symName: __ZNSt3__19make_pairB8ue170006IPN7tinyobj7index_tES3_EENS_4pairINS_18__unwrap_ref_decayIT_E4typeENS5_IT0_E4typeEEEOS6_OS9_, symObjAddr: 0x30184, symBinAddr: 0x10003441C, symSize: 0x38 }
  - { offsetInCU: 0x3EFE3, offset: 0x3EFE3, size: 0x8, addend: 0x0, symName: __ZNSt3__114__rewrap_rangeB8ue170006IPN7tinyobj7index_tES3_S3_EET0_S4_T1_, symObjAddr: 0x301BC, symBinAddr: 0x100034454, symSize: 0x2C }
  - { offsetInCU: 0x3F038, offset: 0x3F038, size: 0x8, addend: 0x0, symName: __ZNSt3__119__copy_trivial_implB8ue170006IN7tinyobj7index_tES2_EENS_4pairIPT_PT0_EES5_S5_S7_, symObjAddr: 0x301E8, symBinAddr: 0x100034480, symSize: 0x88 }
  - { offsetInCU: 0x3F0A0, offset: 0x3F0A0, size: 0x8, addend: 0x0, symName: __ZNSt3__119__constexpr_memmoveB8ue170006IN7tinyobj7index_tES2_Li0EEEPT_S4_PT0_NS_15__element_countE, symObjAddr: 0x30270, symBinAddr: 0x100034508, symSize: 0x68 }
  - { offsetInCU: 0x3F10E, offset: 0x3F10E, size: 0x8, addend: 0x0, symName: __ZNSt3__19make_pairB8ue170006IRPN7tinyobj7index_tES3_EENS_4pairINS_18__unwrap_ref_decayIT_E4typeENS6_IT0_E4typeEEEOS7_OSA_, symObjAddr: 0x302D8, symBinAddr: 0x100034570, symSize: 0x38 }
  - { offsetInCU: 0x3F1B0, offset: 0x3F1B0, size: 0x8, addend: 0x0, symName: __ZNSt3__110destroy_atB8ue170006IN7tinyobj7index_tELi0EEEvPT_, symObjAddr: 0x3070C, symBinAddr: 0x1000349A4, symSize: 0x24 }
  - { offsetInCU: 0x3F1E8, offset: 0x3F1E8, size: 0x8, addend: 0x0, symName: __ZNSt3__112__destroy_atB8ue170006IN7tinyobj7index_tELi0EEEvPT_, symObjAddr: 0x30730, symBinAddr: 0x1000349C8, symSize: 0x10 }
  - { offsetInCU: 0x3F21F, offset: 0x3F21F, size: 0x8, addend: 0x0, symName: __ZNSt3__122__make_exception_guardB8ue170006INS_6vectorIjNS_9allocatorIjEEE16__destroy_vectorEEENS_28__exception_guard_exceptionsIT_EES7_, symObjAddr: 0x30978, symBinAddr: 0x100034C10, symSize: 0x40 }
  - { offsetInCU: 0x3F254, offset: 0x3F254, size: 0x8, addend: 0x0, symName: __ZNSt3__130__uninitialized_allocator_copyB8ue170006INS_9allocatorIjEEPjS3_S3_EET2_RT_T0_T1_S4_, symObjAddr: 0x30BE4, symBinAddr: 0x100034E7C, symSize: 0x80 }
  - { offsetInCU: 0x3F2F1, offset: 0x3F2F1, size: 0x8, addend: 0x0, symName: __ZNSt3__114__unwrap_rangeB8ue170006IPjS1_EEDaT_T0_, symObjAddr: 0x30C64, symBinAddr: 0x100034EFC, symSize: 0x3C }
  - { offsetInCU: 0x3F33D, offset: 0x3F33D, size: 0x8, addend: 0x0, symName: __ZNSt3__135__uninitialized_allocator_copy_implB8ue170006INS_9allocatorIjEEjjjLPv0EEEPT2_RT_PT0_S9_S5_, symObjAddr: 0x30CA0, symBinAddr: 0x100034F38, symSize: 0x38 }
  - { offsetInCU: 0x3F3BF, offset: 0x3F3BF, size: 0x8, addend: 0x0, symName: __ZNSt3__113__unwrap_iterB8ue170006IPjNS_18__unwrap_iter_implIS1_Lb1EEELi0EEEDTclsrT0_8__unwrapclsr3stdE7declvalIT_EEEES5_, symObjAddr: 0x30CD8, symBinAddr: 0x100034F70, symSize: 0x24 }
  - { offsetInCU: 0x3F403, offset: 0x3F403, size: 0x8, addend: 0x0, symName: __ZNSt3__113__rewrap_iterB8ue170006IPjS1_NS_18__unwrap_iter_implIS1_Lb1EEEEET_S4_T0_, symObjAddr: 0x30CFC, symBinAddr: 0x100034F94, symSize: 0x3C }
  - { offsetInCU: 0x3F5A3, offset: 0x3F5A3, size: 0x8, addend: 0x0, symName: __ZNSt3__14copyB8ue170006IPjS1_EET0_T_S3_S2_, symObjAddr: 0x30E00, symBinAddr: 0x100035098, symSize: 0x40 }
  - { offsetInCU: 0x3F5FD, offset: 0x3F5FD, size: 0x8, addend: 0x0, symName: __ZNSt3__16__copyB8ue170006INS_17_ClassicAlgPolicyEPjS2_S2_EENS_4pairIT0_T2_EES4_T1_S5_, symObjAddr: 0x30E40, symBinAddr: 0x1000350D8, symSize: 0x44 }
  - { offsetInCU: 0x3F669, offset: 0x3F669, size: 0x8, addend: 0x0, symName: __ZNSt3__123__dispatch_copy_or_moveB8ue170006INS_17_ClassicAlgPolicyENS_11__copy_loopIS1_EENS_14__copy_trivialEPjS5_S5_EENS_4pairIT2_T4_EES7_T3_S8_, symObjAddr: 0x30E84, symBinAddr: 0x10003511C, symSize: 0x44 }
  - { offsetInCU: 0x3F6E7, offset: 0x3F6E7, size: 0x8, addend: 0x0, symName: __ZNSt3__121__unwrap_and_dispatchB8ue170006INS_10__overloadINS_11__copy_loopINS_17_ClassicAlgPolicyEEENS_14__copy_trivialEEEPjS7_S7_Li0EEENS_4pairIT0_T2_EES9_T1_SA_, symObjAddr: 0x30EC8, symBinAddr: 0x100035160, symSize: 0xB4 }
  - { offsetInCU: 0x3F775, offset: 0x3F775, size: 0x8, addend: 0x0, symName: __ZNSt3__19make_pairB8ue170006IPjS1_EENS_4pairINS_18__unwrap_ref_decayIT_E4typeENS3_IT0_E4typeEEEOS4_OS7_, symObjAddr: 0x30FC4, symBinAddr: 0x10003525C, symSize: 0x38 }
  - { offsetInCU: 0x3F7C4, offset: 0x3F7C4, size: 0x8, addend: 0x0, symName: __ZNSt3__114__rewrap_rangeB8ue170006IPjS1_S1_EET0_S2_T1_, symObjAddr: 0x30FFC, symBinAddr: 0x100035294, symSize: 0x2C }
  - { offsetInCU: 0x3F819, offset: 0x3F819, size: 0x8, addend: 0x0, symName: __ZNSt3__119__copy_trivial_implB8ue170006IjjEENS_4pairIPT_PT0_EES3_S3_S5_, symObjAddr: 0x31028, symBinAddr: 0x1000352C0, symSize: 0x80 }
  - { offsetInCU: 0x3F881, offset: 0x3F881, size: 0x8, addend: 0x0, symName: __ZNSt3__119__constexpr_memmoveB8ue170006IjjLi0EEEPT_S2_PT0_NS_15__element_countE, symObjAddr: 0x310A8, symBinAddr: 0x100035340, symSize: 0x64 }
  - { offsetInCU: 0x3F8EF, offset: 0x3F8EF, size: 0x8, addend: 0x0, symName: __ZNSt3__19make_pairB8ue170006IRPjS1_EENS_4pairINS_18__unwrap_ref_decayIT_E4typeENS4_IT0_E4typeEEEOS5_OS8_, symObjAddr: 0x3110C, symBinAddr: 0x1000353A4, symSize: 0x38 }
  - { offsetInCU: 0x3F991, offset: 0x3F991, size: 0x8, addend: 0x0, symName: __ZNSt3__122__make_exception_guardB8ue170006INS_6vectorIN7tinyobj5tag_tENS_9allocatorIS3_EEE16__destroy_vectorEEENS_28__exception_guard_exceptionsIT_EES9_, symObjAddr: 0x315DC, symBinAddr: 0x100035874, symSize: 0x40 }
  - { offsetInCU: 0x3F9C6, offset: 0x3F9C6, size: 0x8, addend: 0x0, symName: __ZNSt3__119__allocate_at_leastB8ue170006INS_9allocatorIN7tinyobj7shape_tEEEEENS_19__allocation_resultINS_16allocator_traitsIT_E7pointerEEERS7_m, symObjAddr: 0x31D9C, symBinAddr: 0x100036034, symSize: 0x40 }
  - { offsetInCU: 0x3FA09, offset: 0x3FA09, size: 0x8, addend: 0x0, symName: __ZNSt3__142__uninitialized_allocator_move_if_noexceptB8ue170006INS_9allocatorIN7tinyobj7shape_tEEENS_16reverse_iteratorIPS3_EES7_S7_EET2_RT_T0_T1_S8_, symObjAddr: 0x32044, symBinAddr: 0x1000362DC, symSize: 0x12C }
  - { offsetInCU: 0x3FAA9, offset: 0x3FAA9, size: 0x8, addend: 0x0, symName: __ZNSt3__14swapB8ue170006IPN7tinyobj7shape_tEEENS_9enable_ifIXaasr21is_move_constructibleIT_EE5valuesr18is_move_assignableIS5_EE5valueEvE4typeERS5_S8_, symObjAddr: 0x321BC, symBinAddr: 0x100036454, symSize: 0x3C }
  - { offsetInCU: 0x3FAFA, offset: 0x3FAFA, size: 0x8, addend: 0x0, symName: __ZNSt3__122__make_exception_guardB8ue170006INS_29_AllocatorDestroyRangeReverseINS_9allocatorIN7tinyobj7shape_tEEENS_16reverse_iteratorIPS4_EEEEEENS_28__exception_guard_exceptionsIT_EESB_, symObjAddr: 0x322C0, symBinAddr: 0x100036558, symSize: 0x4C }
  - { offsetInCU: 0x3FB30, offset: 0x3FB30, size: 0x8, addend: 0x0, symName: __ZNSt3__1neB8ue170006IPN7tinyobj7shape_tES3_EEbRKNS_16reverse_iteratorIT_EERKNS4_IT0_EE, symObjAddr: 0x32350, symBinAddr: 0x1000365E8, symSize: 0x48 }
  - { offsetInCU: 0x3FB7C, offset: 0x3FB7C, size: 0x8, addend: 0x0, symName: __ZNSt3__112__to_addressB8ue170006INS_16reverse_iteratorIPN7tinyobj7shape_tEEEvEEu7__decayIDTclsr19__to_address_helperIT_EE6__callclsr3stdE7declvalIRKS6_EEEEES8_, symObjAddr: 0x323C8, symBinAddr: 0x100036660, symSize: 0x24 }
  - { offsetInCU: 0x3FBB2, offset: 0x3FBB2, size: 0x8, addend: 0x0, symName: __ZNSt3__112construct_atB8ue170006IN7tinyobj7shape_tEJS2_EPS2_EEPT_S5_DpOT0_, symObjAddr: 0x32518, symBinAddr: 0x1000367B0, symSize: 0x3C }
  - { offsetInCU: 0x3FC4E, offset: 0x3FC4E, size: 0x8, addend: 0x0, symName: __ZNSt3__14prevB8ue170006IPN7tinyobj7shape_tEEENS_9enable_ifIXsr29__has_input_iterator_categoryIT_EE5valueES5_E4typeES5_NS_15iterator_traitsIS5_E15difference_typeE, symObjAddr: 0x32BD8, symBinAddr: 0x100036E70, symSize: 0x3C }
  - { offsetInCU: 0x3FC92, offset: 0x3FC92, size: 0x8, addend: 0x0, symName: __ZNSt3__19__advanceB8ue170006IPN7tinyobj7shape_tEEEvRT_NS_15iterator_traitsIS4_E15difference_typeENS_26random_access_iterator_tagE, symObjAddr: 0x32C4C, symBinAddr: 0x100036EE4, symSize: 0x30 }
  - { offsetInCU: 0x3FCDC, offset: 0x3FCDC, size: 0x8, addend: 0x0, symName: __ZNSt3__119__allocator_destroyB8ue170006INS_9allocatorIN7tinyobj7shape_tEEENS_16reverse_iteratorINS5_IPS3_EEEES8_EEvRT_T0_T1_, symObjAddr: 0x32D80, symBinAddr: 0x100037018, symSize: 0x70 }
  - { offsetInCU: 0x3FD41, offset: 0x3FD41, size: 0x8, addend: 0x0, symName: __ZNSt3__1neB8ue170006INS_16reverse_iteratorIPN7tinyobj7shape_tEEES5_EEbRKNS1_IT_EERKNS1_IT0_EE, symObjAddr: 0x32E2C, symBinAddr: 0x1000370C4, symSize: 0x60 }
  - { offsetInCU: 0x3FD8D, offset: 0x3FD8D, size: 0x8, addend: 0x0, symName: __ZNSt3__112__to_addressB8ue170006INS_16reverse_iteratorINS1_IPN7tinyobj7shape_tEEEEEvEEu7__decayIDTclsr19__to_address_helperIT_EE6__callclsr3stdE7declvalIRKS7_EEEEES9_, symObjAddr: 0x32E8C, symBinAddr: 0x100037124, symSize: 0x24 }
  - { offsetInCU: 0x3FDED, offset: 0x3FDED, size: 0x8, addend: 0x0, symName: __ZNSt3__14prevB8ue170006INS_16reverse_iteratorIPN7tinyobj7shape_tEEEEENS_9enable_ifIXsr29__has_input_iterator_categoryIT_EE5valueES7_E4typeES7_NS_15iterator_traitsIS7_E15difference_typeE, symObjAddr: 0x32F88, symBinAddr: 0x100037220, symSize: 0x4C }
  - { offsetInCU: 0x3FE30, offset: 0x3FE30, size: 0x8, addend: 0x0, symName: __ZNSt3__19__advanceB8ue170006INS_16reverse_iteratorIPN7tinyobj7shape_tEEEEEvRT_NS_15iterator_traitsIS6_E15difference_typeENS_26random_access_iterator_tagE, symObjAddr: 0x3300C, symBinAddr: 0x1000372A4, symSize: 0x2C }
  - { offsetInCU: 0x3FE79, offset: 0x3FE79, size: 0x8, addend: 0x0, symName: __ZNSt3__112construct_atB8ue170006IiJEPiEEPT_S3_DpOT0_, symObjAddr: 0x34290, symBinAddr: 0x100038528, symSize: 0x20 }
  - { offsetInCU: 0x3FED7, offset: 0x3FED7, size: 0x8, addend: 0x0, symName: __ZNSt3__112construct_atB8ue170006IfJEPfEEPT_S3_DpOT0_, symObjAddr: 0x34628, symBinAddr: 0x1000388C0, symSize: 0x24 }
  - { offsetInCU: 0x3FF35, offset: 0x3FF35, size: 0x8, addend: 0x0, symName: __ZNSt3__112construct_atB8ue170006INS_12basic_stringIcNS_11char_traitsIcEENS_9allocatorIcEEEEJEPS6_EEPT_S9_DpOT0_, symObjAddr: 0x349C4, symBinAddr: 0x100038C5C, symSize: 0x34 }
  - { offsetInCU: 0x3FF93, offset: 0x3FF93, size: 0x8, addend: 0x0, symName: __ZNSt3__112construct_atB8ue170006IN7tinyobj5tag_tEJRKS2_EPS2_EEPT_S7_DpOT0_, symObjAddr: 0x34C64, symBinAddr: 0x100038EFC, symSize: 0x3C }
  - { offsetInCU: 0x40005, offset: 0x40005, size: 0x8, addend: 0x0, symName: __ZNSt3__142__uninitialized_allocator_move_if_noexceptB8ue170006INS_9allocatorIN7tinyobj5tag_tEEENS_16reverse_iteratorIPS3_EES7_S7_EET2_RT_T0_T1_S8_, symObjAddr: 0x35058, symBinAddr: 0x1000392F0, symSize: 0x124 }
  - { offsetInCU: 0x400A5, offset: 0x400A5, size: 0x8, addend: 0x0, symName: __ZNSt3__14swapB8ue170006IPN7tinyobj5tag_tEEENS_9enable_ifIXaasr21is_move_constructibleIT_EE5valuesr18is_move_assignableIS5_EE5valueEvE4typeERS5_S8_, symObjAddr: 0x3517C, symBinAddr: 0x100039414, symSize: 0x3C }
  - { offsetInCU: 0x400F6, offset: 0x400F6, size: 0x8, addend: 0x0, symName: __ZNSt3__122__make_exception_guardB8ue170006INS_29_AllocatorDestroyRangeReverseINS_9allocatorIN7tinyobj5tag_tEEENS_16reverse_iteratorIPS4_EEEEEENS_28__exception_guard_exceptionsIT_EESB_, symObjAddr: 0x351B8, symBinAddr: 0x100039450, symSize: 0x4C }
  - { offsetInCU: 0x4012C, offset: 0x4012C, size: 0x8, addend: 0x0, symName: __ZNSt3__112construct_atB8ue170006IN7tinyobj5tag_tEJS2_EPS2_EEPT_S5_DpOT0_, symObjAddr: 0x35384, symBinAddr: 0x10003961C, symSize: 0x3C }
  - { offsetInCU: 0x4019F, offset: 0x4019F, size: 0x8, addend: 0x0, symName: __ZNSt3__119__allocator_destroyB8ue170006INS_9allocatorIN7tinyobj5tag_tEEENS_16reverse_iteratorINS5_IPS3_EEEES8_EEvRT_T0_T1_, symObjAddr: 0x35758, symBinAddr: 0x1000399F0, symSize: 0x70 }
  - { offsetInCU: 0x40204, offset: 0x40204, size: 0x8, addend: 0x0, symName: __ZNSt3__1neB8ue170006INS_16reverse_iteratorIPN7tinyobj5tag_tEEES5_EEbRKNS1_IT_EERKNS1_IT0_EE, symObjAddr: 0x35804, symBinAddr: 0x100039A9C, symSize: 0x60 }
  - { offsetInCU: 0x40250, offset: 0x40250, size: 0x8, addend: 0x0, symName: __ZNSt3__112__to_addressB8ue170006INS_16reverse_iteratorINS1_IPN7tinyobj5tag_tEEEEEvEEu7__decayIDTclsr19__to_address_helperIT_EE6__callclsr3stdE7declvalIRKS7_EEEEES9_, symObjAddr: 0x35864, symBinAddr: 0x100039AFC, symSize: 0x24 }
  - { offsetInCU: 0x402B0, offset: 0x402B0, size: 0x8, addend: 0x0, symName: __ZNSt3__14prevB8ue170006INS_16reverse_iteratorIPN7tinyobj5tag_tEEEEENS_9enable_ifIXsr29__has_input_iterator_categoryIT_EE5valueES7_E4typeES7_NS_15iterator_traitsIS7_E15difference_typeE, symObjAddr: 0x35960, symBinAddr: 0x100039BF8, symSize: 0x4C }
  - { offsetInCU: 0x402F3, offset: 0x402F3, size: 0x8, addend: 0x0, symName: __ZNSt3__19__advanceB8ue170006INS_16reverse_iteratorIPN7tinyobj5tag_tEEEEEvRT_NS_15iterator_traitsIS6_E15difference_typeENS_26random_access_iterator_tagE, symObjAddr: 0x359E4, symBinAddr: 0x100039C7C, symSize: 0x2C }
  - { offsetInCU: 0x4033D, offset: 0x4033D, size: 0x8, addend: 0x0, symName: __ZNSt3__116__swap_allocatorB8ue170006INS_9allocatorIfEEEEvRT_S4_NS_17integral_constantIbLb0EEE, symObjAddr: 0x35CC8, symBinAddr: 0x100039F60, symSize: 0x14 }
  - { offsetInCU: 0x4037F, offset: 0x4037F, size: 0x8, addend: 0x0, symName: __ZNSt3__116__swap_allocatorB8ue170006INS_9allocatorIN7tinyobj13skin_weight_tEEEEEvRT_S6_NS_17integral_constantIbLb0EEE, symObjAddr: 0x35CDC, symBinAddr: 0x100039F74, symSize: 0x14 }
  - { offsetInCU: 0x403E7, offset: 0x403E7, size: 0x8, addend: 0x0, symName: __ZNSt3__112construct_atB8ue170006IN7tinyobj7index_tEJRKS2_EPS2_EEPT_S7_DpOT0_, symObjAddr: 0x369AC, symBinAddr: 0x10003AC44, symSize: 0x34 }
  - { offsetInCU: 0x40459, offset: 0x40459, size: 0x8, addend: 0x0, symName: __ZNSt3__142__uninitialized_allocator_move_if_noexceptB8ue170006INS_9allocatorIN7tinyobj7index_tEEENS_16reverse_iteratorIPS3_EES7_S3_vEET1_RT_T0_SB_S8_, symObjAddr: 0x36E4C, symBinAddr: 0x10003B0E4, symSize: 0x78 }
  - { offsetInCU: 0x404D7, offset: 0x404D7, size: 0x8, addend: 0x0, symName: __ZNSt3__14swapB8ue170006IPN7tinyobj7index_tEEENS_9enable_ifIXaasr21is_move_constructibleIT_EE5valuesr18is_move_assignableIS5_EE5valueEvE4typeERS5_S8_, symObjAddr: 0x36F10, symBinAddr: 0x10003B1A8, symSize: 0x3C }
  - { offsetInCU: 0x40528, offset: 0x40528, size: 0x8, addend: 0x0, symName: __ZNSt3__14moveB8ue170006INS_16reverse_iteratorIPN7tinyobj7index_tEEES5_EET0_T_S7_S6_, symObjAddr: 0x36F4C, symBinAddr: 0x10003B1E4, symSize: 0x78 }
  - { offsetInCU: 0x40582, offset: 0x40582, size: 0x8, addend: 0x0, symName: __ZNSt3__16__moveB8ue170006INS_17_ClassicAlgPolicyENS_16reverse_iteratorIPN7tinyobj7index_tEEES6_S6_EENS_4pairIT0_T2_EES8_T1_S9_, symObjAddr: 0x36FC4, symBinAddr: 0x10003B25C, symSize: 0x64 }
  - { offsetInCU: 0x405EE, offset: 0x405EE, size: 0x8, addend: 0x0, symName: __ZNSt3__123__dispatch_copy_or_moveB8ue170006INS_17_ClassicAlgPolicyENS_11__move_loopIS1_EENS_14__move_trivialENS_16reverse_iteratorIPN7tinyobj7index_tEEES9_S9_EENS_4pairIT2_T4_EESB_T3_SC_, symObjAddr: 0x37028, symBinAddr: 0x10003B2C0, symSize: 0x64 }
  - { offsetInCU: 0x4066C, offset: 0x4066C, size: 0x8, addend: 0x0, symName: __ZNSt3__121__unwrap_and_dispatchB8ue170006INS_10__overloadINS_11__move_loopINS_17_ClassicAlgPolicyEEENS_14__move_trivialEEENS_16reverse_iteratorIPN7tinyobj7index_tEEESB_SB_Li0EEENS_4pairIT0_T2_EESD_T1_SE_, symObjAddr: 0x3708C, symBinAddr: 0x10003B324, symSize: 0x12C }
  - { offsetInCU: 0x406FC, offset: 0x406FC, size: 0x8, addend: 0x0, symName: __ZNSt3__114__unwrap_rangeB8ue170006INS_16reverse_iteratorIPN7tinyobj7index_tEEES5_EEDaT_T0_, symObjAddr: 0x371B8, symBinAddr: 0x10003B450, symSize: 0x4C }
  - { offsetInCU: 0x4081C, offset: 0x4081C, size: 0x8, addend: 0x0, symName: __ZNSt3__113__unwrap_iterB8ue170006INS_16reverse_iteratorIPN7tinyobj7index_tEEENS_18__unwrap_iter_implIS5_Lb0EEELi0EEEDTclsrT0_8__unwrapclsr3stdE7declvalIT_EEEES9_, symObjAddr: 0x372AC, symBinAddr: 0x10003B544, symSize: 0x44 }
  - { offsetInCU: 0x40860, offset: 0x40860, size: 0x8, addend: 0x0, symName: __ZNSt3__19make_pairB8ue170006INS_16reverse_iteratorIPN7tinyobj7index_tEEES5_EENS_4pairINS_18__unwrap_ref_decayIT_E4typeENS7_IT0_E4typeEEEOS8_OSB_, symObjAddr: 0x372F0, symBinAddr: 0x10003B588, symSize: 0x38 }
  - { offsetInCU: 0x408AF, offset: 0x408AF, size: 0x8, addend: 0x0, symName: __ZNSt3__114__rewrap_rangeB8ue170006INS_16reverse_iteratorIPN7tinyobj7index_tEEES5_S5_EET0_S6_T1_, symObjAddr: 0x37328, symBinAddr: 0x10003B5C0, symSize: 0x5C }
  - { offsetInCU: 0x40904, offset: 0x40904, size: 0x8, addend: 0x0, symName: __ZNSt3__113__rewrap_iterB8ue170006INS_16reverse_iteratorIPN7tinyobj7index_tEEES5_NS_18__unwrap_iter_implIS5_Lb0EEEEET_S8_T0_, symObjAddr: 0x37384, symBinAddr: 0x10003B61C, symSize: 0x74 }
  - { offsetInCU: 0x409A9, offset: 0x409A9, size: 0x8, addend: 0x0, symName: __ZNSt3__1neB8ue170006IPN7tinyobj7index_tES3_EEbRKNS_16reverse_iteratorIT_EERKNS4_IT0_EE, symObjAddr: 0x374EC, symBinAddr: 0x10003B784, symSize: 0x48 }
  - { offsetInCU: 0x40A62, offset: 0x40A62, size: 0x8, addend: 0x0, symName: __ZNSt3__120__throw_out_of_rangeB8ue170006EPKc, symObjAddr: 0x37884, symBinAddr: 0x10003BB1C, symSize: 0x64 }
  - { offsetInCU: 0x40A8B, offset: 0x40A8B, size: 0x8, addend: 0x0, symName: __ZNSt3__112__to_addressB8ue170006IPKcEEPT_S4_, symObjAddr: 0x37F74, symBinAddr: 0x10003C20C, symSize: 0x14 }
  - { offsetInCU: 0x40AE7, offset: 0x40AE7, size: 0x8, addend: 0x0, symName: __ZNSt3__112construct_atB8ue170006IPKcJEPS2_EEPT_S5_DpOT0_, symObjAddr: 0x37FF8, symBinAddr: 0x10003C290, symSize: 0x20 }
  - { offsetInCU: 0x40B45, offset: 0x40B45, size: 0x8, addend: 0x0, symName: __ZNSt3__119__allocate_at_leastB8ue170006INS_9allocatorIPKcEEEENS_19__allocation_resultINS_16allocator_traitsIT_E7pointerEEERS7_m, symObjAddr: 0x38324, symBinAddr: 0x10003C5BC, symSize: 0x40 }
  - { offsetInCU: 0x40B88, offset: 0x40B88, size: 0x8, addend: 0x0, symName: __ZNSt3__142__uninitialized_allocator_move_if_noexceptB8ue170006INS_9allocatorIPKcEENS_16reverse_iteratorIPS3_EES7_S3_vEET1_RT_T0_SB_S8_, symObjAddr: 0x3865C, symBinAddr: 0x10003C8F4, symSize: 0x78 }
  - { offsetInCU: 0x40C06, offset: 0x40C06, size: 0x8, addend: 0x0, symName: __ZNSt3__14swapB8ue170006IPPKcEENS_9enable_ifIXaasr21is_move_constructibleIT_EE5valuesr18is_move_assignableIS5_EE5valueEvE4typeERS5_S8_, symObjAddr: 0x38720, symBinAddr: 0x10003C9B8, symSize: 0x3C }
  - { offsetInCU: 0x40C57, offset: 0x40C57, size: 0x8, addend: 0x0, symName: __ZNSt3__14moveB8ue170006INS_16reverse_iteratorIPPKcEES5_EET0_T_S7_S6_, symObjAddr: 0x38850, symBinAddr: 0x10003CAE8, symSize: 0x78 }
  - { offsetInCU: 0x40CB1, offset: 0x40CB1, size: 0x8, addend: 0x0, symName: __ZNSt3__16__moveB8ue170006INS_17_ClassicAlgPolicyENS_16reverse_iteratorIPPKcEES6_S6_EENS_4pairIT0_T2_EES8_T1_S9_, symObjAddr: 0x388C8, symBinAddr: 0x10003CB60, symSize: 0x64 }
  - { offsetInCU: 0x40D1D, offset: 0x40D1D, size: 0x8, addend: 0x0, symName: __ZNSt3__123__dispatch_copy_or_moveB8ue170006INS_17_ClassicAlgPolicyENS_11__move_loopIS1_EENS_14__move_trivialENS_16reverse_iteratorIPPKcEES9_S9_EENS_4pairIT2_T4_EESB_T3_SC_, symObjAddr: 0x3892C, symBinAddr: 0x10003CBC4, symSize: 0x64 }
  - { offsetInCU: 0x40D9B, offset: 0x40D9B, size: 0x8, addend: 0x0, symName: __ZNSt3__121__unwrap_and_dispatchB8ue170006INS_10__overloadINS_11__move_loopINS_17_ClassicAlgPolicyEEENS_14__move_trivialEEENS_16reverse_iteratorIPPKcEESB_SB_Li0EEENS_4pairIT0_T2_EESD_T1_SE_, symObjAddr: 0x38990, symBinAddr: 0x10003CC28, symSize: 0x12C }
  - { offsetInCU: 0x40E2B, offset: 0x40E2B, size: 0x8, addend: 0x0, symName: __ZNSt3__114__unwrap_rangeB8ue170006INS_16reverse_iteratorIPPKcEES5_EEDaT_T0_, symObjAddr: 0x38ABC, symBinAddr: 0x10003CD54, symSize: 0x4C }
  - { offsetInCU: 0x40F4B, offset: 0x40F4B, size: 0x8, addend: 0x0, symName: __ZNSt3__113__unwrap_iterB8ue170006INS_16reverse_iteratorIPPKcEENS_18__unwrap_iter_implIS5_Lb0EEELi0EEEDTclsrT0_8__unwrapclsr3stdE7declvalIT_EEEES9_, symObjAddr: 0x38BA8, symBinAddr: 0x10003CE40, symSize: 0x44 }
  - { offsetInCU: 0x40F8F, offset: 0x40F8F, size: 0x8, addend: 0x0, symName: __ZNSt3__19make_pairB8ue170006INS_16reverse_iteratorIPPKcEES5_EENS_4pairINS_18__unwrap_ref_decayIT_E4typeENS7_IT0_E4typeEEEOS8_OSB_, symObjAddr: 0x38BEC, symBinAddr: 0x10003CE84, symSize: 0x38 }
  - { offsetInCU: 0x40FDE, offset: 0x40FDE, size: 0x8, addend: 0x0, symName: __ZNSt3__114__rewrap_rangeB8ue170006INS_16reverse_iteratorIPPKcEES5_S5_EET0_S6_T1_, symObjAddr: 0x38C24, symBinAddr: 0x10003CEBC, symSize: 0x5C }
  - { offsetInCU: 0x41033, offset: 0x41033, size: 0x8, addend: 0x0, symName: __ZNSt3__113__rewrap_iterB8ue170006INS_16reverse_iteratorIPPKcEES5_NS_18__unwrap_iter_implIS5_Lb0EEEEET_S8_T0_, symObjAddr: 0x38C80, symBinAddr: 0x10003CF18, symSize: 0x74 }
  - { offsetInCU: 0x410D8, offset: 0x410D8, size: 0x8, addend: 0x0, symName: __ZNSt3__1neB8ue170006IPPKcS3_EEbRKNS_16reverse_iteratorIT_EERKNS4_IT0_EE, symObjAddr: 0x38DE8, symBinAddr: 0x10003D080, symSize: 0x48 }
  - { offsetInCU: 0x41190, offset: 0x41190, size: 0x8, addend: 0x0, symName: __ZNSt3__110destroy_atB8ue170006IPKcLi0EEEvPT_, symObjAddr: 0x39174, symBinAddr: 0x10003D40C, symSize: 0x24 }
  - { offsetInCU: 0x411C8, offset: 0x411C8, size: 0x8, addend: 0x0, symName: __ZNSt3__112__destroy_atB8ue170006IPKcLi0EEEvPT_, symObjAddr: 0x39198, symBinAddr: 0x10003D430, symSize: 0x10 }
  - { offsetInCU: 0x411FF, offset: 0x411FF, size: 0x8, addend: 0x0, symName: __ZNSt3__118__str_find_last_ofB8ue170006IcmNS_11char_traitsIcEELm18446744073709551615EEET0_PKT_S3_S6_S3_S3_, symObjAddr: 0x396FC, symBinAddr: 0x10003D994, symSize: 0xFC }
  - { offsetInCU: 0x412D1, offset: 0x412D1, size: 0x8, addend: 0x0, symName: __ZNSt3__1eqB8ue170006IPN7tinyobj7shape_tEEEbRKNS_11__wrap_iterIT_EES8_, symObjAddr: 0x39B28, symBinAddr: 0x10003DDC0, symSize: 0x48 }
  - { offsetInCU: 0x41314, offset: 0x41314, size: 0x8, addend: 0x0, symName: __ZNSt3__1eqB8ue170006IPKN7tinyobj7index_tEEEbRKNS_11__wrap_iterIT_EES9_, symObjAddr: 0x39C0C, symBinAddr: 0x10003DEA4, symSize: 0x48 }
  - { offsetInCU: 0x41357, offset: 0x41357, size: 0x8, addend: 0x0, symName: __ZNSt3__112construct_atB8ue170006IjJjEPjEEPT_S3_DpOT0_, symObjAddr: 0x39E04, symBinAddr: 0x10003E09C, symSize: 0x2C }
  - { offsetInCU: 0x413D2, offset: 0x413D2, size: 0x8, addend: 0x0, symName: __ZNSt3__17launderB8ue170006IKNS_4pairIKNS_12basic_stringIcNS_11char_traitsIcEENS_9allocatorIcEEEEiEEEEPT_SC_, symObjAddr: 0x3B098, symBinAddr: 0x10003F330, symSize: 0x24 }
  - { offsetInCU: 0x4140A, offset: 0x4140A, size: 0x8, addend: 0x0, symName: __ZNSt3__19__launderB8ue170006IKNS_4pairIKNS_12basic_stringIcNS_11char_traitsIcEENS_9allocatorIcEEEEiEEEEPT_SC_, symObjAddr: 0x3B0BC, symBinAddr: 0x10003F354, symSize: 0x14 }
  - { offsetInCU: 0x41485, offset: 0x41485, size: 0x8, addend: 0x0, symName: __ZNSt3__112construct_atB8ue170006INS_4pairIKNS_12basic_stringIcNS_11char_traitsIcEENS_9allocatorIcEEEEiEEJNS1_IS7_iEEEPS9_EEPT_SD_DpOT0_, symObjAddr: 0x3B470, symBinAddr: 0x10003F708, symSize: 0x3C }
  - { offsetInCU: 0x414F7, offset: 0x414F7, size: 0x8, addend: 0x0, symName: __ZNSt3__17launderB8ue170006INS_4pairIKNS_12basic_stringIcNS_11char_traitsIcEENS_9allocatorIcEEEEiEEEEPT_SB_, symObjAddr: 0x3B544, symBinAddr: 0x10003F7DC, symSize: 0x24 }
  - { offsetInCU: 0x4152F, offset: 0x4152F, size: 0x8, addend: 0x0, symName: __ZNSt3__19__launderB8ue170006INS_4pairIKNS_12basic_stringIcNS_11char_traitsIcEENS_9allocatorIcEEEEiEEEEPT_SB_, symObjAddr: 0x3B568, symBinAddr: 0x10003F800, symSize: 0x14 }
  - { offsetInCU: 0x41565, offset: 0x41565, size: 0x8, addend: 0x0, symName: __ZNSt3__110destroy_atB8ue170006INS_4pairIKNS_12basic_stringIcNS_11char_traitsIcEENS_9allocatorIcEEEEiEELi0EEEvPT_, symObjAddr: 0x3B824, symBinAddr: 0x10003FABC, symSize: 0x24 }
  - { offsetInCU: 0x4159C, offset: 0x4159C, size: 0x8, addend: 0x0, symName: __ZNSt3__112__destroy_atB8ue170006INS_4pairIKNS_12basic_stringIcNS_11char_traitsIcEENS_9allocatorIcEEEEiEELi0EEEvPT_, symObjAddr: 0x3B848, symBinAddr: 0x10003FAE0, symSize: 0x24 }
  - { offsetInCU: 0x415D3, offset: 0x415D3, size: 0x8, addend: 0x0, symName: __ZNSt3__116__pad_and_outputB8ue170006IcNS_11char_traitsIcEEEENS_19ostreambuf_iteratorIT_T0_EES6_PKS4_S8_S8_RNS_8ios_baseES4_, symObjAddr: 0x3BC08, symBinAddr: 0x10003FEA0, symSize: 0x240 }
  - { offsetInCU: 0x416A2, offset: 0x416A2, size: 0x8, addend: 0x0, symName: __ZNSt3__19use_facetB8ue170006INS_5ctypeIcEEEERKT_RKNS_6localeE, symObjAddr: 0x3C14C, symBinAddr: 0x1000403E4, symSize: 0x2C }
  - { offsetInCU: 0x41B6F, offset: 0x41B6F, size: 0x8, addend: 0x0, symName: __ZNSt3__112construct_atB8ue170006INS_4pairIKNS_12basic_stringIcNS_11char_traitsIcEENS_9allocatorIcEEEES7_EEJNS1_IS7_S7_EEEPS9_EEPT_SD_DpOT0_, symObjAddr: 0x3C4CC, symBinAddr: 0x100040764, symSize: 0x3C }
  - { offsetInCU: 0x41BE1, offset: 0x41BE1, size: 0x8, addend: 0x0, symName: __ZNSt3__110to_addressB8ue170006IcEEDaPT_, symObjAddr: 0x3C8DC, symBinAddr: 0x100040B74, symSize: 0x24 }
  - { offsetInCU: 0x41C16, offset: 0x41C16, size: 0x8, addend: 0x0, symName: __ZNSt3__1neB8ue170006ERKNS_15__tree_iteratorINS_12__value_typeINS_12basic_stringIcNS_11char_traitsIcEENS_9allocatorIcEEEEiEEPNS_11__tree_nodeIS8_PvEElEESF_, symObjAddr: 0x3D59C, symBinAddr: 0x100041834, symSize: 0x34 }
  - { offsetInCU: 0x41C54, offset: 0x41C54, size: 0x8, addend: 0x0, symName: __ZNSt3__1eqB8ue170006ERKNS_15__tree_iteratorINS_12__value_typeINS_12basic_stringIcNS_11char_traitsIcEENS_9allocatorIcEEEEiEEPNS_11__tree_nodeIS8_PvEElEESF_, symObjAddr: 0x3D680, symBinAddr: 0x100041918, symSize: 0x30 }
  - { offsetInCU: 0x41C90, offset: 0x41C90, size: 0x8, addend: 0x0, symName: __ZNSt3__1neB8ue170006ERKNS_21__tree_const_iteratorINS_12__value_typeINS_12basic_stringIcNS_11char_traitsIcEENS_9allocatorIcEEEEiEEPNS_11__tree_nodeIS8_PvEElEESF_, symObjAddr: 0x3D758, symBinAddr: 0x1000419F0, symSize: 0x34 }
  - { offsetInCU: 0x41CCE, offset: 0x41CCE, size: 0x8, addend: 0x0, symName: __ZNSt3__1eqB8ue170006ERKNS_21__tree_const_iteratorINS_12__value_typeINS_12basic_stringIcNS_11char_traitsIcEENS_9allocatorIcEEEEiEEPNS_11__tree_nodeIS8_PvEElEESF_, symObjAddr: 0x3D78C, symBinAddr: 0x100041A24, symSize: 0x30 }
  - { offsetInCU: 0x42EE9, offset: 0x42EE9, size: 0x8, addend: 0x0, symName: __ZSt28__throw_bad_array_new_lengthB8ue170006v, symObjAddr: 0xF500, symBinAddr: 0x100013798, symSize: 0x34 }
  - { offsetInCU: 0x430B4, offset: 0x430B4, size: 0x8, addend: 0x0, symName: _indices, symObjAddr: 0x1DC960, symBinAddr: 0x10004C040, symSize: 0x0 }
  - { offsetInCU: 0x43239, offset: 0x43239, size: 0x8, addend: 0x0, symName: __ZN7tinyobjL14tryParseDoubleEPKcS1_Pd, symObjAddr: 0xE66C, symBinAddr: 0x100012904, symSize: 0x678 }
  - { offsetInCU: 0x43265, offset: 0x43265, size: 0x8, addend: 0x0, symName: __ZZN7tinyobjL14tryParseDoubleEPKcS1_PdE7pow_lut, symObjAddr: 0x40DB8, symBinAddr: 0x100045D40, symSize: 0x0 }
  - { offsetInCU: 0x43C6D, offset: 0x43C6D, size: 0x8, addend: 0x0, symName: __ZN7tinyobj25ParseTextureNameAndOptionEPNSt3__112basic_stringIcNS0_11char_traitsIcEENS0_9allocatorIcEEEEPNS_16texture_option_tEPKc, symObjAddr: 0x34, symBinAddr: 0x1000042CC, symSize: 0xA28 }
  - { offsetInCU: 0x43D07, offset: 0x43D07, size: 0x8, addend: 0x0, symName: __ZN7tinyobjL10parseOnOffEPPKcb, symObjAddr: 0xA88, symBinAddr: 0x100004D20, symSize: 0x110 }
  - { offsetInCU: 0x43D63, offset: 0x43D63, size: 0x8, addend: 0x0, symName: __ZN7tinyobjL9parseRealEPPKcd, symObjAddr: 0xB98, symBinAddr: 0x100004E30, symSize: 0xA8 }
  - { offsetInCU: 0x43DCE, offset: 0x43DCE, size: 0x8, addend: 0x0, symName: __ZN7tinyobjL10parseReal3EPfS0_S0_PPKcddd, symObjAddr: 0xC40, symBinAddr: 0x100004ED8, symSize: 0x70 }
  - { offsetInCU: 0x43E53, offset: 0x43E53, size: 0x8, addend: 0x0, symName: __ZN7tinyobjL16parseTextureTypeEPPKcNS_14texture_type_tE, symObjAddr: 0xCB0, symBinAddr: 0x100004F48, symSize: 0x228 }
  - { offsetInCU: 0x43EAF, offset: 0x43EAF, size: 0x8, addend: 0x0, symName: __ZN7tinyobjL8parseIntEPPKc, symObjAddr: 0xED8, symBinAddr: 0x100005170, symSize: 0x78 }
  - { offsetInCU: 0x43EED, offset: 0x43EED, size: 0x8, addend: 0x0, symName: __ZN7tinyobjL10parseReal2EPfS0_PPKcdd, symObjAddr: 0xF50, symBinAddr: 0x1000051E8, symSize: 0x54 }
  - { offsetInCU: 0x43F54, offset: 0x43F54, size: 0x8, addend: 0x0, symName: __ZN7tinyobjL11parseStringEPPKc, symObjAddr: 0xFA4, symBinAddr: 0x10000523C, symSize: 0x134 }
  - { offsetInCU: 0x43FA2, offset: 0x43FA2, size: 0x8, addend: 0x0, symName: __ZN7tinyobj7LoadMtlEPNSt3__13mapINS0_12basic_stringIcNS0_11char_traitsIcEENS0_9allocatorIcEEEEiNS0_4lessIS7_EENS5_INS0_4pairIKS7_iEEEEEEPNS0_6vectorINS_10material_tENS5_ISH_EEEEPNS0_13basic_istreamIcS4_EEPS7_SO_, symObjAddr: 0x1164, symBinAddr: 0x1000053FC, symSize: 0x1B18 }
  - { offsetInCU: 0x44221, offset: 0x44221, size: 0x8, addend: 0x0, symName: __ZN7tinyobjL12InitMaterialEPNS_10material_tE, symObjAddr: 0x2CA8, symBinAddr: 0x100006F40, symSize: 0x308 }
  - { offsetInCU: 0x44269, offset: 0x44269, size: 0x8, addend: 0x0, symName: __ZN7tinyobjL11safeGetlineERNSt3__113basic_istreamIcNS0_11char_traitsIcEEEERNS0_12basic_stringIcS3_NS0_9allocatorIcEEEE, symObjAddr: 0x30B4, symBinAddr: 0x10000734C, symSize: 0x158 }
  - { offsetInCU: 0x44368, offset: 0x44368, size: 0x8, addend: 0x0, symName: __ZN7tinyobjL8JoinPathERKNSt3__112basic_stringIcNS0_11char_traitsIcEENS0_9allocatorIcEEEES8_, symObjAddr: 0x418C, symBinAddr: 0x100008424, symSize: 0x128 }
  - { offsetInCU: 0x44440, offset: 0x44440, size: 0x8, addend: 0x0, symName: __ZN7tinyobj7LoadObjEPNS_8attrib_tEPNSt3__16vectorINS_7shape_tENS2_9allocatorIS4_EEEEPNS3_INS_10material_tENS5_IS9_EEEEPNS2_12basic_stringIcNS2_11char_traitsIcEENS5_IcEEEESI_PKcSK_bb, symObjAddr: 0x469C, symBinAddr: 0x100008934, symSize: 0x354 }
  - { offsetInCU: 0x4454D, offset: 0x4454D, size: 0x8, addend: 0x0, symName: __ZN7tinyobj7LoadObjEPNS_8attrib_tEPNSt3__16vectorINS_7shape_tENS2_9allocatorIS4_EEEEPNS3_INS_10material_tENS5_IS9_EEEEPNS2_12basic_stringIcNS2_11char_traitsIcEENS5_IcEEEESI_PNS2_13basic_istreamIcSF_EEPNS_14MaterialReaderEbb, symObjAddr: 0x4AE0, symBinAddr: 0x100008D78, symSize: 0x2B68 }
  - { offsetInCU: 0x44CC1, offset: 0x44CC1, size: 0x8, addend: 0x0, symName: __ZN7tinyobjL20parseVertexWithColorEPfS0_S0_S0_S0_S0_PPKcddd, symObjAddr: 0x77A8, symBinAddr: 0x10000BA40, symSize: 0x168 }
  - { offsetInCU: 0x44DA4, offset: 0x44DA4, size: 0x8, addend: 0x0, symName: __ZN7tinyobjL11parseTripleEPPKciiiPNS_14vertex_index_tERKNS_15warning_contextE, symObjAddr: 0x7B04, symBinAddr: 0x10000BD9C, symSize: 0x330 }
  - { offsetInCU: 0x44E2D, offset: 0x44E2D, size: 0x8, addend: 0x0, symName: __ZN7tinyobjL8toStringImEENSt3__112basic_stringIcNS1_11char_traitsIcEENS1_9allocatorIcEEEERKT_, symObjAddr: 0x7EE0, symBinAddr: 0x10000C178, symSize: 0x9C }
  - { offsetInCU: 0x44E74, offset: 0x44E74, size: 0x8, addend: 0x0, symName: __ZN7tinyobjL19exportGroupsToShapeEPNS_7shape_tERKNS_9PrimGroupERKNSt3__16vectorINS_5tag_tENS5_9allocatorIS7_EEEEiRKNS5_12basic_stringIcNS5_11char_traitsIcEENS8_IcEEEEbRKNS6_IfNS8_IfEEEEPSH_, symObjAddr: 0x83F8, symBinAddr: 0x10000C690, symSize: 0x1948 }
  - { offsetInCU: 0x45659, offset: 0x45659, size: 0x8, addend: 0x0, symName: __ZN7tinyobjL11SplitStringERKNSt3__112basic_stringIcNS0_11char_traitsIcEENS0_9allocatorIcEEEEccRNS0_6vectorIS6_NS4_IS6_EEEE, symObjAddr: 0x9D84, symBinAddr: 0x10000E01C, symSize: 0x158 }
  - { offsetInCU: 0x456F9, offset: 0x456F9, size: 0x8, addend: 0x0, symName: __ZN7tinyobjL14parseTagTripleEPPKc, symObjAddr: 0xA118, symBinAddr: 0x10000E3B0, symSize: 0x1A0 }
  - { offsetInCU: 0x45736, offset: 0x45736, size: 0x8, addend: 0x0, symName: __ZN7tinyobj19LoadObjWithCallbackERNSt3__113basic_istreamIcNS0_11char_traitsIcEEEERKNS_10callback_tEPvPNS_14MaterialReaderEPNS0_12basic_stringIcS3_NS0_9allocatorIcEEEESG_, symObjAddr: 0xA76C, symBinAddr: 0x10000EA04, symSize: 0x131C }
  - { offsetInCU: 0x45AE7, offset: 0x45AE7, size: 0x8, addend: 0x0, symName: __ZN7tinyobjL14parseRawTripleEPPKc, symObjAddr: 0xBC38, symBinAddr: 0x10000FED0, symSize: 0x1E8 }
  - { offsetInCU: 0x45D58, offset: 0x45D58, size: 0x8, addend: 0x0, symName: __ZN7tinyobjL10InitTexOptEPNS_16texture_option_tEb, symObjAddr: 0x10024, symBinAddr: 0x1000142BC, symSize: 0xE8 }
  - { offsetInCU: 0x45D92, offset: 0x45D92, size: 0x8, addend: 0x0, symName: __ZN7tinyobjL9parseRealEPPKcPf, symObjAddr: 0x19B68, symBinAddr: 0x10001DE00, symSize: 0xCC }
  - { offsetInCU: 0x45E1A, offset: 0x45E1A, size: 0x8, addend: 0x0, symName: __ZN7tinyobjL8fixIndexEiiPibRKNS_15warning_contextE, symObjAddr: 0x1F2F0, symBinAddr: 0x100023588, symSize: 0x234 }
  - { offsetInCU: 0x45E85, offset: 0x45E85, size: 0x8, addend: 0x0, symName: __ZN7tinyobjL6pnpolyIfEEiiPT_S2_S1_S1_, symObjAddr: 0x26A14, symBinAddr: 0x10002ACAC, symSize: 0x144 }
  - { offsetInCU: 0x468C3, offset: 0x468C3, size: 0x8, addend: 0x0, symName: __Z3powB8ue170006IdiENSt3__19enable_ifIXaasr3std13is_arithmeticIT_EE5valuesr3std13is_arithmeticIT0_EE5valueENS0_9__promoteIS2_S3_vEEE4type4typeES2_S3_, symObjAddr: 0xECE4, symBinAddr: 0x100012F7C, symSize: 0x38 }
  - { offsetInCU: 0x4703B, offset: 0x4703B, size: 0x8, addend: 0x0, symName: __ZNSt3__16vectorIN7tinyobj10material_tENS_9allocatorIS2_EEE26__swap_out_circular_bufferERNS_14__split_bufferIS2_RS4_EE, symObjAddr: 0x13D28, symBinAddr: 0x100017FC0, symSize: 0x110 }
  - { offsetInCU: 0x47245, offset: 0x47245, size: 0x8, addend: 0x0, symName: __ZNSt3__16vectorINS_12basic_stringIcNS_11char_traitsIcEENS_9allocatorIcEEEENS4_IS6_EEE26__swap_out_circular_bufferERNS_14__split_bufferIS6_RS7_EE, symObjAddr: 0x16090, symBinAddr: 0x10001A328, symSize: 0x110 }
  - { offsetInCU: 0x478CF, offset: 0x478CF, size: 0x8, addend: 0x0, symName: __ZNSt3__16vectorIfNS_9allocatorIfEEE26__swap_out_circular_bufferERNS_14__split_bufferIfRS2_EE, symObjAddr: 0x1A01C, symBinAddr: 0x10001E2B4, symSize: 0x110 }
  - { offsetInCU: 0x47A9C, offset: 0x47A9C, size: 0x8, addend: 0x0, symName: __ZNSt3__16vectorIN7tinyobj18joint_and_weight_tENS_9allocatorIS2_EEE26__swap_out_circular_bufferERNS_14__split_bufferIS2_RS4_EE, symObjAddr: 0x1B73C, symBinAddr: 0x10001F9D4, symSize: 0x110 }
  - { offsetInCU: 0x47C79, offset: 0x47C79, size: 0x8, addend: 0x0, symName: __ZNSt3__16vectorIN7tinyobj13skin_weight_tENS_9allocatorIS2_EEE26__swap_out_circular_bufferERNS_14__split_bufferIS2_RS4_EE, symObjAddr: 0x1DB18, symBinAddr: 0x100021DB0, symSize: 0x110 }
  - { offsetInCU: 0x47E88, offset: 0x47E88, size: 0x8, addend: 0x0, symName: __ZNSt3__16vectorIN7tinyobj14vertex_index_tENS_9allocatorIS2_EEE26__swap_out_circular_bufferERNS_14__split_bufferIS2_RS4_EE, symObjAddr: 0x1F9E8, symBinAddr: 0x100023C80, symSize: 0x110 }
  - { offsetInCU: 0x48065, offset: 0x48065, size: 0x8, addend: 0x0, symName: __ZNSt3__16vectorIN7tinyobj8__line_tENS_9allocatorIS2_EEE26__swap_out_circular_bufferERNS_14__split_bufferIS2_RS4_EE, symObjAddr: 0x21E28, symBinAddr: 0x1000260C0, symSize: 0x110 }
  - { offsetInCU: 0x48260, offset: 0x48260, size: 0x8, addend: 0x0, symName: __ZNSt3__16vectorIN7tinyobj10__points_tENS_9allocatorIS2_EEE26__swap_out_circular_bufferERNS_14__split_bufferIS2_RS4_EE, symObjAddr: 0x2396C, symBinAddr: 0x100027C04, symSize: 0x110 }
  - { offsetInCU: 0x48460, offset: 0x48460, size: 0x8, addend: 0x0, symName: __ZNSt3__16vectorIN7tinyobj6face_tENS_9allocatorIS2_EEE26__swap_out_circular_bufferERNS_14__split_bufferIS2_RS4_EE, symObjAddr: 0x25364, symBinAddr: 0x1000295FC, symSize: 0x110 }
  - { offsetInCU: 0x484F4, offset: 0x484F4, size: 0x8, addend: 0x0, symName: __ZNSt3__16vectorIiNS_9allocatorIiEEE26__swap_out_circular_bufferERNS_14__split_bufferIiRS2_EE, symObjAddr: 0x27184, symBinAddr: 0x10002B41C, symSize: 0x110 }
  - { offsetInCU: 0x4854B, offset: 0x4854B, size: 0x8, addend: 0x0, symName: __ZNSt3__16vectorIjNS_9allocatorIjEEE26__swap_out_circular_bufferERNS_14__split_bufferIjRS2_EE, symObjAddr: 0x28814, symBinAddr: 0x10002CAAC, symSize: 0x110 }
  - { offsetInCU: 0x486C2, offset: 0x486C2, size: 0x8, addend: 0x0, symName: __ZNSt3__16vectorIN7tinyobj7shape_tENS_9allocatorIS2_EEE26__swap_out_circular_bufferERNS_14__split_bufferIS2_RS4_EE, symObjAddr: 0x31A40, symBinAddr: 0x100035CD8, symSize: 0x110 }
  - { offsetInCU: 0x48756, offset: 0x48756, size: 0x8, addend: 0x0, symName: __ZNSt3__16vectorIN7tinyobj5tag_tENS_9allocatorIS2_EEE26__swap_out_circular_bufferERNS_14__split_bufferIS2_RS4_EE, symObjAddr: 0x34CE4, symBinAddr: 0x100038F7C, symSize: 0x110 }
  - { offsetInCU: 0x487EA, offset: 0x487EA, size: 0x8, addend: 0x0, symName: __ZNSt3__16vectorIN7tinyobj7index_tENS_9allocatorIS2_EEE26__swap_out_circular_bufferERNS_14__split_bufferIS2_RS4_EE, symObjAddr: 0x36AD8, symBinAddr: 0x10003AD70, symSize: 0x110 }
  - { offsetInCU: 0x489B7, offset: 0x489B7, size: 0x8, addend: 0x0, symName: __ZNSt3__16vectorIPKcNS_9allocatorIS2_EEE26__swap_out_circular_bufferERNS_14__split_bufferIS2_RS4_EE, symObjAddr: 0x37D9C, symBinAddr: 0x10003C034, symSize: 0x110 }
  - { offsetInCU: 0x4B45E, offset: 0x4B45E, size: 0x8, addend: 0x0, symName: __ZN7tinyobj14MaterialReaderD2Ev, symObjAddr: 0x0, symBinAddr: 0x100004298, symSize: 0x14 }
  - { offsetInCU: 0x4B48A, offset: 0x4B48A, size: 0x8, addend: 0x0, symName: __ZN7tinyobj14MaterialReaderD1Ev, symObjAddr: 0x14, symBinAddr: 0x1000042AC, symSize: 0x14 }
  - { offsetInCU: 0x4B4B6, offset: 0x4B4B6, size: 0x8, addend: 0x0, symName: __ZN7tinyobj14MaterialReaderD0Ev, symObjAddr: 0x28, symBinAddr: 0x1000042C0, symSize: 0xC }
  - { offsetInCU: 0x4B4E2, offset: 0x4B4E2, size: 0x8, addend: 0x0, symName: __ZNSt3__112basic_stringIcNS_11char_traitsIcEENS_9allocatorIcEEEC1B8ue170006Ev, symObjAddr: 0xA5C, symBinAddr: 0x100004CF4, symSize: 0x2C }
  - { offsetInCU: 0x4B50C, offset: 0x4B50C, size: 0x8, addend: 0x0, symName: __ZNSt3__112basic_stringIcNS_11char_traitsIcEENS_9allocatorIcEEEaSB8ue170006EOS5_, symObjAddr: 0x10D8, symBinAddr: 0x100005370, symSize: 0x34 }
  - { offsetInCU: 0x4B546, offset: 0x4B546, size: 0x8, addend: 0x0, symName: __ZNSt3__112basic_stringIcNS_11char_traitsIcEENS_9allocatorIcEEEC1B8ue170006ILi0EEEPKc, symObjAddr: 0x110C, symBinAddr: 0x1000053A4, symSize: 0x34 }
  - { offsetInCU: 0x4B585, offset: 0x4B585, size: 0x8, addend: 0x0, symName: __ZNKSt3__112basic_stringIcNS_11char_traitsIcEENS_9allocatorIcEEE6lengthB8ue170006Ev, symObjAddr: 0x1140, symBinAddr: 0x1000053D8, symSize: 0x24 }
  - { offsetInCU: 0x4B5B0, offset: 0x4B5B0, size: 0x8, addend: 0x0, symName: __ZN7tinyobj10material_tC1Ev, symObjAddr: 0x2C7C, symBinAddr: 0x100006F14, symSize: 0x2C }
  - { offsetInCU: 0x4B6CC, offset: 0x4B6CC, size: 0x8, addend: 0x0, symName: __ZNSt3__118basic_stringstreamIcNS_11char_traitsIcEENS_9allocatorIcEEEC1B8ue170006Ev, symObjAddr: 0x2FB0, symBinAddr: 0x100007248, symSize: 0x104 }
  - { offsetInCU: 0x4B6F6, offset: 0x4B6F6, size: 0x8, addend: 0x0, symName: __ZNKSt3__112basic_stringIcNS_11char_traitsIcEENS_9allocatorIcEEE4sizeB8ue170006Ev, symObjAddr: 0x320C, symBinAddr: 0x1000074A4, symSize: 0x54 }
  - { offsetInCU: 0x4B71C, offset: 0x4B71C, size: 0x8, addend: 0x0, symName: __ZNKSt3__112basic_stringIcNS_11char_traitsIcEENS_9allocatorIcEEE6substrB8ue170006Emm, symObjAddr: 0x3260, symBinAddr: 0x1000074F8, symSize: 0x68 }
  - { offsetInCU: 0x4B760, offset: 0x4B760, size: 0x8, addend: 0x0, symName: __ZNKSt3__112basic_stringIcNS_11char_traitsIcEENS_9allocatorIcEEE16find_last_not_ofB8ue170006EPKcm, symObjAddr: 0x32C8, symBinAddr: 0x100007560, symSize: 0x74 }
  - { offsetInCU: 0x4B7A6, offset: 0x4B7A6, size: 0x8, addend: 0x0, symName: __ZNSt3__112basic_stringIcNS_11char_traitsIcEENS_9allocatorIcEEEixB8ue170006Em, symObjAddr: 0x333C, symBinAddr: 0x1000075D4, symSize: 0x30 }
  - { offsetInCU: 0x4B7DB, offset: 0x4B7DB, size: 0x8, addend: 0x0, symName: __ZNKSt3__112basic_stringIcNS_11char_traitsIcEENS_9allocatorIcEEE5emptyB8ue170006Ev, symObjAddr: 0x336C, symBinAddr: 0x100007604, symSize: 0x30 }
  - { offsetInCU: 0x4B801, offset: 0x4B801, size: 0x8, addend: 0x0, symName: __ZNKSt3__112basic_stringIcNS_11char_traitsIcEENS_9allocatorIcEEE5c_strB8ue170006Ev, symObjAddr: 0x339C, symBinAddr: 0x100007634, symSize: 0x24 }
  - { offsetInCU: 0x4B841, offset: 0x4B841, size: 0x8, addend: 0x0, symName: __ZNSt3__13mapINS_12basic_stringIcNS_11char_traitsIcEENS_9allocatorIcEEEEiNS_4lessIS6_EENS4_INS_4pairIKS6_iEEEEE6insertB8ue170006INS9_IS6_iEEvEENS9_INS_14__map_iteratorINS_15__tree_iteratorINS_12__value_typeIS6_iEEPNS_11__tree_nodeISJ_PvEElEEEEbEEOT_, symObjAddr: 0x33C0, symBinAddr: 0x100007658, symSize: 0x4C }
  - { offsetInCU: 0x4B880, offset: 0x4B880, size: 0x8, addend: 0x0, symName: __ZNKSt3__16vectorIN7tinyobj10material_tENS_9allocatorIS2_EEE4sizeB8ue170006Ev, symObjAddr: 0x340C, symBinAddr: 0x1000076A4, symSize: 0x28 }
  - { offsetInCU: 0x4B8AC, offset: 0x4B8AC, size: 0x8, addend: 0x0, symName: __ZNSt3__14pairINS_12basic_stringIcNS_11char_traitsIcEENS_9allocatorIcEEEEiEC1B8ue170006IRS6_iLPv0EEEOT_OT0_, symObjAddr: 0x3434, symBinAddr: 0x1000076CC, symSize: 0x3C }
  - { offsetInCU: 0x4B90A, offset: 0x4B90A, size: 0x8, addend: 0x0, symName: __ZNSt3__14pairINS_12basic_stringIcNS_11char_traitsIcEENS_9allocatorIcEEEEiED1Ev, symObjAddr: 0x3470, symBinAddr: 0x100007708, symSize: 0x2C }
  - { offsetInCU: 0x4B936, offset: 0x4B936, size: 0x8, addend: 0x0, symName: __ZNSt3__16vectorIN7tinyobj10material_tENS_9allocatorIS2_EEE9push_backB8ue170006ERKS2_, symObjAddr: 0x349C, symBinAddr: 0x100007734, symSize: 0x6C }
  - { offsetInCU: 0x4B96D, offset: 0x4B96D, size: 0x8, addend: 0x0, symName: __ZNSt3__112basic_stringIcNS_11char_traitsIcEENS_9allocatorIcEEEpLB8ue170006EPKc, symObjAddr: 0x3508, symBinAddr: 0x1000077A0, symSize: 0x2C }
  - { offsetInCU: 0x4B9A2, offset: 0x4B9A2, size: 0x8, addend: 0x0, symName: __ZNSt3__112basic_stringIcNS_11char_traitsIcEENS_9allocatorIcEEEaSB8ue170006EPKc, symObjAddr: 0x35C8, symBinAddr: 0x100007860, symSize: 0x2C }
  - { offsetInCU: 0x4B9D6, offset: 0x4B9D6, size: 0x8, addend: 0x0, symName: __Z6strchrB8ue170006Ua9enable_ifIXLb1EEEPKci, symObjAddr: 0x35F4, symBinAddr: 0x10000788C, symSize: 0x2C }
  - { offsetInCU: 0x4BA11, offset: 0x4BA11, size: 0x8, addend: 0x0, symName: __ZNSt3__112basic_stringIcNS_11char_traitsIcEENS_9allocatorIcEEEC1B8ue170006EPKcm, symObjAddr: 0x3620, symBinAddr: 0x1000078B8, symSize: 0x3C }
  - { offsetInCU: 0x4BA73, offset: 0x4BA73, size: 0x8, addend: 0x0, symName: __ZNSt3__13mapINS_12basic_stringIcNS_11char_traitsIcEENS_9allocatorIcEEEES6_NS_4lessIS6_EENS4_INS_4pairIKS6_S6_EEEEE6insertB8ue170006INS9_IS6_S6_EEvEENS9_INS_14__map_iteratorINS_15__tree_iteratorINS_12__value_typeIS6_S6_EEPNS_11__tree_nodeISJ_PvEElEEEEbEEOT_, symObjAddr: 0x365C, symBinAddr: 0x1000078F4, symSize: 0x4C }
  - { offsetInCU: 0x4BAB2, offset: 0x4BAB2, size: 0x8, addend: 0x0, symName: __ZNSt3__14pairINS_12basic_stringIcNS_11char_traitsIcEENS_9allocatorIcEEEES6_EC1B8ue170006IRS6_S9_LPv0EEEOT_OT0_, symObjAddr: 0x36A8, symBinAddr: 0x100007940, symSize: 0x3C }
  - { offsetInCU: 0x4BB10, offset: 0x4BB10, size: 0x8, addend: 0x0, symName: __ZNSt3__14pairINS_12basic_stringIcNS_11char_traitsIcEENS_9allocatorIcEEEES6_ED1Ev, symObjAddr: 0x36E4, symBinAddr: 0x10000797C, symSize: 0x2C }
  - { offsetInCU: 0x4BB3C, offset: 0x4BB3C, size: 0x8, addend: 0x0, symName: __ZNKRSt3__118basic_stringstreamIcNS_11char_traitsIcEENS_9allocatorIcEEE3strB8ue170006Ev, symObjAddr: 0x3710, symBinAddr: 0x1000079A8, symSize: 0x30 }
  - { offsetInCU: 0x4BB67, offset: 0x4BB67, size: 0x8, addend: 0x0, symName: __ZNSt3__118basic_stringstreamIcNS_11char_traitsIcEENS_9allocatorIcEEED1Ev, symObjAddr: 0x3740, symBinAddr: 0x1000079D8, symSize: 0x40 }
  - { offsetInCU: 0x4BB94, offset: 0x4BB94, size: 0x8, addend: 0x0, symName: __ZN7tinyobj10material_tD1Ev, symObjAddr: 0x3780, symBinAddr: 0x100007A18, symSize: 0x2C }
  - { offsetInCU: 0x4BBC5, offset: 0x4BBC5, size: 0x8, addend: 0x0, symName: __ZN7tinyobj18MaterialFileReaderclERKNSt3__112basic_stringIcNS1_11char_traitsIcEENS1_9allocatorIcEEEEPNS1_6vectorINS_10material_tENS5_ISB_EEEEPNS1_3mapIS7_iNS1_4lessIS7_EENS5_INS1_4pairIS8_iEEEEEEPS7_SN_, symObjAddr: 0x37AC, symBinAddr: 0x100007A44, symSize: 0x5C0 }
  - { offsetInCU: 0x4BD1E, offset: 0x4BD1E, size: 0x8, addend: 0x0, symName: __ZNSt3__16vectorINS_12basic_stringIcNS_11char_traitsIcEENS_9allocatorIcEEEENS4_IS6_EEEC1B8ue170006Ev, symObjAddr: 0x3D6C, symBinAddr: 0x100008004, symSize: 0x2C }
  - { offsetInCU: 0x4BD72, offset: 0x4BD72, size: 0x8, addend: 0x0, symName: __ZNSt3__119basic_istringstreamIcNS_11char_traitsIcEENS_9allocatorIcEEEC1B8ue170006ERKNS_12basic_stringIcS2_S4_EEj, symObjAddr: 0x3D98, symBinAddr: 0x100008030, symSize: 0xFC }
  - { offsetInCU: 0x4BDBA, offset: 0x4BDBA, size: 0x8, addend: 0x0, symName: __ZNKSt3__19basic_iosIcNS_11char_traitsIcEEEcvbB8ue170006Ev, symObjAddr: 0x40CC, symBinAddr: 0x100008364, symSize: 0x2C }
  - { offsetInCU: 0x4BDE0, offset: 0x4BDE0, size: 0x8, addend: 0x0, symName: __ZNSt3__16vectorINS_12basic_stringIcNS_11char_traitsIcEENS_9allocatorIcEEEENS4_IS6_EEE9push_backB8ue170006ERKS6_, symObjAddr: 0x40F8, symBinAddr: 0x100008390, symSize: 0x6C }
  - { offsetInCU: 0x4BE17, offset: 0x4BE17, size: 0x8, addend: 0x0, symName: __ZNKSt3__16vectorINS_12basic_stringIcNS_11char_traitsIcEENS_9allocatorIcEEEENS4_IS6_EEE4sizeB8ue170006Ev, symObjAddr: 0x4164, symBinAddr: 0x1000083FC, symSize: 0x28 }
  - { offsetInCU: 0x4BE3D, offset: 0x4BE3D, size: 0x8, addend: 0x0, symName: __ZNSt3__16vectorINS_12basic_stringIcNS_11char_traitsIcEENS_9allocatorIcEEEENS4_IS6_EEEixB8ue170006Em, symObjAddr: 0x42B4, symBinAddr: 0x10000854C, symSize: 0x2C }
  - { offsetInCU: 0x4BF10, offset: 0x4BF10, size: 0x8, addend: 0x0, symName: __ZNSt3__114basic_ifstreamIcNS_11char_traitsIcEEEC1EPKcj, symObjAddr: 0x42E0, symBinAddr: 0x100008578, symSize: 0x16C }
  - { offsetInCU: 0x4BF5F, offset: 0x4BF5F, size: 0x8, addend: 0x0, symName: __ZNSt3__114basic_ifstreamIcNS_11char_traitsIcEEED1Ev, symObjAddr: 0x444C, symBinAddr: 0x1000086E4, symSize: 0x40 }
  - { offsetInCU: 0x4BF8C, offset: 0x4BF8C, size: 0x8, addend: 0x0, symName: __ZNSt3__112basic_stringIcNS_11char_traitsIcEENS_9allocatorIcEEEpLB8ue170006ERKS5_, symObjAddr: 0x448C, symBinAddr: 0x100008724, symSize: 0x2C }
  - { offsetInCU: 0x4BFC6, offset: 0x4BFC6, size: 0x8, addend: 0x0, symName: __ZNSt3__119basic_istringstreamIcNS_11char_traitsIcEENS_9allocatorIcEEED1Ev, symObjAddr: 0x44B8, symBinAddr: 0x100008750, symSize: 0x40 }
  - { offsetInCU: 0x4BFF3, offset: 0x4BFF3, size: 0x8, addend: 0x0, symName: __ZNSt3__16vectorINS_12basic_stringIcNS_11char_traitsIcEENS_9allocatorIcEEEENS4_IS6_EEED1B8ue170006Ev, symObjAddr: 0x44F8, symBinAddr: 0x100008790, symSize: 0x2C }
  - { offsetInCU: 0x4C027, offset: 0x4C027, size: 0x8, addend: 0x0, symName: __ZN7tinyobj20MaterialStreamReaderclERKNSt3__112basic_stringIcNS1_11char_traitsIcEENS1_9allocatorIcEEEEPNS1_6vectorINS_10material_tENS5_ISB_EEEEPNS1_3mapIS7_iNS1_4lessIS7_EENS5_INS1_4pairIS8_iEEEEEEPS7_SN_, symObjAddr: 0x4524, symBinAddr: 0x1000087BC, symSize: 0x150 }
  - { offsetInCU: 0x4C0B9, offset: 0x4C0B9, size: 0x8, addend: 0x0, symName: __ZNKSt3__19basic_iosIcNS_11char_traitsIcEEEntB8ue170006Ev, symObjAddr: 0x4674, symBinAddr: 0x10000890C, symSize: 0x28 }
  - { offsetInCU: 0x4C0DF, offset: 0x4C0DF, size: 0x8, addend: 0x0, symName: __ZNSt3__16vectorIfNS_9allocatorIfEEE5clearB8ue170006Ev, symObjAddr: 0x49F0, symBinAddr: 0x100008C88, symSize: 0x44 }
  - { offsetInCU: 0x4C114, offset: 0x4C114, size: 0x8, addend: 0x0, symName: __ZNSt3__16vectorIN7tinyobj7shape_tENS_9allocatorIS2_EEE5clearB8ue170006Ev, symObjAddr: 0x4A34, symBinAddr: 0x100008CCC, symSize: 0x44 }
  - { offsetInCU: 0x4C149, offset: 0x4C149, size: 0x8, addend: 0x0, symName: __ZNSt3__112basic_stringIcNS_11char_traitsIcEENS_9allocatorIcEEEpLB8ue170006Ec, symObjAddr: 0x4A78, symBinAddr: 0x100008D10, symSize: 0x34 }
  - { offsetInCU: 0x4C17E, offset: 0x4C17E, size: 0x8, addend: 0x0, symName: __ZN7tinyobj18MaterialFileReaderC1ERKNSt3__112basic_stringIcNS1_11char_traitsIcEENS1_9allocatorIcEEEE, symObjAddr: 0x4AAC, symBinAddr: 0x100008D44, symSize: 0x34 }
  - { offsetInCU: 0x4C1B7, offset: 0x4C1B7, size: 0x8, addend: 0x0, symName: __ZN7tinyobj18MaterialFileReaderD1Ev, symObjAddr: 0x7648, symBinAddr: 0x10000B8E0, symSize: 0x2C }
  - { offsetInCU: 0x4C1E1, offset: 0x4C1E1, size: 0x8, addend: 0x0, symName: __ZNSt3__16vectorIfNS_9allocatorIfEEEC1B8ue170006Ev, symObjAddr: 0x7674, symBinAddr: 0x10000B90C, symSize: 0x2C }
  - { offsetInCU: 0x4C20B, offset: 0x4C20B, size: 0x8, addend: 0x0, symName: __ZNSt3__16vectorIN7tinyobj13skin_weight_tENS_9allocatorIS2_EEEC1B8ue170006Ev, symObjAddr: 0x76A0, symBinAddr: 0x10000B938, symSize: 0x2C }
  - { offsetInCU: 0x4C235, offset: 0x4C235, size: 0x8, addend: 0x0, symName: __ZNSt3__16vectorIN7tinyobj5tag_tENS_9allocatorIS2_EEEC1B8ue170006Ev, symObjAddr: 0x76CC, symBinAddr: 0x10000B964, symSize: 0x2C }
  - { offsetInCU: 0x4C26E, offset: 0x4C26E, size: 0x8, addend: 0x0, symName: __ZN7tinyobj9PrimGroupC1Ev, symObjAddr: 0x76F8, symBinAddr: 0x10000B990, symSize: 0x2C }
  - { offsetInCU: 0x4C3AE, offset: 0x4C3AE, size: 0x8, addend: 0x0, symName: __ZNSt3__13setINS_12basic_stringIcNS_11char_traitsIcEENS_9allocatorIcEEEENS_4lessIS6_EENS4_IS6_EEEC1B8ue170006Ev, symObjAddr: 0x7724, symBinAddr: 0x10000B9BC, symSize: 0x2C }
  - { offsetInCU: 0x4C3D8, offset: 0x4C3D8, size: 0x8, addend: 0x0, symName: __ZNSt3__13mapINS_12basic_stringIcNS_11char_traitsIcEENS_9allocatorIcEEEEiNS_4lessIS6_EENS4_INS_4pairIKS6_iEEEEEC1B8ue170006Ev, symObjAddr: 0x7750, symBinAddr: 0x10000B9E8, symSize: 0x2C }
  - { offsetInCU: 0x4C407, offset: 0x4C407, size: 0x8, addend: 0x0, symName: __ZN7tinyobj7shape_tC1Ev, symObjAddr: 0x777C, symBinAddr: 0x10000BA14, symSize: 0x2C }
  - { offsetInCU: 0x4C434, offset: 0x4C434, size: 0x8, addend: 0x0, symName: __ZNSt3__16vectorIfNS_9allocatorIfEEE9push_backB8ue170006ERKf, symObjAddr: 0x7910, symBinAddr: 0x10000BBA8, symSize: 0x6C }
  - { offsetInCU: 0x4C470, offset: 0x4C470, size: 0x8, addend: 0x0, symName: __ZN7tinyobj13skin_weight_tC1Ev, symObjAddr: 0x797C, symBinAddr: 0x10000BC14, symSize: 0x2C }
  - { offsetInCU: 0x4C49D, offset: 0x4C49D, size: 0x8, addend: 0x0, symName: __ZNSt3__16vectorIN7tinyobj18joint_and_weight_tENS_9allocatorIS2_EEE9push_backB8ue170006ERKS2_, symObjAddr: 0x79A8, symBinAddr: 0x10000BC40, symSize: 0x6C }
  - { offsetInCU: 0x4C4D4, offset: 0x4C4D4, size: 0x8, addend: 0x0, symName: __ZNSt3__16vectorIN7tinyobj13skin_weight_tENS_9allocatorIS2_EEE9push_backB8ue170006ERKS2_, symObjAddr: 0x7A14, symBinAddr: 0x10000BCAC, symSize: 0x6C }
  - { offsetInCU: 0x4C50B, offset: 0x4C50B, size: 0x8, addend: 0x0, symName: __ZN7tinyobj13skin_weight_tD1Ev, symObjAddr: 0x7A80, symBinAddr: 0x10000BD18, symSize: 0x2C }
  - { offsetInCU: 0x4C53D, offset: 0x4C53D, size: 0x8, addend: 0x0, symName: __ZN7tinyobj8__line_tC1Ev, symObjAddr: 0x7AAC, symBinAddr: 0x10000BD44, symSize: 0x2C }
  - { offsetInCU: 0x4C56A, offset: 0x4C56A, size: 0x8, addend: 0x0, symName: __ZN7tinyobj14vertex_index_tC1Ev, symObjAddr: 0x7AD8, symBinAddr: 0x10000BD70, symSize: 0x2C }
  - { offsetInCU: 0x4C594, offset: 0x4C594, size: 0x8, addend: 0x0, symName: __ZNKSt3__16vectorIfNS_9allocatorIfEEE4sizeB8ue170006Ev, symObjAddr: 0x7E34, symBinAddr: 0x10000C0CC, symSize: 0x28 }
  - { offsetInCU: 0x4C5BA, offset: 0x4C5BA, size: 0x8, addend: 0x0, symName: __ZNSt3__16vectorIN7tinyobj14vertex_index_tENS_9allocatorIS2_EEE9push_backB8ue170006ERKS2_, symObjAddr: 0x7F7C, symBinAddr: 0x10000C214, symSize: 0x6C }
  - { offsetInCU: 0x4C5F1, offset: 0x4C5F1, size: 0x8, addend: 0x0, symName: __ZNSt3__16vectorIN7tinyobj8__line_tENS_9allocatorIS2_EEE9push_backB8ue170006ERKS2_, symObjAddr: 0x7FE8, symBinAddr: 0x10000C280, symSize: 0x6C }
  - { offsetInCU: 0x4C628, offset: 0x4C628, size: 0x8, addend: 0x0, symName: __ZN7tinyobj8__line_tD1Ev, symObjAddr: 0x8054, symBinAddr: 0x10000C2EC, symSize: 0x2C }
  - { offsetInCU: 0x4C65A, offset: 0x4C65A, size: 0x8, addend: 0x0, symName: __ZN7tinyobj10__points_tC1Ev, symObjAddr: 0x8080, symBinAddr: 0x10000C318, symSize: 0x2C }
  - { offsetInCU: 0x4C687, offset: 0x4C687, size: 0x8, addend: 0x0, symName: __ZNSt3__16vectorIN7tinyobj10__points_tENS_9allocatorIS2_EEE9push_backB8ue170006ERKS2_, symObjAddr: 0x80AC, symBinAddr: 0x10000C344, symSize: 0x6C }
  - { offsetInCU: 0x4C6BE, offset: 0x4C6BE, size: 0x8, addend: 0x0, symName: __ZN7tinyobj10__points_tD1Ev, symObjAddr: 0x8118, symBinAddr: 0x10000C3B0, symSize: 0x2C }
  - { offsetInCU: 0x4C6EB, offset: 0x4C6EB, size: 0x8, addend: 0x0, symName: __ZN7tinyobj6face_tC1Ev, symObjAddr: 0x8144, symBinAddr: 0x10000C3DC, symSize: 0x2C }
  - { offsetInCU: 0x4C715, offset: 0x4C715, size: 0x8, addend: 0x0, symName: __ZNSt3__16vectorIN7tinyobj14vertex_index_tENS_9allocatorIS2_EEE7reserveEm, symObjAddr: 0x8170, symBinAddr: 0x10000C408, symSize: 0xE8 }
  - { offsetInCU: 0x4C771, offset: 0x4C771, size: 0x8, addend: 0x0, symName: __ZNSt3__16vectorIN7tinyobj6face_tENS_9allocatorIS2_EEE9push_backB8ue170006ERKS2_, symObjAddr: 0x8258, symBinAddr: 0x10000C4F0, symSize: 0x6C }
  - { offsetInCU: 0x4C7A8, offset: 0x4C7A8, size: 0x8, addend: 0x0, symName: __ZN7tinyobj6face_tD1Ev, symObjAddr: 0x82C4, symBinAddr: 0x10000C55C, symSize: 0x2C }
  - { offsetInCU: 0x4C7D5, offset: 0x4C7D5, size: 0x8, addend: 0x0, symName: __ZNSt3__13mapINS_12basic_stringIcNS_11char_traitsIcEENS_9allocatorIcEEEEiNS_4lessIS6_EENS4_INS_4pairIKS6_iEEEEE4findB8ue170006ERSA_, symObjAddr: 0x82F0, symBinAddr: 0x10000C588, symSize: 0x40 }
  - { offsetInCU: 0x4C80A, offset: 0x4C80A, size: 0x8, addend: 0x0, symName: __ZNSt3__120__map_const_iteratorINS_21__tree_const_iteratorINS_12__value_typeINS_12basic_stringIcNS_11char_traitsIcEENS_9allocatorIcEEEEiEEPNS_11__tree_nodeIS9_PvEElEEEC1B8ue170006ENS_14__map_iteratorINS_15__tree_iteratorIS9_SD_lEEEE, symObjAddr: 0x8330, symBinAddr: 0x10000C5C8, symSize: 0x34 }
  - { offsetInCU: 0x4C843, offset: 0x4C843, size: 0x8, addend: 0x0, symName: __ZNSt3__13mapINS_12basic_stringIcNS_11char_traitsIcEENS_9allocatorIcEEEEiNS_4lessIS6_EENS4_INS_4pairIKS6_iEEEEE3endB8ue170006Ev, symObjAddr: 0x8394, symBinAddr: 0x10000C62C, symSize: 0x38 }
  - { offsetInCU: 0x4C869, offset: 0x4C869, size: 0x8, addend: 0x0, symName: __ZNKSt3__120__map_const_iteratorINS_21__tree_const_iteratorINS_12__value_typeINS_12basic_stringIcNS_11char_traitsIcEENS_9allocatorIcEEEEiEEPNS_11__tree_nodeIS9_PvEElEEEptB8ue170006Ev, symObjAddr: 0x83CC, symBinAddr: 0x10000C664, symSize: 0x2C }
  - { offsetInCU: 0x4C88F, offset: 0x4C88F, size: 0x8, addend: 0x0, symName: __ZNSt3__16vectorIN7tinyobj6face_tENS_9allocatorIS2_EEE5clearB8ue170006Ev, symObjAddr: 0x9D40, symBinAddr: 0x10000DFD8, symSize: 0x44 }
  - { offsetInCU: 0x4C8C4, offset: 0x4C8C4, size: 0x8, addend: 0x0, symName: __ZNKSt3__16vectorINS_12basic_stringIcNS_11char_traitsIcEENS_9allocatorIcEEEENS4_IS6_EEE5emptyB8ue170006Ev, symObjAddr: 0x9EDC, symBinAddr: 0x10000E174, symSize: 0x28 }
  - { offsetInCU: 0x4C8EA, offset: 0x4C8EA, size: 0x8, addend: 0x0, symName: __ZNKSt3__13setINS_12basic_stringIcNS_11char_traitsIcEENS_9allocatorIcEEEENS_4lessIS6_EENS4_IS6_EEE5countB8ue170006ERKS6_, symObjAddr: 0x9F04, symBinAddr: 0x10000E19C, symSize: 0x2C }
  - { offsetInCU: 0x4C91F, offset: 0x4C91F, size: 0x8, addend: 0x0, symName: __ZNSt3__13setINS_12basic_stringIcNS_11char_traitsIcEENS_9allocatorIcEEEENS_4lessIS6_EENS4_IS6_EEE6insertB8ue170006ERKS6_, symObjAddr: 0x9F30, symBinAddr: 0x10000E1C8, symSize: 0x4C }
  - { offsetInCU: 0x4C954, offset: 0x4C954, size: 0x8, addend: 0x0, symName: __ZNKSt3__16vectorIN7tinyobj7index_tENS_9allocatorIS2_EEE4sizeB8ue170006Ev, symObjAddr: 0x9F7C, symBinAddr: 0x10000E214, symSize: 0x28 }
  - { offsetInCU: 0x4C97A, offset: 0x4C97A, size: 0x8, addend: 0x0, symName: __ZNSt3__16vectorIN7tinyobj7shape_tENS_9allocatorIS2_EEE9push_backB8ue170006ERKS2_, symObjAddr: 0x9FA4, symBinAddr: 0x10000E23C, symSize: 0x6C }
  - { offsetInCU: 0x4C9B7, offset: 0x4C9B7, size: 0x8, addend: 0x0, symName: __ZN7tinyobj7shape_taSEOS0_, symObjAddr: 0xA010, symBinAddr: 0x10000E2A8, symSize: 0x70 }
  - { offsetInCU: 0x4C9E9, offset: 0x4C9E9, size: 0x8, addend: 0x0, symName: __ZN7tinyobj7shape_tD1Ev, symObjAddr: 0xA080, symBinAddr: 0x10000E318, symSize: 0x2C }
  - { offsetInCU: 0x4CA16, offset: 0x4CA16, size: 0x8, addend: 0x0, symName: __ZN7tinyobj9PrimGroup5clearEv, symObjAddr: 0xA0AC, symBinAddr: 0x10000E344, symSize: 0x40 }
  - { offsetInCU: 0x4CA41, offset: 0x4CA41, size: 0x8, addend: 0x0, symName: __ZN7tinyobj5tag_tC1Ev, symObjAddr: 0xA0EC, symBinAddr: 0x10000E384, symSize: 0x2C }
  - { offsetInCU: 0x4CA6E, offset: 0x4CA6E, size: 0x8, addend: 0x0, symName: __ZNSt3__16vectorIiNS_9allocatorIiEEE6resizeEm, symObjAddr: 0xA2B8, symBinAddr: 0x10000E550, symSize: 0x94 }
  - { offsetInCU: 0x4CAB4, offset: 0x4CAB4, size: 0x8, addend: 0x0, symName: __ZNSt3__16vectorIiNS_9allocatorIiEEEixB8ue170006Em, symObjAddr: 0xA34C, symBinAddr: 0x10000E5E4, symSize: 0x24 }
  - { offsetInCU: 0x4CAEB, offset: 0x4CAEB, size: 0x8, addend: 0x0, symName: __ZNSt3__16vectorIfNS_9allocatorIfEEE6resizeEm, symObjAddr: 0xA370, symBinAddr: 0x10000E608, symSize: 0x94 }
  - { offsetInCU: 0x4CB31, offset: 0x4CB31, size: 0x8, addend: 0x0, symName: __ZNSt3__16vectorIfNS_9allocatorIfEEEixB8ue170006Em, symObjAddr: 0xA404, symBinAddr: 0x10000E69C, symSize: 0x24 }
  - { offsetInCU: 0x4CB68, offset: 0x4CB68, size: 0x8, addend: 0x0, symName: __ZNSt3__16vectorINS_12basic_stringIcNS_11char_traitsIcEENS_9allocatorIcEEEENS4_IS6_EEE6resizeEm, symObjAddr: 0xA428, symBinAddr: 0x10000E6C0, symSize: 0x9C }
  - { offsetInCU: 0x4CBAE, offset: 0x4CBAE, size: 0x8, addend: 0x0, symName: __ZNSt3__16vectorIN7tinyobj5tag_tENS_9allocatorIS2_EEE9push_backB8ue170006ERKS2_, symObjAddr: 0xA4C4, symBinAddr: 0x10000E75C, symSize: 0x6C }
  - { offsetInCU: 0x4CBE5, offset: 0x4CBE5, size: 0x8, addend: 0x0, symName: __ZN7tinyobj5tag_tD1Ev, symObjAddr: 0xA530, symBinAddr: 0x10000E7C8, symSize: 0x2C }
  - { offsetInCU: 0x4CC12, offset: 0x4CC12, size: 0x8, addend: 0x0, symName: __ZNSt3__16vectorIfNS_9allocatorIfEEE4swapERS3_, symObjAddr: 0xA55C, symBinAddr: 0x10000E7F4, symSize: 0x84 }
  - { offsetInCU: 0x4CC49, offset: 0x4CC49, size: 0x8, addend: 0x0, symName: __ZNSt3__16vectorIN7tinyobj13skin_weight_tENS_9allocatorIS2_EEE4swapERS5_, symObjAddr: 0xA5E0, symBinAddr: 0x10000E878, symSize: 0x84 }
  - { offsetInCU: 0x4CC80, offset: 0x4CC80, size: 0x8, addend: 0x0, symName: __ZNSt3__13mapINS_12basic_stringIcNS_11char_traitsIcEENS_9allocatorIcEEEEiNS_4lessIS6_EENS4_INS_4pairIKS6_iEEEEED1B8ue170006Ev, symObjAddr: 0xA664, symBinAddr: 0x10000E8FC, symSize: 0x2C }
  - { offsetInCU: 0x4CCAA, offset: 0x4CCAA, size: 0x8, addend: 0x0, symName: __ZNSt3__13setINS_12basic_stringIcNS_11char_traitsIcEENS_9allocatorIcEEEENS_4lessIS6_EENS4_IS6_EEED1B8ue170006Ev, symObjAddr: 0xA690, symBinAddr: 0x10000E928, symSize: 0x2C }
  - { offsetInCU: 0x4CCD4, offset: 0x4CCD4, size: 0x8, addend: 0x0, symName: __ZN7tinyobj9PrimGroupD1Ev, symObjAddr: 0xA6BC, symBinAddr: 0x10000E954, symSize: 0x2C }
  - { offsetInCU: 0x4CD01, offset: 0x4CD01, size: 0x8, addend: 0x0, symName: __ZNSt3__16vectorIN7tinyobj5tag_tENS_9allocatorIS2_EEED1B8ue170006Ev, symObjAddr: 0xA6E8, symBinAddr: 0x10000E980, symSize: 0x2C }
  - { offsetInCU: 0x4CD2B, offset: 0x4CD2B, size: 0x8, addend: 0x0, symName: __ZNSt3__16vectorIN7tinyobj13skin_weight_tENS_9allocatorIS2_EEED1B8ue170006Ev, symObjAddr: 0xA714, symBinAddr: 0x10000E9AC, symSize: 0x2C }
  - { offsetInCU: 0x4CD55, offset: 0x4CD55, size: 0x8, addend: 0x0, symName: __ZNSt3__16vectorIfNS_9allocatorIfEEED1B8ue170006Ev, symObjAddr: 0xA740, symBinAddr: 0x10000E9D8, symSize: 0x2C }
  - { offsetInCU: 0x4CD7F, offset: 0x4CD7F, size: 0x8, addend: 0x0, symName: __ZNSt3__16vectorIN7tinyobj7index_tENS_9allocatorIS2_EEEC1B8ue170006Ev, symObjAddr: 0xBA88, symBinAddr: 0x10000FD20, symSize: 0x2C }
  - { offsetInCU: 0x4CDA9, offset: 0x4CDA9, size: 0x8, addend: 0x0, symName: __ZNSt3__16vectorIN7tinyobj10material_tENS_9allocatorIS2_EEEC1B8ue170006Ev, symObjAddr: 0xBAB4, symBinAddr: 0x10000FD4C, symSize: 0x2C }
  - { offsetInCU: 0x4CDD3, offset: 0x4CDD3, size: 0x8, addend: 0x0, symName: __ZNSt3__16vectorINS_12basic_stringIcNS_11char_traitsIcEENS_9allocatorIcEEEENS4_IS6_EEE7reserveEm, symObjAddr: 0xBAE0, symBinAddr: 0x10000FD78, symSize: 0xE8 }
  - { offsetInCU: 0x4CE2F, offset: 0x4CE2F, size: 0x8, addend: 0x0, symName: __ZNSt3__16vectorIPKcNS_9allocatorIS2_EEEC1B8ue170006Ev, symObjAddr: 0xBBC8, symBinAddr: 0x10000FE60, symSize: 0x2C }
  - { offsetInCU: 0x4CE59, offset: 0x4CE59, size: 0x8, addend: 0x0, symName: __ZNSt3__16vectorIN7tinyobj7index_tENS_9allocatorIS2_EEE5clearB8ue170006Ev, symObjAddr: 0xBBF4, symBinAddr: 0x10000FE8C, symSize: 0x44 }
  - { offsetInCU: 0x4CE8E, offset: 0x4CE8E, size: 0x8, addend: 0x0, symName: __ZNSt3__16vectorIN7tinyobj7index_tENS_9allocatorIS2_EEE9push_backB8ue170006ERKS2_, symObjAddr: 0xBE20, symBinAddr: 0x1000100B8, symSize: 0x6C }
  - { offsetInCU: 0x4CEC5, offset: 0x4CEC5, size: 0x8, addend: 0x0, symName: __ZNSt3__16vectorIN7tinyobj7index_tENS_9allocatorIS2_EEE2atEm, symObjAddr: 0xBE8C, symBinAddr: 0x100010124, symSize: 0x68 }
  - { offsetInCU: 0x4CEFC, offset: 0x4CEFC, size: 0x8, addend: 0x0, symName: __ZNSt3__16vectorIN7tinyobj10material_tENS_9allocatorIS2_EEE2atEm, symObjAddr: 0xBEF4, symBinAddr: 0x10001018C, symSize: 0x68 }
  - { offsetInCU: 0x4CF33, offset: 0x4CF33, size: 0x8, addend: 0x0, symName: __ZNSt3__16vectorINS_12basic_stringIcNS_11char_traitsIcEENS_9allocatorIcEEEENS4_IS6_EEE5clearB8ue170006Ev, symObjAddr: 0xBF5C, symBinAddr: 0x1000101F4, symSize: 0x44 }
  - { offsetInCU: 0x4CF68, offset: 0x4CF68, size: 0x8, addend: 0x0, symName: __ZNSt3__16vectorIPKcNS_9allocatorIS2_EEE6resizeEm, symObjAddr: 0xBFA0, symBinAddr: 0x100010238, symSize: 0x94 }
  - { offsetInCU: 0x4CFAE, offset: 0x4CFAE, size: 0x8, addend: 0x0, symName: __ZNKSt3__16vectorIPKcNS_9allocatorIS2_EEE4sizeB8ue170006Ev, symObjAddr: 0xC034, symBinAddr: 0x1000102CC, symSize: 0x28 }
  - { offsetInCU: 0x4CFD4, offset: 0x4CFD4, size: 0x8, addend: 0x0, symName: __ZNSt3__16vectorIPKcNS_9allocatorIS2_EEEixB8ue170006Em, symObjAddr: 0xC05C, symBinAddr: 0x1000102F4, symSize: 0x24 }
  - { offsetInCU: 0x4D00B, offset: 0x4D00B, size: 0x8, addend: 0x0, symName: __ZNSt3__16vectorIPKcNS_9allocatorIS2_EEE2atEm, symObjAddr: 0xC080, symBinAddr: 0x100010318, symSize: 0x60 }
  - { offsetInCU: 0x4D042, offset: 0x4D042, size: 0x8, addend: 0x0, symName: __ZNSt3__16vectorIPKcNS_9allocatorIS2_EEED1B8ue170006Ev, symObjAddr: 0xC0E0, symBinAddr: 0x100010378, symSize: 0x2C }
  - { offsetInCU: 0x4D06C, offset: 0x4D06C, size: 0x8, addend: 0x0, symName: __ZNSt3__16vectorIN7tinyobj10material_tENS_9allocatorIS2_EEED1B8ue170006Ev, symObjAddr: 0xC10C, symBinAddr: 0x1000103A4, symSize: 0x2C }
  - { offsetInCU: 0x4D096, offset: 0x4D096, size: 0x8, addend: 0x0, symName: __ZNSt3__16vectorIN7tinyobj7index_tENS_9allocatorIS2_EEED1B8ue170006Ev, symObjAddr: 0xC138, symBinAddr: 0x1000103D0, symSize: 0x2C }
  - { offsetInCU: 0x4D0F2, offset: 0x4D0F2, size: 0x8, addend: 0x0, symName: __ZN7tinyobj9ObjReader13ParseFromFileERKNSt3__112basic_stringIcNS1_11char_traitsIcEENS1_9allocatorIcEEEERKNS_15ObjReaderConfigE, symObjAddr: 0xC164, symBinAddr: 0x1000103FC, symSize: 0x19C }
  - { offsetInCU: 0x4D15C, offset: 0x4D15C, size: 0x8, addend: 0x0, symName: __ZNKSt3__112basic_stringIcNS_11char_traitsIcEENS_9allocatorIcEEE12find_last_ofB8ue170006EPKcm, symObjAddr: 0xC300, symBinAddr: 0x100010598, symSize: 0x74 }
  - { offsetInCU: 0x4D1A2, offset: 0x4D1A2, size: 0x8, addend: 0x0, symName: __ZN7tinyobj9ObjReader15ParseFromStringERKNSt3__112basic_stringIcNS1_11char_traitsIcEENS1_9allocatorIcEEEES9_RKNS_15ObjReaderConfigE, symObjAddr: 0xC374, symBinAddr: 0x10001060C, symSize: 0x1BC }
  - { offsetInCU: 0x4D245, offset: 0x4D245, size: 0x8, addend: 0x0, symName: __ZNSt3__115basic_stringbufIcNS_11char_traitsIcEENS_9allocatorIcEEEC1B8ue170006ERKNS_12basic_stringIcS2_S4_EEj, symObjAddr: 0xC530, symBinAddr: 0x1000107C8, symSize: 0x3C }
  - { offsetInCU: 0x4D28D, offset: 0x4D28D, size: 0x8, addend: 0x0, symName: __ZNSt3__113basic_istreamIcNS_11char_traitsIcEEEC1B8ue170006EPNS_15basic_streambufIcS2_EE, symObjAddr: 0xC56C, symBinAddr: 0x100010804, symSize: 0xA0 }
  - { offsetInCU: 0x4D2C5, offset: 0x4D2C5, size: 0x8, addend: 0x0, symName: __ZN7tinyobj20MaterialStreamReaderC1ERNSt3__113basic_istreamIcNS1_11char_traitsIcEEEE, symObjAddr: 0xC60C, symBinAddr: 0x1000108A4, symSize: 0x34 }
  - { offsetInCU: 0x4D2FE, offset: 0x4D2FE, size: 0x8, addend: 0x0, symName: __ZN7tinyobj20MaterialStreamReaderD1Ev, symObjAddr: 0xC640, symBinAddr: 0x1000108D8, symSize: 0x2C }
  - { offsetInCU: 0x4D32D, offset: 0x4D32D, size: 0x8, addend: 0x0, symName: __ZNSt3__115basic_stringbufIcNS_11char_traitsIcEENS_9allocatorIcEEED1Ev, symObjAddr: 0xC66C, symBinAddr: 0x100010904, symSize: 0x2C }
  - { offsetInCU: 0x4D35A, offset: 0x4D35A, size: 0x8, addend: 0x0, symName: __ZNSt3__16vectorIjNS_9allocatorIjEEED1B8ue170006Ev, symObjAddr: 0xC698, symBinAddr: 0x100010930, symSize: 0x2C }
  - { offsetInCU: 0x4D383, offset: 0x4D383, size: 0x8, addend: 0x0, symName: __Z7loadOBJRKNSt3__112basic_stringIcNS_11char_traitsIcEENS_9allocatorIcEEEE, symObjAddr: 0xC6C4, symBinAddr: 0x10001095C, symSize: 0x2F4 }
  - { offsetInCU: 0x4D4B0, offset: 0x4D4B0, size: 0x8, addend: 0x0, symName: __ZN7tinyobj8attrib_tC1Ev, symObjAddr: 0xC9B8, symBinAddr: 0x100010C50, symSize: 0x2C }
  - { offsetInCU: 0x4D4DA, offset: 0x4D4DA, size: 0x8, addend: 0x0, symName: __ZNSt3__16vectorIN7tinyobj7shape_tENS_9allocatorIS2_EEEC1B8ue170006Ev, symObjAddr: 0xC9E4, symBinAddr: 0x100010C7C, symSize: 0x2C }
  - { offsetInCU: 0x4D504, offset: 0x4D504, size: 0x8, addend: 0x0, symName: __ZNSt3__113basic_ostreamIcNS_11char_traitsIcEEElsB8ue170006EPFRS3_S4_E, symObjAddr: 0xCA10, symBinAddr: 0x100010CA8, symSize: 0x2C }
  - { offsetInCU: 0x4D538, offset: 0x4D538, size: 0x8, addend: 0x0, symName: __ZNSt3__16vectorIN7tinyobj7shape_tENS_9allocatorIS2_EEE5beginB8ue170006Ev, symObjAddr: 0xCA94, symBinAddr: 0x100010D2C, symSize: 0x30 }
  - { offsetInCU: 0x4D560, offset: 0x4D560, size: 0x8, addend: 0x0, symName: __ZNSt3__16vectorIN7tinyobj7shape_tENS_9allocatorIS2_EEE3endB8ue170006Ev, symObjAddr: 0xCAC4, symBinAddr: 0x100010D5C, symSize: 0x30 }
  - { offsetInCU: 0x4D588, offset: 0x4D588, size: 0x8, addend: 0x0, symName: __ZNKSt3__111__wrap_iterIPN7tinyobj7shape_tEEdeB8ue170006Ev, symObjAddr: 0xCB28, symBinAddr: 0x100010DC0, symSize: 0x18 }
  - { offsetInCU: 0x4D5AE, offset: 0x4D5AE, size: 0x8, addend: 0x0, symName: __ZNKSt3__16vectorIN7tinyobj7index_tENS_9allocatorIS2_EEE5beginB8ue170006Ev, symObjAddr: 0xCB40, symBinAddr: 0x100010DD8, symSize: 0x30 }
  - { offsetInCU: 0x4D5D6, offset: 0x4D5D6, size: 0x8, addend: 0x0, symName: __ZNKSt3__16vectorIN7tinyobj7index_tENS_9allocatorIS2_EEE3endB8ue170006Ev, symObjAddr: 0xCB70, symBinAddr: 0x100010E08, symSize: 0x30 }
  - { offsetInCU: 0x4D5FE, offset: 0x4D5FE, size: 0x8, addend: 0x0, symName: __ZNKSt3__111__wrap_iterIPKN7tinyobj7index_tEEdeB8ue170006Ev, symObjAddr: 0xCBD4, symBinAddr: 0x100010E6C, symSize: 0x18 }
  - { offsetInCU: 0x4D624, offset: 0x4D624, size: 0x8, addend: 0x0, symName: __ZNSt3__16vectorIjNS_9allocatorIjEEE9push_backB8ue170006EOj, symObjAddr: 0xCBEC, symBinAddr: 0x100010E84, symSize: 0x6C }
  - { offsetInCU: 0x4D65B, offset: 0x4D65B, size: 0x8, addend: 0x0, symName: __ZNKSt3__16vectorIjNS_9allocatorIjEEE4sizeB8ue170006Ev, symObjAddr: 0xCC58, symBinAddr: 0x100010EF0, symSize: 0x28 }
  - { offsetInCU: 0x4D681, offset: 0x4D681, size: 0x8, addend: 0x0, symName: __ZNSt3__111__wrap_iterIPKN7tinyobj7index_tEEppB8ue170006Ev, symObjAddr: 0xCC80, symBinAddr: 0x100010F18, symSize: 0x20 }
  - { offsetInCU: 0x4D6A7, offset: 0x4D6A7, size: 0x8, addend: 0x0, symName: __ZNSt3__111__wrap_iterIPN7tinyobj7shape_tEEppB8ue170006Ev, symObjAddr: 0xCCA0, symBinAddr: 0x100010F38, symSize: 0x20 }
  - { offsetInCU: 0x4D6CD, offset: 0x4D6CD, size: 0x8, addend: 0x0, symName: __ZNSt3__16vectorIN7tinyobj7shape_tENS_9allocatorIS2_EEED1B8ue170006Ev, symObjAddr: 0xCCC0, symBinAddr: 0x100010F58, symSize: 0x2C }
  - { offsetInCU: 0x4D6F7, offset: 0x4D6F7, size: 0x8, addend: 0x0, symName: __ZN7tinyobj8attrib_tD1Ev, symObjAddr: 0xCCEC, symBinAddr: 0x100010F84, symSize: 0x2C }
  - { offsetInCU: 0x4D723, offset: 0x4D723, size: 0x8, addend: 0x0, symName: __Z12processInputP10GLFWwindow, symObjAddr: 0xCD18, symBinAddr: 0x100010FB0, symSize: 0x214 }
  - { offsetInCU: 0x4D767, offset: 0x4D767, size: 0x8, addend: 0x0, symName: __Z13compileShaderjPKc, symObjAddr: 0xCF2C, symBinAddr: 0x1000111C4, symSize: 0x13C }
  - { offsetInCU: 0x4D7D9, offset: 0x4D7D9, size: 0x8, addend: 0x0, symName: __Z19createShaderProgramv, symObjAddr: 0xD068, symBinAddr: 0x100011300, symSize: 0x188 }
  - { offsetInCU: 0x4D84B, offset: 0x4D84B, size: 0x8, addend: 0x0, symName: __Z12setupBuffersRjS_S_, symObjAddr: 0xD1F0, symBinAddr: 0x100011488, symSize: 0x1D0 }
  - { offsetInCU: 0x4D890, offset: 0x4D890, size: 0x8, addend: 0x0, symName: __ZNSt3__16vectorIfNS_9allocatorIfEEE4dataB8ue170006Ev, symObjAddr: 0xD3C0, symBinAddr: 0x100011658, symSize: 0x28 }
  - { offsetInCU: 0x4D8B6, offset: 0x4D8B6, size: 0x8, addend: 0x0, symName: __ZNSt3__16vectorIjNS_9allocatorIjEEE4dataB8ue170006Ev, symObjAddr: 0xD3E8, symBinAddr: 0x100011680, symSize: 0x28 }
  - { offsetInCU: 0x4D8DB, offset: 0x4D8DB, size: 0x8, addend: 0x0, symName: __Z15updateTransformj, symObjAddr: 0xD410, symBinAddr: 0x1000116A8, symSize: 0x16C }
  - { offsetInCU: 0x4D922, offset: 0x4D922, size: 0x8, addend: 0x0, symName: __ZN3glm3vecILi3EfLNS_9qualifierE0EEC1Efff, symObjAddr: 0xE00C, symBinAddr: 0x1000122A4, symSize: 0x44 }
  - { offsetInCU: 0x4D977, offset: 0x4D977, size: 0x8, addend: 0x0, symName: __Z3runv, symObjAddr: 0xE1C8, symBinAddr: 0x100012460, symSize: 0x254 }
  - { offsetInCU: 0x4D9D8, offset: 0x4D9D8, size: 0x8, addend: 0x0, symName: _main, symObjAddr: 0xE41C, symBinAddr: 0x1000126B4, symSize: 0x2C }
  - { offsetInCU: 0x4D9F2, offset: 0x4D9F2, size: 0x8, addend: 0x0, symName: __ZN7tinyobj18MaterialFileReaderD0Ev, symObjAddr: 0xE448, symBinAddr: 0x1000126E0, symSize: 0x30 }
  - { offsetInCU: 0x4DA1C, offset: 0x4DA1C, size: 0x8, addend: 0x0, symName: __ZN7tinyobj20MaterialStreamReaderD0Ev, symObjAddr: 0xE478, symBinAddr: 0x100012710, symSize: 0x30 }
  - { offsetInCU: 0x4DA46, offset: 0x4DA46, size: 0x8, addend: 0x0, symName: __ZNSt3__112basic_stringIcNS_11char_traitsIcEENS_9allocatorIcEEEC2B8ue170006Ev, symObjAddr: 0xE4A8, symBinAddr: 0x100012740, symSize: 0x48 }
  - { offsetInCU: 0x4DA76, offset: 0x4DA76, size: 0x8, addend: 0x0, symName: __ZNSt3__117__compressed_pairINS_12basic_stringIcNS_11char_traitsIcEENS_9allocatorIcEEE5__repES5_EC1B8ue170006INS_18__default_init_tagESA_EEOT_OT0_, symObjAddr: 0xE4F0, symBinAddr: 0x100012788, symSize: 0x3C }
  - { offsetInCU: 0x4DACE, offset: 0x4DACE, size: 0x8, addend: 0x0, symName: __ZNSt3__112basic_stringIcNS_11char_traitsIcEENS_9allocatorIcEEE14__default_initB8ue170006Ev, symObjAddr: 0xE538, symBinAddr: 0x1000127D0, symSize: 0x40 }
  - { offsetInCU: 0x4DAF4, offset: 0x4DAF4, size: 0x8, addend: 0x0, symName: __ZNSt3__117__compressed_pairINS_12basic_stringIcNS_11char_traitsIcEENS_9allocatorIcEEE5__repES5_EC2B8ue170006INS_18__default_init_tagESA_EEOT_OT0_, symObjAddr: 0xE578, symBinAddr: 0x100012810, symSize: 0x3C }
  - { offsetInCU: 0x4DB4C, offset: 0x4DB4C, size: 0x8, addend: 0x0, symName: __ZNSt3__122__compressed_pair_elemINS_12basic_stringIcNS_11char_traitsIcEENS_9allocatorIcEEE5__repELi0ELb0EEC2B8ue170006ENS_18__default_init_tagE, symObjAddr: 0xE5B4, symBinAddr: 0x10001284C, symSize: 0x14 }
  - { offsetInCU: 0x4DB80, offset: 0x4DB80, size: 0x8, addend: 0x0, symName: __ZNSt3__122__compressed_pair_elemINS_9allocatorIcEELi1ELb1EEC2B8ue170006ENS_18__default_init_tagE, symObjAddr: 0xE5C8, symBinAddr: 0x100012860, symSize: 0x2C }
  - { offsetInCU: 0x4DBB4, offset: 0x4DBB4, size: 0x8, addend: 0x0, symName: __ZNSt3__19allocatorIcEC2B8ue170006Ev, symObjAddr: 0xE5F4, symBinAddr: 0x10001288C, symSize: 0x2C }
  - { offsetInCU: 0x4DBDE, offset: 0x4DBDE, size: 0x8, addend: 0x0, symName: __ZNSt3__116__non_trivial_ifILb1ENS_9allocatorIcEEEC2B8ue170006Ev, symObjAddr: 0xE620, symBinAddr: 0x1000128B8, symSize: 0x14 }
  - { offsetInCU: 0x4DC08, offset: 0x4DC08, size: 0x8, addend: 0x0, symName: __ZNSt3__117__compressed_pairINS_12basic_stringIcNS_11char_traitsIcEENS_9allocatorIcEEE5__repES5_E5firstB8ue170006Ev, symObjAddr: 0xE634, symBinAddr: 0x1000128CC, symSize: 0x24 }
  - { offsetInCU: 0x4DC2E, offset: 0x4DC2E, size: 0x8, addend: 0x0, symName: __ZNSt3__122__compressed_pair_elemINS_12basic_stringIcNS_11char_traitsIcEENS_9allocatorIcEEE5__repELi0ELb0EE5__getB8ue170006Ev, symObjAddr: 0xE658, symBinAddr: 0x1000128F0, symSize: 0x14 }
  - { offsetInCU: 0x4DC54, offset: 0x4DC54, size: 0x8, addend: 0x0, symName: __ZNSt3__112basic_stringIcNS_11char_traitsIcEENS_9allocatorIcEEEC1B8ue170006IPKcLi0EEET_S9_, symObjAddr: 0xED1C, symBinAddr: 0x100012FB4, symSize: 0x3C }
  - { offsetInCU: 0x4DCAB, offset: 0x4DCAB, size: 0x8, addend: 0x0, symName: __ZNSt3__112basic_stringIcNS_11char_traitsIcEENS_9allocatorIcEEEC2B8ue170006IPKcLi0EEET_S9_, symObjAddr: 0xED58, symBinAddr: 0x100012FF0, symSize: 0x4C }
  - { offsetInCU: 0x4DD02, offset: 0x4DD02, size: 0x8, addend: 0x0, symName: __ZNSt3__112basic_stringIcNS_11char_traitsIcEENS_9allocatorIcEEE6__initIPKcLi0EEEvT_S9_, symObjAddr: 0xEDA4, symBinAddr: 0x10001303C, symSize: 0x54 }
  - { offsetInCU: 0x4DD66, offset: 0x4DD66, size: 0x8, addend: 0x0, symName: __ZNSt3__112basic_stringIcNS_11char_traitsIcEENS_9allocatorIcEEE16__init_with_sizeB8ue170006IPKcS8_EEvT_T0_m, symObjAddr: 0xEE24, symBinAddr: 0x1000130BC, symSize: 0x144 }
  - { offsetInCU: 0x4DDF9, offset: 0x4DDF9, size: 0x8, addend: 0x0, symName: __ZNKSt3__112basic_stringIcNS_11char_traitsIcEENS_9allocatorIcEEE8max_sizeB8ue170006Ev, symObjAddr: 0xEF88, symBinAddr: 0x100013220, symSize: 0xAC }
  - { offsetInCU: 0x4DE4B, offset: 0x4DE4B, size: 0x8, addend: 0x0, symName: __ZNKSt3__112basic_stringIcNS_11char_traitsIcEENS_9allocatorIcEEE20__throw_length_errorB8ue170006Ev, symObjAddr: 0xF034, symBinAddr: 0x1000132CC, symSize: 0x1C }
  - { offsetInCU: 0x4DE71, offset: 0x4DE71, size: 0x8, addend: 0x0, symName: __ZNSt3__112basic_stringIcNS_11char_traitsIcEENS_9allocatorIcEEE13__fits_in_ssoB8ue170006Em, symObjAddr: 0xF050, symBinAddr: 0x1000132E8, symSize: 0x20 }
  - { offsetInCU: 0x4DE95, offset: 0x4DE95, size: 0x8, addend: 0x0, symName: __ZNSt3__112basic_stringIcNS_11char_traitsIcEENS_9allocatorIcEEE16__set_short_sizeB8ue170006Em, symObjAddr: 0xF070, symBinAddr: 0x100013308, symSize: 0x78 }
  - { offsetInCU: 0x4DECA, offset: 0x4DECA, size: 0x8, addend: 0x0, symName: __ZNSt3__112basic_stringIcNS_11char_traitsIcEENS_9allocatorIcEEE19__get_short_pointerB8ue170006Ev, symObjAddr: 0xF0E8, symBinAddr: 0x100013380, symSize: 0x28 }
  - { offsetInCU: 0x4DEF0, offset: 0x4DEF0, size: 0x8, addend: 0x0, symName: __ZNSt3__112basic_stringIcNS_11char_traitsIcEENS_9allocatorIcEEE7__allocB8ue170006Ev, symObjAddr: 0xF150, symBinAddr: 0x1000133E8, symSize: 0x24 }
  - { offsetInCU: 0x4DF16, offset: 0x4DF16, size: 0x8, addend: 0x0, symName: __ZNSt3__112basic_stringIcNS_11char_traitsIcEENS_9allocatorIcEEE11__recommendB8ue170006Em, symObjAddr: 0xF174, symBinAddr: 0x10001340C, symSize: 0x84 }
  - { offsetInCU: 0x4DF49, offset: 0x4DF49, size: 0x8, addend: 0x0, symName: __ZNSt3__112basic_stringIcNS_11char_traitsIcEENS_9allocatorIcEEE16__begin_lifetimeB8ue170006EPcm, symObjAddr: 0xF1F8, symBinAddr: 0x100013490, symSize: 0x14 }
  - { offsetInCU: 0x4DF7C, offset: 0x4DF7C, size: 0x8, addend: 0x0, symName: __ZNSt3__112basic_stringIcNS_11char_traitsIcEENS_9allocatorIcEEE18__set_long_pointerB8ue170006EPc, symObjAddr: 0xF20C, symBinAddr: 0x1000134A4, symSize: 0x38 }
  - { offsetInCU: 0x4DFB1, offset: 0x4DFB1, size: 0x8, addend: 0x0, symName: __ZNSt3__112basic_stringIcNS_11char_traitsIcEENS_9allocatorIcEEE14__set_long_capB8ue170006Em, symObjAddr: 0xF244, symBinAddr: 0x1000134DC, symSize: 0x70 }
  - { offsetInCU: 0x4DFE6, offset: 0x4DFE6, size: 0x8, addend: 0x0, symName: __ZNSt3__112basic_stringIcNS_11char_traitsIcEENS_9allocatorIcEEE15__set_long_sizeB8ue170006Em, symObjAddr: 0xF2B4, symBinAddr: 0x10001354C, symSize: 0x38 }
  - { offsetInCU: 0x4E01B, offset: 0x4E01B, size: 0x8, addend: 0x0, symName: __ZNSt3__111char_traitsIcE6assignB8ue170006ERcRKc, symObjAddr: 0xF2EC, symBinAddr: 0x100013584, symSize: 0x24 }
  - { offsetInCU: 0x4E056, offset: 0x4E056, size: 0x8, addend: 0x0, symName: __ZNSt3__116allocator_traitsINS_9allocatorIcEEE8max_sizeB8ue170006IS2_vvEEmRKS2_, symObjAddr: 0xF310, symBinAddr: 0x1000135A8, symSize: 0x28 }
  - { offsetInCU: 0x4E082, offset: 0x4E082, size: 0x8, addend: 0x0, symName: __ZNKSt3__112basic_stringIcNS_11char_traitsIcEENS_9allocatorIcEEE7__allocB8ue170006Ev, symObjAddr: 0xF338, symBinAddr: 0x1000135D0, symSize: 0x24 }
  - { offsetInCU: 0x4E0A8, offset: 0x4E0A8, size: 0x8, addend: 0x0, symName: __ZNSt3__114numeric_limitsImE3maxB8ue170006Ev, symObjAddr: 0xF35C, symBinAddr: 0x1000135F4, symSize: 0x14 }
  - { offsetInCU: 0x4E0BC, offset: 0x4E0BC, size: 0x8, addend: 0x0, symName: __ZNKSt3__117__compressed_pairINS_12basic_stringIcNS_11char_traitsIcEENS_9allocatorIcEEE5__repES5_E6secondB8ue170006Ev, symObjAddr: 0xF370, symBinAddr: 0x100013608, symSize: 0x24 }
  - { offsetInCU: 0x4E0E2, offset: 0x4E0E2, size: 0x8, addend: 0x0, symName: __ZNKSt3__122__compressed_pair_elemINS_9allocatorIcEELi1ELb1EE5__getB8ue170006Ev, symObjAddr: 0xF394, symBinAddr: 0x10001362C, symSize: 0x14 }
  - { offsetInCU: 0x4E108, offset: 0x4E108, size: 0x8, addend: 0x0, symName: __ZNSt3__123__libcpp_numeric_limitsImLb1EE3maxB8ue170006Ev, symObjAddr: 0xF3A8, symBinAddr: 0x100013640, symSize: 0x8 }
  - { offsetInCU: 0x4E11C, offset: 0x4E11C, size: 0x8, addend: 0x0, symName: __ZNSt12length_errorC1B8ue170006EPKc, symObjAddr: 0xF414, symBinAddr: 0x1000136AC, symSize: 0x34 }
  - { offsetInCU: 0x4E154, offset: 0x4E154, size: 0x8, addend: 0x0, symName: __ZNSt12length_errorC2B8ue170006EPKc, symObjAddr: 0xF448, symBinAddr: 0x1000136E0, symSize: 0x4C }
  - { offsetInCU: 0x4E18C, offset: 0x4E18C, size: 0x8, addend: 0x0, symName: __ZNSt3__114pointer_traitsIPcE10pointer_toB8ue170006ERc, symObjAddr: 0xF494, symBinAddr: 0x10001372C, symSize: 0x14 }
  - { offsetInCU: 0x4E1AF, offset: 0x4E1AF, size: 0x8, addend: 0x0, symName: __ZNSt3__19allocatorIcE8allocateB8ue170006Em, symObjAddr: 0xF4A8, symBinAddr: 0x100013740, symSize: 0x58 }
  - { offsetInCU: 0x4E1E3, offset: 0x4E1E3, size: 0x8, addend: 0x0, symName: __ZNSt3__117__compressed_pairINS_12basic_stringIcNS_11char_traitsIcEENS_9allocatorIcEEE5__repES5_E6secondB8ue170006Ev, symObjAddr: 0xF604, symBinAddr: 0x10001389C, symSize: 0x24 }
  - { offsetInCU: 0x4E209, offset: 0x4E209, size: 0x8, addend: 0x0, symName: __ZNSt3__122__compressed_pair_elemINS_9allocatorIcEELi1ELb1EE5__getB8ue170006Ev, symObjAddr: 0xF628, symBinAddr: 0x1000138C0, symSize: 0x14 }
  - { offsetInCU: 0x4E22F, offset: 0x4E22F, size: 0x8, addend: 0x0, symName: __ZNSt3__112basic_stringIcNS_11char_traitsIcEENS_9allocatorIcEEE10__align_itB8ue170006ILm16EEEmm, symObjAddr: 0xF63C, symBinAddr: 0x1000138D4, symSize: 0x1C }
  - { offsetInCU: 0x4E25D, offset: 0x4E25D, size: 0x8, addend: 0x0, symName: __ZNSt3__112basic_stringIcNS_11char_traitsIcEENS_9allocatorIcEEE13__move_assignB8ue170006ERS5_NS_17integral_constantIbLb1EEE, symObjAddr: 0xF658, symBinAddr: 0x1000138F0, symSize: 0xC8 }
  - { offsetInCU: 0x4E2A0, offset: 0x4E2A0, size: 0x8, addend: 0x0, symName: __ZNKSt3__112basic_stringIcNS_11char_traitsIcEENS_9allocatorIcEEE9__is_longB8ue170006Ev, symObjAddr: 0xF720, symBinAddr: 0x1000139B8, symSize: 0x38 }
  - { offsetInCU: 0x4E2C6, offset: 0x4E2C6, size: 0x8, addend: 0x0, symName: __ZNSt3__116allocator_traitsINS_9allocatorIcEEE10deallocateB8ue170006ERS2_Pcm, symObjAddr: 0xF758, symBinAddr: 0x1000139F0, symSize: 0x34 }
  - { offsetInCU: 0x4E308, offset: 0x4E308, size: 0x8, addend: 0x0, symName: __ZNSt3__112basic_stringIcNS_11char_traitsIcEENS_9allocatorIcEEE18__get_long_pointerB8ue170006Ev, symObjAddr: 0xF78C, symBinAddr: 0x100013A24, symSize: 0x28 }
  - { offsetInCU: 0x4E32E, offset: 0x4E32E, size: 0x8, addend: 0x0, symName: __ZNKSt3__112basic_stringIcNS_11char_traitsIcEENS_9allocatorIcEEE14__get_long_capB8ue170006Ev, symObjAddr: 0xF7B4, symBinAddr: 0x100013A4C, symSize: 0x30 }
  - { offsetInCU: 0x4E354, offset: 0x4E354, size: 0x8, addend: 0x0, symName: __ZNSt3__112basic_stringIcNS_11char_traitsIcEENS_9allocatorIcEEE19__move_assign_allocB8ue170006ERS5_, symObjAddr: 0xF7E4, symBinAddr: 0x100013A7C, symSize: 0x2C }
  - { offsetInCU: 0x4E389, offset: 0x4E389, size: 0x8, addend: 0x0, symName: __ZNKSt3__117__compressed_pairINS_12basic_stringIcNS_11char_traitsIcEENS_9allocatorIcEEE5__repES5_E5firstB8ue170006Ev, symObjAddr: 0xF810, symBinAddr: 0x100013AA8, symSize: 0x24 }
  - { offsetInCU: 0x4E3AF, offset: 0x4E3AF, size: 0x8, addend: 0x0, symName: __ZNKSt3__122__compressed_pair_elemINS_12basic_stringIcNS_11char_traitsIcEENS_9allocatorIcEEE5__repELi0ELb0EE5__getB8ue170006Ev, symObjAddr: 0xF834, symBinAddr: 0x100013ACC, symSize: 0x14 }
  - { offsetInCU: 0x4E3D5, offset: 0x4E3D5, size: 0x8, addend: 0x0, symName: __ZNSt3__19allocatorIcE10deallocateB8ue170006EPcm, symObjAddr: 0xF848, symBinAddr: 0x100013AE0, symSize: 0x40 }
  - { offsetInCU: 0x4E417, offset: 0x4E417, size: 0x8, addend: 0x0, symName: __ZNSt3__112basic_stringIcNS_11char_traitsIcEENS_9allocatorIcEEE19__move_assign_allocB8ue170006ERS5_NS_17integral_constantIbLb1EEE, symObjAddr: 0xF990, symBinAddr: 0x100013C28, symSize: 0x38 }
  - { offsetInCU: 0x4E458, offset: 0x4E458, size: 0x8, addend: 0x0, symName: __ZNSt3__112basic_stringIcNS_11char_traitsIcEENS_9allocatorIcEEEC2B8ue170006ILi0EEEPKc, symObjAddr: 0xF9C8, symBinAddr: 0x100013C60, symSize: 0x58 }
  - { offsetInCU: 0x4E497, offset: 0x4E497, size: 0x8, addend: 0x0, symName: __ZNSt3__111char_traitsIcE6lengthB8ue170006EPKc, symObjAddr: 0xFA20, symBinAddr: 0x100013CB8, symSize: 0x34 }
  - { offsetInCU: 0x4E4BA, offset: 0x4E4BA, size: 0x8, addend: 0x0, symName: __ZN7tinyobj10material_tC2Ev, symObjAddr: 0xFA78, symBinAddr: 0x100013D10, symSize: 0x170 }
  - { offsetInCU: 0x4E4EB, offset: 0x4E4EB, size: 0x8, addend: 0x0, symName: __ZN7tinyobj16texture_option_tC1Ev, symObjAddr: 0xFBE8, symBinAddr: 0x100013E80, symSize: 0x2C }
  - { offsetInCU: 0x4E517, offset: 0x4E517, size: 0x8, addend: 0x0, symName: __ZNSt3__13mapINS_12basic_stringIcNS_11char_traitsIcEENS_9allocatorIcEEEES6_NS_4lessIS6_EENS4_INS_4pairIKS6_S6_EEEEEC1B8ue170006Ev, symObjAddr: 0xFC14, symBinAddr: 0x100013EAC, symSize: 0x2C }
  - { offsetInCU: 0x4E541, offset: 0x4E541, size: 0x8, addend: 0x0, symName: __ZN7tinyobj16texture_option_tC2Ev, symObjAddr: 0xFC40, symBinAddr: 0x100013ED8, symSize: 0x30 }
  - { offsetInCU: 0x4E56D, offset: 0x4E56D, size: 0x8, addend: 0x0, symName: __ZNSt3__13mapINS_12basic_stringIcNS_11char_traitsIcEENS_9allocatorIcEEEES6_NS_4lessIS6_EENS4_INS_4pairIKS6_S6_EEEEEC2B8ue170006Ev, symObjAddr: 0xFC70, symBinAddr: 0x100013F08, symSize: 0x40 }
  - { offsetInCU: 0x4E597, offset: 0x4E597, size: 0x8, addend: 0x0, symName: __ZNSt3__119__map_value_compareINS_12basic_stringIcNS_11char_traitsIcEENS_9allocatorIcEEEENS_12__value_typeIS6_S6_EENS_4lessIS6_EELb1EEC1B8ue170006ESA_, symObjAddr: 0xFCB0, symBinAddr: 0x100013F48, symSize: 0x2C }
  - { offsetInCU: 0x4E5D0, offset: 0x4E5D0, size: 0x8, addend: 0x0, symName: __ZNSt3__16__treeINS_12__value_typeINS_12basic_stringIcNS_11char_traitsIcEENS_9allocatorIcEEEES7_EENS_19__map_value_compareIS7_S8_NS_4lessIS7_EELb1EEENS5_IS8_EEEC1ERKSC_, symObjAddr: 0xFCDC, symBinAddr: 0x100013F74, symSize: 0x34 }
  - { offsetInCU: 0x4E60B, offset: 0x4E60B, size: 0x8, addend: 0x0, symName: __ZNSt3__119__map_value_compareINS_12basic_stringIcNS_11char_traitsIcEENS_9allocatorIcEEEENS_12__value_typeIS6_S6_EENS_4lessIS6_EELb1EEC2B8ue170006ESA_, symObjAddr: 0xFD10, symBinAddr: 0x100013FA8, symSize: 0x14 }
  - { offsetInCU: 0x4E644, offset: 0x4E644, size: 0x8, addend: 0x0, symName: __ZNSt3__16__treeINS_12__value_typeINS_12basic_stringIcNS_11char_traitsIcEENS_9allocatorIcEEEES7_EENS_19__map_value_compareIS7_S8_NS_4lessIS7_EELb1EEENS5_IS8_EEEC2ERKSC_, symObjAddr: 0xFD24, symBinAddr: 0x100013FBC, symSize: 0x7C }
  - { offsetInCU: 0x4E67F, offset: 0x4E67F, size: 0x8, addend: 0x0, symName: __ZNSt3__117__compressed_pairINS_15__tree_end_nodeIPNS_16__tree_node_baseIPvEEEENS_9allocatorINS_11__tree_nodeINS_12__value_typeINS_12basic_stringIcNS_11char_traitsIcEENS7_IcEEEESE_EES3_EEEEEC1B8ue170006ILb1EvEEv, symObjAddr: 0xFDA0, symBinAddr: 0x100014038, symSize: 0x2C }
  - { offsetInCU: 0x4E6B4, offset: 0x4E6B4, size: 0x8, addend: 0x0, symName: __ZNSt3__117__compressed_pairImNS_19__map_value_compareINS_12basic_stringIcNS_11char_traitsIcEENS_9allocatorIcEEEENS_12__value_typeIS7_S7_EENS_4lessIS7_EELb1EEEEC1B8ue170006IiRKSC_EEOT_OT0_, symObjAddr: 0xFDCC, symBinAddr: 0x100014064, symSize: 0x3C }
  - { offsetInCU: 0x4E70C, offset: 0x4E70C, size: 0x8, addend: 0x0, symName: __ZNSt3__16__treeINS_12__value_typeINS_12basic_stringIcNS_11char_traitsIcEENS_9allocatorIcEEEES7_EENS_19__map_value_compareIS7_S8_NS_4lessIS7_EELb1EEENS5_IS8_EEE10__end_nodeB8ue170006Ev, symObjAddr: 0xFE08, symBinAddr: 0x1000140A0, symSize: 0x2C }
  - { offsetInCU: 0x4E732, offset: 0x4E732, size: 0x8, addend: 0x0, symName: __ZNSt3__16__treeINS_12__value_typeINS_12basic_stringIcNS_11char_traitsIcEENS_9allocatorIcEEEES7_EENS_19__map_value_compareIS7_S8_NS_4lessIS7_EELb1EEENS5_IS8_EEE12__begin_nodeB8ue170006Ev, symObjAddr: 0xFE34, symBinAddr: 0x1000140CC, symSize: 0x14 }
  - { offsetInCU: 0x4E758, offset: 0x4E758, size: 0x8, addend: 0x0, symName: __ZNSt3__117__compressed_pairINS_15__tree_end_nodeIPNS_16__tree_node_baseIPvEEEENS_9allocatorINS_11__tree_nodeINS_12__value_typeINS_12basic_stringIcNS_11char_traitsIcEENS7_IcEEEESE_EES3_EEEEEC2B8ue170006ILb1EvEEv, symObjAddr: 0xFE48, symBinAddr: 0x1000140E0, symSize: 0x34 }
  - { offsetInCU: 0x4E78D, offset: 0x4E78D, size: 0x8, addend: 0x0, symName: __ZNSt3__122__compressed_pair_elemINS_15__tree_end_nodeIPNS_16__tree_node_baseIPvEEEELi0ELb0EEC2B8ue170006ENS_16__value_init_tagE, symObjAddr: 0xFE7C, symBinAddr: 0x100014114, symSize: 0x2C }
  - { offsetInCU: 0x4E7C1, offset: 0x4E7C1, size: 0x8, addend: 0x0, symName: __ZNSt3__122__compressed_pair_elemINS_9allocatorINS_11__tree_nodeINS_12__value_typeINS_12basic_stringIcNS_11char_traitsIcEENS1_IcEEEES8_EEPvEEEELi1ELb1EEC2B8ue170006ENS_16__value_init_tagE, symObjAddr: 0xFEA8, symBinAddr: 0x100014140, symSize: 0x2C }
  - { offsetInCU: 0x4E7F5, offset: 0x4E7F5, size: 0x8, addend: 0x0, symName: __ZNSt3__115__tree_end_nodeIPNS_16__tree_node_baseIPvEEEC1B8ue170006Ev, symObjAddr: 0xFED4, symBinAddr: 0x10001416C, symSize: 0x2C }
  - { offsetInCU: 0x4E81F, offset: 0x4E81F, size: 0x8, addend: 0x0, symName: __ZNSt3__115__tree_end_nodeIPNS_16__tree_node_baseIPvEEEC2B8ue170006Ev, symObjAddr: 0xFF00, symBinAddr: 0x100014198, symSize: 0x18 }
  - { offsetInCU: 0x4E849, offset: 0x4E849, size: 0x8, addend: 0x0, symName: __ZNSt3__19allocatorINS_11__tree_nodeINS_12__value_typeINS_12basic_stringIcNS_11char_traitsIcEENS0_IcEEEES7_EEPvEEEC2B8ue170006Ev, symObjAddr: 0xFF18, symBinAddr: 0x1000141B0, symSize: 0x2C }
  - { offsetInCU: 0x4E873, offset: 0x4E873, size: 0x8, addend: 0x0, symName: __ZNSt3__116__non_trivial_ifILb1ENS_9allocatorINS_11__tree_nodeINS_12__value_typeINS_12basic_stringIcNS_11char_traitsIcEENS1_IcEEEES8_EEPvEEEEEC2B8ue170006Ev, symObjAddr: 0xFF44, symBinAddr: 0x1000141DC, symSize: 0x14 }
  - { offsetInCU: 0x4E89D, offset: 0x4E89D, size: 0x8, addend: 0x0, symName: __ZNSt3__117__compressed_pairImNS_19__map_value_compareINS_12basic_stringIcNS_11char_traitsIcEENS_9allocatorIcEEEENS_12__value_typeIS7_S7_EENS_4lessIS7_EELb1EEEEC2B8ue170006IiRKSC_EEOT_OT0_, symObjAddr: 0xFF58, symBinAddr: 0x1000141F0, symSize: 0x44 }
  - { offsetInCU: 0x4E8F5, offset: 0x4E8F5, size: 0x8, addend: 0x0, symName: __ZNSt3__122__compressed_pair_elemImLi0ELb0EEC2B8ue170006IivEEOT_, symObjAddr: 0xFF9C, symBinAddr: 0x100014234, symSize: 0x24 }
  - { offsetInCU: 0x4E937, offset: 0x4E937, size: 0x8, addend: 0x0, symName: __ZNSt3__122__compressed_pair_elemINS_19__map_value_compareINS_12basic_stringIcNS_11char_traitsIcEENS_9allocatorIcEEEENS_12__value_typeIS7_S7_EENS_4lessIS7_EELb1EEELi1ELb1EEC2B8ue170006IRKSC_vEEOT_, symObjAddr: 0xFFC0, symBinAddr: 0x100014258, symSize: 0x18 }
  - { offsetInCU: 0x4E979, offset: 0x4E979, size: 0x8, addend: 0x0, symName: __ZNSt3__114pointer_traitsIPNS_15__tree_end_nodeIPNS_16__tree_node_baseIPvEEEEE10pointer_toB8ue170006ERS6_, symObjAddr: 0xFFD8, symBinAddr: 0x100014270, symSize: 0x14 }
  - { offsetInCU: 0x4E99C, offset: 0x4E99C, size: 0x8, addend: 0x0, symName: __ZNSt3__117__compressed_pairINS_15__tree_end_nodeIPNS_16__tree_node_baseIPvEEEENS_9allocatorINS_11__tree_nodeINS_12__value_typeINS_12basic_stringIcNS_11char_traitsIcEENS7_IcEEEESE_EES3_EEEEE5firstB8ue170006Ev, symObjAddr: 0xFFEC, symBinAddr: 0x100014284, symSize: 0x24 }
  - { offsetInCU: 0x4E9C2, offset: 0x4E9C2, size: 0x8, addend: 0x0, symName: __ZNSt3__122__compressed_pair_elemINS_15__tree_end_nodeIPNS_16__tree_node_baseIPvEEEELi0ELb0EE5__getB8ue170006Ev, symObjAddr: 0x10010, symBinAddr: 0x1000142A8, symSize: 0x14 }
  - { offsetInCU: 0x4E9E8, offset: 0x4E9E8, size: 0x8, addend: 0x0, symName: __ZNSt3__13mapINS_12basic_stringIcNS_11char_traitsIcEENS_9allocatorIcEEEES6_NS_4lessIS6_EENS4_INS_4pairIKS6_S6_EEEEE5clearB8ue170006Ev, symObjAddr: 0x1010C, symBinAddr: 0x1000143A4, symSize: 0x24 }
  - { offsetInCU: 0x4EA0E, offset: 0x4EA0E, size: 0x8, addend: 0x0, symName: __ZNSt3__16__treeINS_12__value_typeINS_12basic_stringIcNS_11char_traitsIcEENS_9allocatorIcEEEES7_EENS_19__map_value_compareIS7_S8_NS_4lessIS7_EELb1EEENS5_IS8_EEE5clearEv, symObjAddr: 0x10130, symBinAddr: 0x1000143C8, symSize: 0x74 }
  - { offsetInCU: 0x4EA36, offset: 0x4EA36, size: 0x8, addend: 0x0, symName: __ZNSt3__16__treeINS_12__value_typeINS_12basic_stringIcNS_11char_traitsIcEENS_9allocatorIcEEEES7_EENS_19__map_value_compareIS7_S8_NS_4lessIS7_EELb1EEENS5_IS8_EEE7destroyEPNS_11__tree_nodeIS8_PvEE, symObjAddr: 0x101A4, symBinAddr: 0x10001443C, symSize: 0xAC }
  - { offsetInCU: 0x4EA82, offset: 0x4EA82, size: 0x8, addend: 0x0, symName: __ZNKSt3__16__treeINS_12__value_typeINS_12basic_stringIcNS_11char_traitsIcEENS_9allocatorIcEEEES7_EENS_19__map_value_compareIS7_S8_NS_4lessIS7_EELb1EEENS5_IS8_EEE6__rootB8ue170006Ev, symObjAddr: 0x10250, symBinAddr: 0x1000144E8, symSize: 0x28 }
  - { offsetInCU: 0x4EAA8, offset: 0x4EAA8, size: 0x8, addend: 0x0, symName: __ZNSt3__16__treeINS_12__value_typeINS_12basic_stringIcNS_11char_traitsIcEENS_9allocatorIcEEEES7_EENS_19__map_value_compareIS7_S8_NS_4lessIS7_EELb1EEENS5_IS8_EEE4sizeB8ue170006Ev, symObjAddr: 0x10278, symBinAddr: 0x100014510, symSize: 0x28 }
  - { offsetInCU: 0x4EACE, offset: 0x4EACE, size: 0x8, addend: 0x0, symName: __ZNSt3__16__treeINS_12__value_typeINS_12basic_stringIcNS_11char_traitsIcEENS_9allocatorIcEEEES7_EENS_19__map_value_compareIS7_S8_NS_4lessIS7_EELb1EEENS5_IS8_EEE12__node_allocB8ue170006Ev, symObjAddr: 0x102A0, symBinAddr: 0x100014538, symSize: 0x28 }
  - { offsetInCU: 0x4EAF4, offset: 0x4EAF4, size: 0x8, addend: 0x0, symName: __ZNSt3__116allocator_traitsINS_9allocatorINS_11__tree_nodeINS_12__value_typeINS_12basic_stringIcNS_11char_traitsIcEENS1_IcEEEES8_EEPvEEEEE7destroyB8ue170006INS_4pairIKS8_S8_EEvvEEvRSC_PT_, symObjAddr: 0x102C8, symBinAddr: 0x100014560, symSize: 0x28 }
  - { offsetInCU: 0x4EB2F, offset: 0x4EB2F, size: 0x8, addend: 0x0, symName: __ZNSt3__122__tree_key_value_typesINS_12__value_typeINS_12basic_stringIcNS_11char_traitsIcEENS_9allocatorIcEEEES7_EEE9__get_ptrB8ue170006ERS8_, symObjAddr: 0x102F0, symBinAddr: 0x100014588, symSize: 0x24 }
  - { offsetInCU: 0x4EB53, offset: 0x4EB53, size: 0x8, addend: 0x0, symName: __ZNSt3__116allocator_traitsINS_9allocatorINS_11__tree_nodeINS_12__value_typeINS_12basic_stringIcNS_11char_traitsIcEENS1_IcEEEES8_EEPvEEEEE10deallocateB8ue170006ERSC_PSB_m, symObjAddr: 0x10314, symBinAddr: 0x1000145AC, symSize: 0x34 }
  - { offsetInCU: 0x4EB95, offset: 0x4EB95, size: 0x8, addend: 0x0, symName: __ZNSt3__117__compressed_pairINS_15__tree_end_nodeIPNS_16__tree_node_baseIPvEEEENS_9allocatorINS_11__tree_nodeINS_12__value_typeINS_12basic_stringIcNS_11char_traitsIcEENS7_IcEEEESE_EES3_EEEEE6secondB8ue170006Ev, symObjAddr: 0x10348, symBinAddr: 0x1000145E0, symSize: 0x24 }
  - { offsetInCU: 0x4EBBB, offset: 0x4EBBB, size: 0x8, addend: 0x0, symName: __ZNSt3__122__compressed_pair_elemINS_9allocatorINS_11__tree_nodeINS_12__value_typeINS_12basic_stringIcNS_11char_traitsIcEENS1_IcEEEES8_EEPvEEEELi1ELb1EE5__getB8ue170006Ev, symObjAddr: 0x1036C, symBinAddr: 0x100014604, symSize: 0x14 }
  - { offsetInCU: 0x4EBE1, offset: 0x4EBE1, size: 0x8, addend: 0x0, symName: __ZNSt3__14pairIKNS_12basic_stringIcNS_11char_traitsIcEENS_9allocatorIcEEEES6_ED1Ev, symObjAddr: 0x103C8, symBinAddr: 0x100014660, symSize: 0x2C }
  - { offsetInCU: 0x4EC0D, offset: 0x4EC0D, size: 0x8, addend: 0x0, symName: __ZNSt3__14pairIKNS_12basic_stringIcNS_11char_traitsIcEENS_9allocatorIcEEEES6_ED2Ev, symObjAddr: 0x103F4, symBinAddr: 0x10001468C, symSize: 0x38 }
  - { offsetInCU: 0x4EC39, offset: 0x4EC39, size: 0x8, addend: 0x0, symName: __ZNSt3__112__value_typeINS_12basic_stringIcNS_11char_traitsIcEENS_9allocatorIcEEEES6_E11__get_valueB8ue170006Ev, symObjAddr: 0x1042C, symBinAddr: 0x1000146C4, symSize: 0x24 }
  - { offsetInCU: 0x4EC5F, offset: 0x4EC5F, size: 0x8, addend: 0x0, symName: __ZNSt3__19allocatorINS_11__tree_nodeINS_12__value_typeINS_12basic_stringIcNS_11char_traitsIcEENS0_IcEEEES7_EEPvEEE10deallocateB8ue170006EPSA_m, symObjAddr: 0x10488, symBinAddr: 0x100014720, symSize: 0x44 }
  - { offsetInCU: 0x4ECA1, offset: 0x4ECA1, size: 0x8, addend: 0x0, symName: __ZNKSt3__16__treeINS_12__value_typeINS_12basic_stringIcNS_11char_traitsIcEENS_9allocatorIcEEEES7_EENS_19__map_value_compareIS7_S8_NS_4lessIS7_EELb1EEENS5_IS8_EEE10__end_nodeB8ue170006Ev, symObjAddr: 0x104CC, symBinAddr: 0x100014764, symSize: 0x2C }
  - { offsetInCU: 0x4ECC7, offset: 0x4ECC7, size: 0x8, addend: 0x0, symName: __ZNKSt3__117__compressed_pairINS_15__tree_end_nodeIPNS_16__tree_node_baseIPvEEEENS_9allocatorINS_11__tree_nodeINS_12__value_typeINS_12basic_stringIcNS_11char_traitsIcEENS7_IcEEEESE_EES3_EEEEE5firstB8ue170006Ev, symObjAddr: 0x104F8, symBinAddr: 0x100014790, symSize: 0x24 }
  - { offsetInCU: 0x4ECED, offset: 0x4ECED, size: 0x8, addend: 0x0, symName: __ZNKSt3__122__compressed_pair_elemINS_15__tree_end_nodeIPNS_16__tree_node_baseIPvEEEELi0ELb0EE5__getB8ue170006Ev, symObjAddr: 0x1051C, symBinAddr: 0x1000147B4, symSize: 0x14 }
  - { offsetInCU: 0x4ED13, offset: 0x4ED13, size: 0x8, addend: 0x0, symName: __ZNSt3__117__compressed_pairImNS_19__map_value_compareINS_12basic_stringIcNS_11char_traitsIcEENS_9allocatorIcEEEENS_12__value_typeIS7_S7_EENS_4lessIS7_EELb1EEEE5firstB8ue170006Ev, symObjAddr: 0x10530, symBinAddr: 0x1000147C8, symSize: 0x24 }
  - { offsetInCU: 0x4ED39, offset: 0x4ED39, size: 0x8, addend: 0x0, symName: __ZNSt3__122__compressed_pair_elemImLi0ELb0EE5__getB8ue170006Ev, symObjAddr: 0x10554, symBinAddr: 0x1000147EC, symSize: 0x14 }
  - { offsetInCU: 0x4ED5F, offset: 0x4ED5F, size: 0x8, addend: 0x0, symName: __ZNSt3__112basic_stringIcNS_11char_traitsIcEENS_9allocatorIcEEE5clearB8ue170006Ev, symObjAddr: 0x10568, symBinAddr: 0x100014800, symSize: 0x78 }
  - { offsetInCU: 0x4ED87, offset: 0x4ED87, size: 0x8, addend: 0x0, symName: __ZNKSt3__19basic_iosIcNS_11char_traitsIcEEE5rdbufB8ue170006Ev, symObjAddr: 0x105E0, symBinAddr: 0x100014878, symSize: 0x24 }
  - { offsetInCU: 0x4EDCD, offset: 0x4EDCD, size: 0x8, addend: 0x0, symName: __ZNKSt3__113basic_istreamIcNS_11char_traitsIcEEE6sentrycvbB8ue170006Ev, symObjAddr: 0x10604, symBinAddr: 0x10001489C, symSize: 0x1C }
  - { offsetInCU: 0x4EDF3, offset: 0x4EDF3, size: 0x8, addend: 0x0, symName: __ZNSt3__115basic_streambufIcNS_11char_traitsIcEEE6sbumpcB8ue170006Ev, symObjAddr: 0x10620, symBinAddr: 0x1000148B8, symSize: 0x78 }
  - { offsetInCU: 0x4EE19, offset: 0x4EE19, size: 0x8, addend: 0x0, symName: __ZNSt3__115basic_streambufIcNS_11char_traitsIcEEE5sgetcB8ue170006Ev, symObjAddr: 0x10698, symBinAddr: 0x100014930, symSize: 0x70 }
  - { offsetInCU: 0x4EE3F, offset: 0x4EE3F, size: 0x8, addend: 0x0, symName: __ZNSt3__19basic_iosIcNS_11char_traitsIcEEE8setstateB8ue170006Ej, symObjAddr: 0x10708, symBinAddr: 0x1000149A0, symSize: 0x2C }
  - { offsetInCU: 0x4EE74, offset: 0x4EE74, size: 0x8, addend: 0x0, symName: __ZNKSt3__18ios_base5rdbufB8ue170006Ev, symObjAddr: 0x10734, symBinAddr: 0x1000149CC, symSize: 0x18 }
  - { offsetInCU: 0x4EE9A, offset: 0x4EE9A, size: 0x8, addend: 0x0, symName: __ZNSt3__111char_traitsIcE11to_int_typeB8ue170006Ec, symObjAddr: 0x1074C, symBinAddr: 0x1000149E4, symSize: 0x14 }
  - { offsetInCU: 0x4EEBE, offset: 0x4EEBE, size: 0x8, addend: 0x0, symName: __ZNSt3__18ios_base8setstateB8ue170006Ej, symObjAddr: 0x10760, symBinAddr: 0x1000149F8, symSize: 0x34 }
  - { offsetInCU: 0x4EEF5, offset: 0x4EEF5, size: 0x8, addend: 0x0, symName: __ZNKSt3__112basic_stringIcNS_11char_traitsIcEENS_9allocatorIcEEE15__get_long_sizeB8ue170006Ev, symObjAddr: 0x10794, symBinAddr: 0x100014A2C, symSize: 0x28 }
  - { offsetInCU: 0x4EF1B, offset: 0x4EF1B, size: 0x8, addend: 0x0, symName: __ZNKSt3__112basic_stringIcNS_11char_traitsIcEENS_9allocatorIcEEE16__get_short_sizeB8ue170006Ev, symObjAddr: 0x107BC, symBinAddr: 0x100014A54, symSize: 0x34 }
  - { offsetInCU: 0x4EF41, offset: 0x4EF41, size: 0x8, addend: 0x0, symName: __ZNSt3__19allocatorIcEC1B8ue170006Ev, symObjAddr: 0x107F0, symBinAddr: 0x100014A88, symSize: 0x2C }
  - { offsetInCU: 0x4EF6B, offset: 0x4EF6B, size: 0x8, addend: 0x0, symName: __ZNKSt3__112basic_stringIcNS_11char_traitsIcEENS_9allocatorIcEEE4dataB8ue170006Ev, symObjAddr: 0x108F8, symBinAddr: 0x100014B90, symSize: 0x28 }
  - { offsetInCU: 0x4EF91, offset: 0x4EF91, size: 0x8, addend: 0x0, symName: __ZNSt3__111char_traitsIcE4findB8ue170006EPKcmRS2_, symObjAddr: 0x10920, symBinAddr: 0x100014BB8, symSize: 0x70 }
  - { offsetInCU: 0x4EFD0, offset: 0x4EFD0, size: 0x8, addend: 0x0, symName: __ZNKSt3__112basic_stringIcNS_11char_traitsIcEENS_9allocatorIcEEE13__get_pointerB8ue170006Ev, symObjAddr: 0x109E4, symBinAddr: 0x100014C7C, symSize: 0x54 }
  - { offsetInCU: 0x4EFF6, offset: 0x4EFF6, size: 0x8, addend: 0x0, symName: __ZNKSt3__112basic_stringIcNS_11char_traitsIcEENS_9allocatorIcEEE18__get_long_pointerB8ue170006Ev, symObjAddr: 0x10A38, symBinAddr: 0x100014CD0, symSize: 0x28 }
  - { offsetInCU: 0x4F01C, offset: 0x4F01C, size: 0x8, addend: 0x0, symName: __ZNKSt3__112basic_stringIcNS_11char_traitsIcEENS_9allocatorIcEEE19__get_short_pointerB8ue170006Ev, symObjAddr: 0x10A60, symBinAddr: 0x100014CF8, symSize: 0x28 }
  - { offsetInCU: 0x4F042, offset: 0x4F042, size: 0x8, addend: 0x0, symName: __ZNSt3__114pointer_traitsIPKcE10pointer_toB8ue170006ERS1_, symObjAddr: 0x10A88, symBinAddr: 0x100014D20, symSize: 0x14 }
  - { offsetInCU: 0x4F065, offset: 0x4F065, size: 0x8, addend: 0x0, symName: __ZNSt3__112basic_stringIcNS_11char_traitsIcEENS_9allocatorIcEEE13__get_pointerB8ue170006Ev, symObjAddr: 0x10A9C, symBinAddr: 0x100014D34, symSize: 0x54 }
  - { offsetInCU: 0x4F08B, offset: 0x4F08B, size: 0x8, addend: 0x0, symName: __ZNSt3__14pairINS_12basic_stringIcNS_11char_traitsIcEENS_9allocatorIcEEEEiEC2B8ue170006IRS6_iLPv0EEEOT_OT0_, symObjAddr: 0x10AF0, symBinAddr: 0x100014D88, symSize: 0x44 }
  - { offsetInCU: 0x4F0E9, offset: 0x4F0E9, size: 0x8, addend: 0x0, symName: __ZNSt3__14pairINS_12basic_stringIcNS_11char_traitsIcEENS_9allocatorIcEEEEiED2Ev, symObjAddr: 0x10B34, symBinAddr: 0x100014DCC, symSize: 0x2C }
  - { offsetInCU: 0x4F115, offset: 0x4F115, size: 0x8, addend: 0x0, symName: __ZNSt3__16vectorIN7tinyobj10material_tENS_9allocatorIS2_EEE9__end_capB8ue170006Ev, symObjAddr: 0x10B60, symBinAddr: 0x100014DF8, symSize: 0x28 }
  - { offsetInCU: 0x4F140, offset: 0x4F140, size: 0x8, addend: 0x0, symName: __ZNSt3__16vectorIN7tinyobj10material_tENS_9allocatorIS2_EEE22__construct_one_at_endB8ue170006IJRKS2_EEEvDpOT_, symObjAddr: 0x10B88, symBinAddr: 0x100014E20, symSize: 0x90 }
  - { offsetInCU: 0x4F18F, offset: 0x4F18F, size: 0x8, addend: 0x0, symName: __ZNSt3__16vectorIN7tinyobj10material_tENS_9allocatorIS2_EEE21__push_back_slow_pathIRKS2_EEvOT_, symObjAddr: 0x10C18, symBinAddr: 0x100014EB0, symSize: 0xD8 }
  - { offsetInCU: 0x4F1ED, offset: 0x4F1ED, size: 0x8, addend: 0x0, symName: __ZNSt3__117__compressed_pairIPN7tinyobj10material_tENS_9allocatorIS2_EEE5firstB8ue170006Ev, symObjAddr: 0x10CF0, symBinAddr: 0x100014F88, symSize: 0x24 }
  - { offsetInCU: 0x4F213, offset: 0x4F213, size: 0x8, addend: 0x0, symName: __ZNSt3__122__compressed_pair_elemIPN7tinyobj10material_tELi0ELb0EE5__getB8ue170006Ev, symObjAddr: 0x10D14, symBinAddr: 0x100014FAC, symSize: 0x14 }
  - { offsetInCU: 0x4F252, offset: 0x4F252, size: 0x8, addend: 0x0, symName: __ZNSt3__16vectorIN7tinyobj10material_tENS_9allocatorIS2_EEE21_ConstructTransactionC1B8ue170006ERS5_m, symObjAddr: 0x10D28, symBinAddr: 0x100014FC0, symSize: 0x3C }
  - { offsetInCU: 0x4F29A, offset: 0x4F29A, size: 0x8, addend: 0x0, symName: __ZNSt3__116allocator_traitsINS_9allocatorIN7tinyobj10material_tEEEE9constructB8ue170006IS3_JRKS3_EvvEEvRS4_PT_DpOT0_, symObjAddr: 0x10D64, symBinAddr: 0x100014FFC, symSize: 0x30 }
  - { offsetInCU: 0x4F2EF, offset: 0x4F2EF, size: 0x8, addend: 0x0, symName: __ZNSt3__16vectorIN7tinyobj10material_tENS_9allocatorIS2_EEE7__allocB8ue170006Ev, symObjAddr: 0x10D94, symBinAddr: 0x10001502C, symSize: 0x28 }
  - { offsetInCU: 0x4F315, offset: 0x4F315, size: 0x8, addend: 0x0, symName: __ZNSt3__16vectorIN7tinyobj10material_tENS_9allocatorIS2_EEE21_ConstructTransactionD1B8ue170006Ev, symObjAddr: 0x10DD0, symBinAddr: 0x100015068, symSize: 0x2C }
  - { offsetInCU: 0x4F33F, offset: 0x4F33F, size: 0x8, addend: 0x0, symName: __ZNSt3__16vectorIN7tinyobj10material_tENS_9allocatorIS2_EEE21_ConstructTransactionC2B8ue170006ERS5_m, symObjAddr: 0x10DFC, symBinAddr: 0x100015094, symSize: 0x4C }
  - { offsetInCU: 0x4F387, offset: 0x4F387, size: 0x8, addend: 0x0, symName: __ZN7tinyobj10material_tC1ERKS0_, symObjAddr: 0x10E84, symBinAddr: 0x10001511C, symSize: 0x34 }
  - { offsetInCU: 0x4F3BC, offset: 0x4F3BC, size: 0x8, addend: 0x0, symName: __ZN7tinyobj10material_tC2ERKS0_, symObjAddr: 0x10EB8, symBinAddr: 0x100015150, symSize: 0x674 }
  - { offsetInCU: 0x4F3FB, offset: 0x4F3FB, size: 0x8, addend: 0x0, symName: __ZN7tinyobj16texture_option_tC1ERKS0_, symObjAddr: 0x1152C, symBinAddr: 0x1000157C4, symSize: 0x34 }
  - { offsetInCU: 0x4F430, offset: 0x4F430, size: 0x8, addend: 0x0, symName: __ZNSt3__13mapINS_12basic_stringIcNS_11char_traitsIcEENS_9allocatorIcEEEES6_NS_4lessIS6_EENS4_INS_4pairIKS6_S6_EEEEEC1B8ue170006ERKSD_, symObjAddr: 0x11560, symBinAddr: 0x1000157F8, symSize: 0x34 }
  - { offsetInCU: 0x4F469, offset: 0x4F469, size: 0x8, addend: 0x0, symName: __ZN7tinyobj16texture_option_tD1Ev, symObjAddr: 0x11594, symBinAddr: 0x10001582C, symSize: 0x2C }
  - { offsetInCU: 0x4F495, offset: 0x4F495, size: 0x8, addend: 0x0, symName: __ZN7tinyobj16texture_option_tC2ERKS0_, symObjAddr: 0x115C0, symBinAddr: 0x100015858, symSize: 0x4C }
  - { offsetInCU: 0x4F4CA, offset: 0x4F4CA, size: 0x8, addend: 0x0, symName: __ZNSt3__13mapINS_12basic_stringIcNS_11char_traitsIcEENS_9allocatorIcEEEES6_NS_4lessIS6_EENS4_INS_4pairIKS6_S6_EEEEEC2B8ue170006ERKSD_, symObjAddr: 0x1160C, symBinAddr: 0x1000158A4, symSize: 0x88 }
  - { offsetInCU: 0x4F503, offset: 0x4F503, size: 0x8, addend: 0x0, symName: __ZNSt3__16__treeINS_12__value_typeINS_12basic_stringIcNS_11char_traitsIcEENS_9allocatorIcEEEES7_EENS_19__map_value_compareIS7_S8_NS_4lessIS7_EELb1EEENS5_IS8_EEEC1ERKSE_, symObjAddr: 0x11694, symBinAddr: 0x10001592C, symSize: 0x34 }
  - { offsetInCU: 0x4F53E, offset: 0x4F53E, size: 0x8, addend: 0x0, symName: __ZNSt3__13mapINS_12basic_stringIcNS_11char_traitsIcEENS_9allocatorIcEEEES6_NS_4lessIS6_EENS4_INS_4pairIKS6_S6_EEEEE6insertB8ue170006INS_20__map_const_iteratorINS_21__tree_const_iteratorINS_12__value_typeIS6_S6_EEPNS_11__tree_nodeISI_PvEElEEEEEEvT_SP_, symObjAddr: 0x116C8, symBinAddr: 0x100015960, symSize: 0x8C }
  - { offsetInCU: 0x4F5A8, offset: 0x4F5A8, size: 0x8, addend: 0x0, symName: __ZNKSt3__13mapINS_12basic_stringIcNS_11char_traitsIcEENS_9allocatorIcEEEES6_NS_4lessIS6_EENS4_INS_4pairIKS6_S6_EEEEE5beginB8ue170006Ev, symObjAddr: 0x11754, symBinAddr: 0x1000159EC, symSize: 0x38 }
  - { offsetInCU: 0x4F5CE, offset: 0x4F5CE, size: 0x8, addend: 0x0, symName: __ZNKSt3__13mapINS_12basic_stringIcNS_11char_traitsIcEENS_9allocatorIcEEEES6_NS_4lessIS6_EENS4_INS_4pairIKS6_S6_EEEEE3endB8ue170006Ev, symObjAddr: 0x1178C, symBinAddr: 0x100015A24, symSize: 0x38 }
  - { offsetInCU: 0x4F5F4, offset: 0x4F5F4, size: 0x8, addend: 0x0, symName: __ZNSt3__16__treeINS_12__value_typeINS_12basic_stringIcNS_11char_traitsIcEENS_9allocatorIcEEEES7_EENS_19__map_value_compareIS7_S8_NS_4lessIS7_EELb1EEENS5_IS8_EEED1Ev, symObjAddr: 0x117C4, symBinAddr: 0x100015A5C, symSize: 0x2C }
  - { offsetInCU: 0x4F620, offset: 0x4F620, size: 0x8, addend: 0x0, symName: __ZNSt3__16__treeINS_12__value_typeINS_12basic_stringIcNS_11char_traitsIcEENS_9allocatorIcEEEES7_EENS_19__map_value_compareIS7_S8_NS_4lessIS7_EELb1EEENS5_IS8_EEEC2ERKSE_, symObjAddr: 0x117F0, symBinAddr: 0x100015A88, symSize: 0x9C }
  - { offsetInCU: 0x4F665, offset: 0x4F665, size: 0x8, addend: 0x0, symName: __ZNSt3__116allocator_traitsINS_9allocatorINS_11__tree_nodeINS_12__value_typeINS_12basic_stringIcNS_11char_traitsIcEENS1_IcEEEES8_EEPvEEEEE37select_on_container_copy_constructionB8ue170006ISC_vvEESC_RKSC_, symObjAddr: 0x1188C, symBinAddr: 0x100015B24, symSize: 0x10 }
  - { offsetInCU: 0x4F694, offset: 0x4F694, size: 0x8, addend: 0x0, symName: __ZNKSt3__16__treeINS_12__value_typeINS_12basic_stringIcNS_11char_traitsIcEENS_9allocatorIcEEEES7_EENS_19__map_value_compareIS7_S8_NS_4lessIS7_EELb1EEENS5_IS8_EEE12__node_allocB8ue170006Ev, symObjAddr: 0x1189C, symBinAddr: 0x100015B34, symSize: 0x28 }
  - { offsetInCU: 0x4F6C0, offset: 0x4F6C0, size: 0x8, addend: 0x0, symName: __ZNSt3__117__compressed_pairINS_15__tree_end_nodeIPNS_16__tree_node_baseIPvEEEENS_9allocatorINS_11__tree_nodeINS_12__value_typeINS_12basic_stringIcNS_11char_traitsIcEENS7_IcEEEESE_EES3_EEEEEC1B8ue170006INS_18__default_init_tagESH_EEOT_OT0_, symObjAddr: 0x118C4, symBinAddr: 0x100015B5C, symSize: 0x3C }
  - { offsetInCU: 0x4F718, offset: 0x4F718, size: 0x8, addend: 0x0, symName: __ZNKSt3__16__treeINS_12__value_typeINS_12basic_stringIcNS_11char_traitsIcEENS_9allocatorIcEEEES7_EENS_19__map_value_compareIS7_S8_NS_4lessIS7_EELb1EEENS5_IS8_EEE10value_compB8ue170006Ev, symObjAddr: 0x11900, symBinAddr: 0x100015B98, symSize: 0x28 }
  - { offsetInCU: 0x4F73E, offset: 0x4F73E, size: 0x8, addend: 0x0, symName: __ZNKSt3__117__compressed_pairINS_15__tree_end_nodeIPNS_16__tree_node_baseIPvEEEENS_9allocatorINS_11__tree_nodeINS_12__value_typeINS_12basic_stringIcNS_11char_traitsIcEENS7_IcEEEESE_EES3_EEEEE6secondB8ue170006Ev, symObjAddr: 0x11928, symBinAddr: 0x100015BC0, symSize: 0x24 }
  - { offsetInCU: 0x4F764, offset: 0x4F764, size: 0x8, addend: 0x0, symName: __ZNKSt3__122__compressed_pair_elemINS_9allocatorINS_11__tree_nodeINS_12__value_typeINS_12basic_stringIcNS_11char_traitsIcEENS1_IcEEEES8_EEPvEEEELi1ELb1EE5__getB8ue170006Ev, symObjAddr: 0x1194C, symBinAddr: 0x100015BE4, symSize: 0x14 }
  - { offsetInCU: 0x4F78A, offset: 0x4F78A, size: 0x8, addend: 0x0, symName: __ZNSt3__117__compressed_pairINS_15__tree_end_nodeIPNS_16__tree_node_baseIPvEEEENS_9allocatorINS_11__tree_nodeINS_12__value_typeINS_12basic_stringIcNS_11char_traitsIcEENS7_IcEEEESE_EES3_EEEEEC2B8ue170006INS_18__default_init_tagESH_EEOT_OT0_, symObjAddr: 0x11960, symBinAddr: 0x100015BF8, symSize: 0x40 }
  - { offsetInCU: 0x4F7E2, offset: 0x4F7E2, size: 0x8, addend: 0x0, symName: __ZNSt3__122__compressed_pair_elemINS_15__tree_end_nodeIPNS_16__tree_node_baseIPvEEEELi0ELb0EEC2B8ue170006ENS_18__default_init_tagE, symObjAddr: 0x119A0, symBinAddr: 0x100015C38, symSize: 0x2C }
  - { offsetInCU: 0x4F816, offset: 0x4F816, size: 0x8, addend: 0x0, symName: __ZNSt3__122__compressed_pair_elemINS_9allocatorINS_11__tree_nodeINS_12__value_typeINS_12basic_stringIcNS_11char_traitsIcEENS1_IcEEEES8_EEPvEEEELi1ELb1EEC2B8ue170006ISC_vEEOT_, symObjAddr: 0x119CC, symBinAddr: 0x100015C64, symSize: 0x18 }
  - { offsetInCU: 0x4F858, offset: 0x4F858, size: 0x8, addend: 0x0, symName: __ZNKSt3__117__compressed_pairImNS_19__map_value_compareINS_12basic_stringIcNS_11char_traitsIcEENS_9allocatorIcEEEENS_12__value_typeIS7_S7_EENS_4lessIS7_EELb1EEEE6secondB8ue170006Ev, symObjAddr: 0x119E4, symBinAddr: 0x100015C7C, symSize: 0x24 }
  - { offsetInCU: 0x4F87E, offset: 0x4F87E, size: 0x8, addend: 0x0, symName: __ZNKSt3__122__compressed_pair_elemINS_19__map_value_compareINS_12basic_stringIcNS_11char_traitsIcEENS_9allocatorIcEEEENS_12__value_typeIS7_S7_EENS_4lessIS7_EELb1EEELi1ELb1EE5__getB8ue170006Ev, symObjAddr: 0x11A08, symBinAddr: 0x100015CA0, symSize: 0x14 }
  - { offsetInCU: 0x4F8A4, offset: 0x4F8A4, size: 0x8, addend: 0x0, symName: __ZNKSt3__13mapINS_12basic_stringIcNS_11char_traitsIcEENS_9allocatorIcEEEES6_NS_4lessIS6_EENS4_INS_4pairIKS6_S6_EEEEE4cendB8ue170006Ev, symObjAddr: 0x11A1C, symBinAddr: 0x100015CB4, symSize: 0x2C }
  - { offsetInCU: 0x4F8CA, offset: 0x4F8CA, size: 0x8, addend: 0x0, symName: __ZNSt3__13mapINS_12basic_stringIcNS_11char_traitsIcEENS_9allocatorIcEEEES6_NS_4lessIS6_EENS4_INS_4pairIKS6_S6_EEEEE6insertB8ue170006ENS_20__map_const_iteratorINS_21__tree_const_iteratorINS_12__value_typeIS6_S6_EEPNS_11__tree_nodeISH_PvEElEEEERKSB_, symObjAddr: 0x11A78, symBinAddr: 0x100015D10, symSize: 0x50 }
  - { offsetInCU: 0x4F90E, offset: 0x4F90E, size: 0x8, addend: 0x0, symName: __ZNSt3__120__map_const_iteratorINS_21__tree_const_iteratorINS_12__value_typeINS_12basic_stringIcNS_11char_traitsIcEENS_9allocatorIcEEEES8_EEPNS_11__tree_nodeIS9_PvEElEEEC1B8ue170006ESE_, symObjAddr: 0x11AC8, symBinAddr: 0x100015D60, symSize: 0x34 }
  - { offsetInCU: 0x4F947, offset: 0x4F947, size: 0x8, addend: 0x0, symName: __ZNKSt3__120__map_const_iteratorINS_21__tree_const_iteratorINS_12__value_typeINS_12basic_stringIcNS_11char_traitsIcEENS_9allocatorIcEEEES8_EEPNS_11__tree_nodeIS9_PvEElEEEdeB8ue170006Ev, symObjAddr: 0x11AFC, symBinAddr: 0x100015D94, symSize: 0x28 }
  - { offsetInCU: 0x4F96D, offset: 0x4F96D, size: 0x8, addend: 0x0, symName: __ZNSt3__120__map_const_iteratorINS_21__tree_const_iteratorINS_12__value_typeINS_12basic_stringIcNS_11char_traitsIcEENS_9allocatorIcEEEES8_EEPNS_11__tree_nodeIS9_PvEElEEEppB8ue170006Ev, symObjAddr: 0x11B24, symBinAddr: 0x100015DBC, symSize: 0x2C }
  - { offsetInCU: 0x4F993, offset: 0x4F993, size: 0x8, addend: 0x0, symName: __ZNSt3__16__treeINS_12__value_typeINS_12basic_stringIcNS_11char_traitsIcEENS_9allocatorIcEEEES7_EENS_19__map_value_compareIS7_S8_NS_4lessIS7_EELb1EEENS5_IS8_EEE15__insert_uniqueB8ue170006ENS_21__tree_const_iteratorIS8_PNS_11__tree_nodeIS8_PvEElEERKNS_4pairIKS7_S7_EE, symObjAddr: 0x11BB4, symBinAddr: 0x100015E4C, symSize: 0x64 }
  - { offsetInCU: 0x4F9D7, offset: 0x4F9D7, size: 0x8, addend: 0x0, symName: __ZNSt3__114__map_iteratorINS_15__tree_iteratorINS_12__value_typeINS_12basic_stringIcNS_11char_traitsIcEENS_9allocatorIcEEEES8_EEPNS_11__tree_nodeIS9_PvEElEEEC1B8ue170006ESE_, symObjAddr: 0x11C18, symBinAddr: 0x100015EB0, symSize: 0x34 }
  - { offsetInCU: 0x4FA10, offset: 0x4FA10, size: 0x8, addend: 0x0, symName: __ZNSt3__16__treeINS_12__value_typeINS_12basic_stringIcNS_11char_traitsIcEENS_9allocatorIcEEEES7_EENS_19__map_value_compareIS7_S8_NS_4lessIS7_EELb1EEENS5_IS8_EEE30__emplace_hint_unique_key_argsIS7_JRKNS_4pairIKS7_S7_EEEEENSG_INS_15__tree_iteratorIS8_PNS_11__tree_nodeIS8_PvEElEEbEENS_21__tree_const_iteratorIS8_SP_lEERKT_DpOT0_, symObjAddr: 0x11C4C, symBinAddr: 0x100015EE4, symSize: 0x104 }
  - { offsetInCU: 0x4FADC, offset: 0x4FADC, size: 0x8, addend: 0x0, symName: __ZNSt3__122__tree_key_value_typesINS_12__value_typeINS_12basic_stringIcNS_11char_traitsIcEENS_9allocatorIcEEEES7_EEE9__get_keyB8ue170006IKNS_4pairIKS7_S7_EEEENS_9enable_ifIXsr17__is_same_uncvrefIT_SD_EE5valueERSC_E4typeERSG_, symObjAddr: 0x11D50, symBinAddr: 0x100015FE8, symSize: 0x14 }
  - { offsetInCU: 0x4FB09, offset: 0x4FB09, size: 0x8, addend: 0x0, symName: __ZNSt3__16__treeINS_12__value_typeINS_12basic_stringIcNS_11char_traitsIcEENS_9allocatorIcEEEES7_EENS_19__map_value_compareIS7_S8_NS_4lessIS7_EELb1EEENS5_IS8_EEE12__find_equalIS7_EERPNS_16__tree_node_baseIPvEENS_21__tree_const_iteratorIS8_PNS_11__tree_nodeIS8_SH_EElEERPNS_15__tree_end_nodeISJ_EESK_RKT_, symObjAddr: 0x11D64, symBinAddr: 0x100015FFC, symSize: 0x304 }
  - { offsetInCU: 0x4FBB2, offset: 0x4FBB2, size: 0x8, addend: 0x0, symName: __ZNSt3__16__treeINS_12__value_typeINS_12basic_stringIcNS_11char_traitsIcEENS_9allocatorIcEEEES7_EENS_19__map_value_compareIS7_S8_NS_4lessIS7_EELb1EEENS5_IS8_EEE16__construct_nodeIJRKNS_4pairIKS7_S7_EEEEENS_10unique_ptrINS_11__tree_nodeIS8_PvEENS_22__tree_node_destructorINS5_ISO_EEEEEEDpOT_, symObjAddr: 0x12068, symBinAddr: 0x100016300, symSize: 0x110 }
  - { offsetInCU: 0x4FC13, offset: 0x4FC13, size: 0x8, addend: 0x0, symName: __ZNSt3__16__treeINS_12__value_typeINS_12basic_stringIcNS_11char_traitsIcEENS_9allocatorIcEEEES7_EENS_19__map_value_compareIS7_S8_NS_4lessIS7_EELb1EEENS5_IS8_EEE16__insert_node_atEPNS_15__tree_end_nodeIPNS_16__tree_node_baseIPvEEEERSJ_SJ_, symObjAddr: 0x12178, symBinAddr: 0x100016410, symSize: 0xCC }
  - { offsetInCU: 0x4FC68, offset: 0x4FC68, size: 0x8, addend: 0x0, symName: __ZNKSt3__110unique_ptrINS_11__tree_nodeINS_12__value_typeINS_12basic_stringIcNS_11char_traitsIcEENS_9allocatorIcEEEES8_EEPvEENS_22__tree_node_destructorINS6_ISB_EEEEE3getB8ue170006Ev, symObjAddr: 0x12244, symBinAddr: 0x1000164DC, symSize: 0x28 }
  - { offsetInCU: 0x4FC8E, offset: 0x4FC8E, size: 0x8, addend: 0x0, symName: __ZNSt3__110unique_ptrINS_11__tree_nodeINS_12__value_typeINS_12basic_stringIcNS_11char_traitsIcEENS_9allocatorIcEEEES8_EEPvEENS_22__tree_node_destructorINS6_ISB_EEEEE7releaseB8ue170006Ev, symObjAddr: 0x1226C, symBinAddr: 0x100016504, symSize: 0x44 }
  - { offsetInCU: 0x4FCC3, offset: 0x4FCC3, size: 0x8, addend: 0x0, symName: __ZNSt3__110unique_ptrINS_11__tree_nodeINS_12__value_typeINS_12basic_stringIcNS_11char_traitsIcEENS_9allocatorIcEEEES8_EEPvEENS_22__tree_node_destructorINS6_ISB_EEEEED1B8ue170006Ev, symObjAddr: 0x122B0, symBinAddr: 0x100016548, symSize: 0x2C }
  - { offsetInCU: 0x4FCED, offset: 0x4FCED, size: 0x8, addend: 0x0, symName: __ZNSt3__115__tree_iteratorINS_12__value_typeINS_12basic_stringIcNS_11char_traitsIcEENS_9allocatorIcEEEES7_EEPNS_11__tree_nodeIS8_PvEElEC1B8ue170006ESC_, symObjAddr: 0x122DC, symBinAddr: 0x100016574, symSize: 0x34 }
  - { offsetInCU: 0x4FD2C, offset: 0x4FD2C, size: 0x8, addend: 0x0, symName: __ZNSt3__14pairINS_15__tree_iteratorINS_12__value_typeINS_12basic_stringIcNS_11char_traitsIcEENS_9allocatorIcEEEES8_EEPNS_11__tree_nodeIS9_PvEElEEbEC1B8ue170006ISE_RbLSB_0EEEOT_OT0_, symObjAddr: 0x12310, symBinAddr: 0x1000165A8, symSize: 0x3C }
  - { offsetInCU: 0x4FD8A, offset: 0x4FD8A, size: 0x8, addend: 0x0, symName: __ZNSt3__16__treeINS_12__value_typeINS_12basic_stringIcNS_11char_traitsIcEENS_9allocatorIcEEEES7_EENS_19__map_value_compareIS7_S8_NS_4lessIS7_EELb1EEENS5_IS8_EEE3endB8ue170006Ev, symObjAddr: 0x1234C, symBinAddr: 0x1000165E4, symSize: 0x34 }
  - { offsetInCU: 0x4FDB0, offset: 0x4FDB0, size: 0x8, addend: 0x0, symName: __ZNSt3__121__tree_const_iteratorINS_12__value_typeINS_12basic_stringIcNS_11char_traitsIcEENS_9allocatorIcEEEES7_EEPNS_11__tree_nodeIS8_PvEElEC1B8ue170006ENS_15__tree_iteratorIS8_SC_lEE, symObjAddr: 0x12380, symBinAddr: 0x100016618, symSize: 0x34 }
  - { offsetInCU: 0x4FDE9, offset: 0x4FDE9, size: 0x8, addend: 0x0, symName: __ZNSt3__16__treeINS_12__value_typeINS_12basic_stringIcNS_11char_traitsIcEENS_9allocatorIcEEEES7_EENS_19__map_value_compareIS7_S8_NS_4lessIS7_EELb1EEENS5_IS8_EEE10value_compB8ue170006Ev, symObjAddr: 0x123B4, symBinAddr: 0x10001664C, symSize: 0x28 }
  - { offsetInCU: 0x4FE0F, offset: 0x4FE0F, size: 0x8, addend: 0x0, symName: __ZNKSt3__119__map_value_compareINS_12basic_stringIcNS_11char_traitsIcEENS_9allocatorIcEEEENS_12__value_typeIS6_S6_EENS_4lessIS6_EELb1EEclB8ue170006ERKS6_RKS8_, symObjAddr: 0x123DC, symBinAddr: 0x100016674, symSize: 0x50 }
  - { offsetInCU: 0x4FE53, offset: 0x4FE53, size: 0x8, addend: 0x0, symName: __ZNKSt3__121__tree_const_iteratorINS_12__value_typeINS_12basic_stringIcNS_11char_traitsIcEENS_9allocatorIcEEEES7_EEPNS_11__tree_nodeIS8_PvEElEdeB8ue170006Ev, symObjAddr: 0x1242C, symBinAddr: 0x1000166C4, symSize: 0x28 }
  - { offsetInCU: 0x4FE79, offset: 0x4FE79, size: 0x8, addend: 0x0, symName: __ZNSt3__16__treeINS_12__value_typeINS_12basic_stringIcNS_11char_traitsIcEENS_9allocatorIcEEEES7_EENS_19__map_value_compareIS7_S8_NS_4lessIS7_EELb1EEENS5_IS8_EEE5beginB8ue170006Ev, symObjAddr: 0x12454, symBinAddr: 0x1000166EC, symSize: 0x34 }
  - { offsetInCU: 0x4FE9F, offset: 0x4FE9F, size: 0x8, addend: 0x0, symName: __ZNKSt3__119__map_value_compareINS_12basic_stringIcNS_11char_traitsIcEENS_9allocatorIcEEEENS_12__value_typeIS6_S6_EENS_4lessIS6_EELb1EEclB8ue170006ERKS8_RKS6_, symObjAddr: 0x12488, symBinAddr: 0x100016720, symSize: 0x48 }
  - { offsetInCU: 0x4FEE3, offset: 0x4FEE3, size: 0x8, addend: 0x0, symName: __ZNSt3__121__tree_const_iteratorINS_12__value_typeINS_12basic_stringIcNS_11char_traitsIcEENS_9allocatorIcEEEES7_EEPNS_11__tree_nodeIS8_PvEElEmmB8ue170006Ev, symObjAddr: 0x124D0, symBinAddr: 0x100016768, symSize: 0x38 }
  - { offsetInCU: 0x4FF09, offset: 0x4FF09, size: 0x8, addend: 0x0, symName: __ZNSt3__16__treeINS_12__value_typeINS_12basic_stringIcNS_11char_traitsIcEENS_9allocatorIcEEEES7_EENS_19__map_value_compareIS7_S8_NS_4lessIS7_EELb1EEENS5_IS8_EEE12__find_equalIS7_EERPNS_16__tree_node_baseIPvEERPNS_15__tree_end_nodeISJ_EERKT_, symObjAddr: 0x12508, symBinAddr: 0x1000167A0, symSize: 0x184 }
  - { offsetInCU: 0x4FF76, offset: 0x4FF76, size: 0x8, addend: 0x0, symName: __ZNKSt3__121__tree_const_iteratorINS_12__value_typeINS_12basic_stringIcNS_11char_traitsIcEENS_9allocatorIcEEEES7_EEPNS_11__tree_nodeIS8_PvEElE8__get_npB8ue170006Ev, symObjAddr: 0x126C8, symBinAddr: 0x100016960, symSize: 0x18 }
  - { offsetInCU: 0x4FF9C, offset: 0x4FF9C, size: 0x8, addend: 0x0, symName: __ZNSt3__115__tree_iteratorINS_12__value_typeINS_12basic_stringIcNS_11char_traitsIcEENS_9allocatorIcEEEES7_EEPNS_11__tree_nodeIS8_PvEElEC1B8ue170006EPNS_15__tree_end_nodeIPNS_16__tree_node_baseISA_EEEE, symObjAddr: 0x126E0, symBinAddr: 0x100016978, symSize: 0x34 }
  - { offsetInCU: 0x4FFD5, offset: 0x4FFD5, size: 0x8, addend: 0x0, symName: __ZNSt3__115__tree_iteratorINS_12__value_typeINS_12basic_stringIcNS_11char_traitsIcEENS_9allocatorIcEEEES7_EEPNS_11__tree_nodeIS8_PvEElEC2B8ue170006EPNS_15__tree_end_nodeIPNS_16__tree_node_baseISA_EEEE, symObjAddr: 0x12714, symBinAddr: 0x1000169AC, symSize: 0x20 }
  - { offsetInCU: 0x5000E, offset: 0x5000E, size: 0x8, addend: 0x0, symName: __ZNSt3__121__tree_const_iteratorINS_12__value_typeINS_12basic_stringIcNS_11char_traitsIcEENS_9allocatorIcEEEES7_EEPNS_11__tree_nodeIS8_PvEElEC2B8ue170006ENS_15__tree_iteratorIS8_SC_lEE, symObjAddr: 0x12734, symBinAddr: 0x1000169CC, symSize: 0x20 }
  - { offsetInCU: 0x50047, offset: 0x50047, size: 0x8, addend: 0x0, symName: __ZNSt3__117__compressed_pairImNS_19__map_value_compareINS_12basic_stringIcNS_11char_traitsIcEENS_9allocatorIcEEEENS_12__value_typeIS7_S7_EENS_4lessIS7_EELb1EEEE6secondB8ue170006Ev, symObjAddr: 0x12754, symBinAddr: 0x1000169EC, symSize: 0x24 }
  - { offsetInCU: 0x5006D, offset: 0x5006D, size: 0x8, addend: 0x0, symName: __ZNSt3__122__compressed_pair_elemINS_19__map_value_compareINS_12basic_stringIcNS_11char_traitsIcEENS_9allocatorIcEEEENS_12__value_typeIS7_S7_EENS_4lessIS7_EELb1EEELi1ELb1EE5__getB8ue170006Ev, symObjAddr: 0x12778, symBinAddr: 0x100016A10, symSize: 0x14 }
  - { offsetInCU: 0x50093, offset: 0x50093, size: 0x8, addend: 0x0, symName: __ZNKSt3__14lessINS_12basic_stringIcNS_11char_traitsIcEENS_9allocatorIcEEEEEclB8ue170006ERKS6_S9_, symObjAddr: 0x1278C, symBinAddr: 0x100016A24, symSize: 0x50 }
  - { offsetInCU: 0x500D7, offset: 0x500D7, size: 0x8, addend: 0x0, symName: __ZNKSt3__112__value_typeINS_12basic_stringIcNS_11char_traitsIcEENS_9allocatorIcEEEES6_E11__get_valueB8ue170006Ev, symObjAddr: 0x127DC, symBinAddr: 0x100016A74, symSize: 0x24 }
  - { offsetInCU: 0x5010C, offset: 0x5010C, size: 0x8, addend: 0x0, symName: __ZNSt3__120_CmpUnspecifiedParamC1B8ue170006EMS0_i, symObjAddr: 0x12880, symBinAddr: 0x100016B18, symSize: 0x34 }
  - { offsetInCU: 0x50140, offset: 0x50140, size: 0x8, addend: 0x0, symName: __ZNKSt3__112basic_stringIcNS_11char_traitsIcEENS_9allocatorIcEEEcvNS_17basic_string_viewIcS2_EEB8ue170006Ev, symObjAddr: 0x12930, symBinAddr: 0x100016BC8, symSize: 0x50 }
  - { offsetInCU: 0x50166, offset: 0x50166, size: 0x8, addend: 0x0, symName: __ZNKSt3__117basic_string_viewIcNS_11char_traitsIcEEE7compareES3_, symObjAddr: 0x12980, symBinAddr: 0x100016C18, symSize: 0x13C }
  - { offsetInCU: 0x501B9, offset: 0x501B9, size: 0x8, addend: 0x0, symName: __ZNKSt3__117basic_string_viewIcNS_11char_traitsIcEEE4sizeB8ue170006Ev, symObjAddr: 0x12AE8, symBinAddr: 0x100016D80, symSize: 0x18 }
  - { offsetInCU: 0x501DF, offset: 0x501DF, size: 0x8, addend: 0x0, symName: __ZNSt3__111char_traitsIcE7compareB8ue170006EPKcS3_m, symObjAddr: 0x12B00, symBinAddr: 0x100016D98, symSize: 0x34 }
  - { offsetInCU: 0x5021E, offset: 0x5021E, size: 0x8, addend: 0x0, symName: __ZNKSt3__117basic_string_viewIcNS_11char_traitsIcEEE4dataB8ue170006Ev, symObjAddr: 0x12B34, symBinAddr: 0x100016DCC, symSize: 0x18 }
  - { offsetInCU: 0x5024E, offset: 0x5024E, size: 0x8, addend: 0x0, symName: __ZNKSt3__16__lessIvvEclB8ue170006ImmEEbRKT_RKT0_, symObjAddr: 0x12BA0, symBinAddr: 0x100016E38, symSize: 0x34 }
  - { offsetInCU: 0x502A2, offset: 0x502A2, size: 0x8, addend: 0x0, symName: __ZNSt3__117basic_string_viewIcNS_11char_traitsIcEEEC1B8ue170006EPKcm, symObjAddr: 0x12BD4, symBinAddr: 0x100016E6C, symSize: 0x3C }
  - { offsetInCU: 0x502EA, offset: 0x502EA, size: 0x8, addend: 0x0, symName: __ZNSt3__117basic_string_viewIcNS_11char_traitsIcEEEC2B8ue170006EPKcm, symObjAddr: 0x12C10, symBinAddr: 0x100016EA8, symSize: 0x2C }
  - { offsetInCU: 0x50332, offset: 0x50332, size: 0x8, addend: 0x0, symName: __ZNSt3__120_CmpUnspecifiedParamC2B8ue170006EMS0_i, symObjAddr: 0x12C3C, symBinAddr: 0x100016ED4, symSize: 0x18 }
  - { offsetInCU: 0x50366, offset: 0x50366, size: 0x8, addend: 0x0, symName: __ZNKSt3__116__tree_node_baseIPvE15__parent_unsafeB8ue170006Ev, symObjAddr: 0x12D9C, symBinAddr: 0x100017034, symSize: 0x18 }
  - { offsetInCU: 0x5038C, offset: 0x5038C, size: 0x8, addend: 0x0, symName: __ZNKSt3__16__treeINS_12__value_typeINS_12basic_stringIcNS_11char_traitsIcEENS_9allocatorIcEEEES7_EENS_19__map_value_compareIS7_S8_NS_4lessIS7_EELb1EEENS5_IS8_EEE10__root_ptrB8ue170006Ev, symObjAddr: 0x12DB4, symBinAddr: 0x10001704C, symSize: 0x24 }
  - { offsetInCU: 0x503B2, offset: 0x503B2, size: 0x8, addend: 0x0, symName: __ZNSt3__121__tree_const_iteratorINS_12__value_typeINS_12basic_stringIcNS_11char_traitsIcEENS_9allocatorIcEEEES7_EEPNS_11__tree_nodeIS8_PvEElEppB8ue170006Ev, symObjAddr: 0x12EC8, symBinAddr: 0x100017160, symSize: 0x38 }
  - { offsetInCU: 0x503D8, offset: 0x503D8, size: 0x8, addend: 0x0, symName: __ZNSt3__116allocator_traitsINS_9allocatorINS_11__tree_nodeINS_12__value_typeINS_12basic_stringIcNS_11char_traitsIcEENS1_IcEEEES8_EEPvEEEEE8allocateB8ue170006ERSC_m, symObjAddr: 0x12FC0, symBinAddr: 0x100017258, symSize: 0x2C }
  - { offsetInCU: 0x5040B, offset: 0x5040B, size: 0x8, addend: 0x0, symName: __ZNSt3__122__tree_node_destructorINS_9allocatorINS_11__tree_nodeINS_12__value_typeINS_12basic_stringIcNS_11char_traitsIcEENS1_IcEEEES8_EEPvEEEEEC1B8ue170006ERSC_b, symObjAddr: 0x12FEC, symBinAddr: 0x100017284, symSize: 0x48 }
  - { offsetInCU: 0x50459, offset: 0x50459, size: 0x8, addend: 0x0, symName: __ZNSt3__110unique_ptrINS_11__tree_nodeINS_12__value_typeINS_12basic_stringIcNS_11char_traitsIcEENS_9allocatorIcEEEES8_EEPvEENS_22__tree_node_destructorINS6_ISB_EEEEEC1B8ue170006ILb1EvEEPSB_NS_16__dependent_typeINS_27__unique_ptr_deleter_sfinaeISE_EEXT_EE20__good_rval_ref_typeE, symObjAddr: 0x13034, symBinAddr: 0x1000172CC, symSize: 0x3C }
  - { offsetInCU: 0x504AA, offset: 0x504AA, size: 0x8, addend: 0x0, symName: __ZNSt3__116allocator_traitsINS_9allocatorINS_11__tree_nodeINS_12__value_typeINS_12basic_stringIcNS_11char_traitsIcEENS1_IcEEEES8_EEPvEEEEE9constructB8ue170006INS_4pairIKS8_S8_EEJRKSH_EvvEEvRSC_PT_DpOT0_, symObjAddr: 0x13070, symBinAddr: 0x100017308, symSize: 0x30 }
  - { offsetInCU: 0x504FF, offset: 0x504FF, size: 0x8, addend: 0x0, symName: __ZNKSt3__110unique_ptrINS_11__tree_nodeINS_12__value_typeINS_12basic_stringIcNS_11char_traitsIcEENS_9allocatorIcEEEES8_EEPvEENS_22__tree_node_destructorINS6_ISB_EEEEEptB8ue170006Ev, symObjAddr: 0x130A0, symBinAddr: 0x100017338, symSize: 0x28 }
  - { offsetInCU: 0x50525, offset: 0x50525, size: 0x8, addend: 0x0, symName: __ZNSt3__110unique_ptrINS_11__tree_nodeINS_12__value_typeINS_12basic_stringIcNS_11char_traitsIcEENS_9allocatorIcEEEES8_EEPvEENS_22__tree_node_destructorINS6_ISB_EEEEE11get_deleterB8ue170006Ev, symObjAddr: 0x130C8, symBinAddr: 0x100017360, symSize: 0x24 }
  - { offsetInCU: 0x5054B, offset: 0x5054B, size: 0x8, addend: 0x0, symName: __ZNSt3__19allocatorINS_11__tree_nodeINS_12__value_typeINS_12basic_stringIcNS_11char_traitsIcEENS0_IcEEEES7_EEPvEEE8allocateB8ue170006Em, symObjAddr: 0x130EC, symBinAddr: 0x100017384, symSize: 0x5C }
  - { offsetInCU: 0x5057F, offset: 0x5057F, size: 0x8, addend: 0x0, symName: __ZNSt3__116allocator_traitsINS_9allocatorINS_11__tree_nodeINS_12__value_typeINS_12basic_stringIcNS_11char_traitsIcEENS1_IcEEEES8_EEPvEEEEE8max_sizeB8ue170006ISC_vvEEmRKSC_, symObjAddr: 0x13148, symBinAddr: 0x1000173E0, symSize: 0x28 }
  - { offsetInCU: 0x505AB, offset: 0x505AB, size: 0x8, addend: 0x0, symName: __ZNSt3__122__tree_node_destructorINS_9allocatorINS_11__tree_nodeINS_12__value_typeINS_12basic_stringIcNS_11char_traitsIcEENS1_IcEEEES8_EEPvEEEEEC2B8ue170006ERSC_b, symObjAddr: 0x13170, symBinAddr: 0x100017408, symSize: 0x38 }
  - { offsetInCU: 0x505F3, offset: 0x505F3, size: 0x8, addend: 0x0, symName: __ZNSt3__110unique_ptrINS_11__tree_nodeINS_12__value_typeINS_12basic_stringIcNS_11char_traitsIcEENS_9allocatorIcEEEES8_EEPvEENS_22__tree_node_destructorINS6_ISB_EEEEEC2B8ue170006ILb1EvEEPSB_NS_16__dependent_typeINS_27__unique_ptr_deleter_sfinaeISE_EEXT_EE20__good_rval_ref_typeE, symObjAddr: 0x131A8, symBinAddr: 0x100017440, symSize: 0x48 }
  - { offsetInCU: 0x50644, offset: 0x50644, size: 0x8, addend: 0x0, symName: __ZNSt3__117__compressed_pairIPNS_11__tree_nodeINS_12__value_typeINS_12basic_stringIcNS_11char_traitsIcEENS_9allocatorIcEEEES8_EEPvEENS_22__tree_node_destructorINS6_ISB_EEEEEC1B8ue170006IRSC_SF_EEOT_OT0_, symObjAddr: 0x131F0, symBinAddr: 0x100017488, symSize: 0x3C }
  - { offsetInCU: 0x5069C, offset: 0x5069C, size: 0x8, addend: 0x0, symName: __ZNSt3__117__compressed_pairIPNS_11__tree_nodeINS_12__value_typeINS_12basic_stringIcNS_11char_traitsIcEENS_9allocatorIcEEEES8_EEPvEENS_22__tree_node_destructorINS6_ISB_EEEEEC2B8ue170006IRSC_SF_EEOT_OT0_, symObjAddr: 0x1322C, symBinAddr: 0x1000174C4, symSize: 0x48 }
  - { offsetInCU: 0x506F4, offset: 0x506F4, size: 0x8, addend: 0x0, symName: __ZNSt3__122__compressed_pair_elemIPNS_11__tree_nodeINS_12__value_typeINS_12basic_stringIcNS_11char_traitsIcEENS_9allocatorIcEEEES8_EEPvEELi0ELb0EEC2B8ue170006IRSC_vEEOT_, symObjAddr: 0x13274, symBinAddr: 0x10001750C, symSize: 0x24 }
  - { offsetInCU: 0x50736, offset: 0x50736, size: 0x8, addend: 0x0, symName: __ZNSt3__122__compressed_pair_elemINS_22__tree_node_destructorINS_9allocatorINS_11__tree_nodeINS_12__value_typeINS_12basic_stringIcNS_11char_traitsIcEENS2_IcEEEES9_EEPvEEEEEELi1ELb0EEC2B8ue170006ISE_vEEOT_, symObjAddr: 0x13298, symBinAddr: 0x100017530, symSize: 0x24 }
  - { offsetInCU: 0x50778, offset: 0x50778, size: 0x8, addend: 0x0, symName: __ZNSt3__14pairIKNS_12basic_stringIcNS_11char_traitsIcEENS_9allocatorIcEEEES6_EC1B8ue170006ERKS8_, symObjAddr: 0x132F8, symBinAddr: 0x100017590, symSize: 0x34 }
  - { offsetInCU: 0x507AC, offset: 0x507AC, size: 0x8, addend: 0x0, symName: __ZNSt3__14pairIKNS_12basic_stringIcNS_11char_traitsIcEENS_9allocatorIcEEEES6_EC2B8ue170006ERKS8_, symObjAddr: 0x1332C, symBinAddr: 0x1000175C4, symSize: 0x70 }
  - { offsetInCU: 0x507E0, offset: 0x507E0, size: 0x8, addend: 0x0, symName: __ZNKSt3__117__compressed_pairIPNS_11__tree_nodeINS_12__value_typeINS_12basic_stringIcNS_11char_traitsIcEENS_9allocatorIcEEEES8_EEPvEENS_22__tree_node_destructorINS6_ISB_EEEEE5firstB8ue170006Ev, symObjAddr: 0x1339C, symBinAddr: 0x100017634, symSize: 0x24 }
  - { offsetInCU: 0x50806, offset: 0x50806, size: 0x8, addend: 0x0, symName: __ZNKSt3__122__compressed_pair_elemIPNS_11__tree_nodeINS_12__value_typeINS_12basic_stringIcNS_11char_traitsIcEENS_9allocatorIcEEEES8_EEPvEELi0ELb0EE5__getB8ue170006Ev, symObjAddr: 0x133C0, symBinAddr: 0x100017658, symSize: 0x14 }
  - { offsetInCU: 0x5082C, offset: 0x5082C, size: 0x8, addend: 0x0, symName: __ZNSt3__117__compressed_pairIPNS_11__tree_nodeINS_12__value_typeINS_12basic_stringIcNS_11char_traitsIcEENS_9allocatorIcEEEES8_EEPvEENS_22__tree_node_destructorINS6_ISB_EEEEE6secondB8ue170006Ev, symObjAddr: 0x133D4, symBinAddr: 0x10001766C, symSize: 0x28 }
  - { offsetInCU: 0x50852, offset: 0x50852, size: 0x8, addend: 0x0, symName: __ZNSt3__122__compressed_pair_elemINS_22__tree_node_destructorINS_9allocatorINS_11__tree_nodeINS_12__value_typeINS_12basic_stringIcNS_11char_traitsIcEENS2_IcEEEES9_EEPvEEEEEELi1ELb0EE5__getB8ue170006Ev, symObjAddr: 0x133FC, symBinAddr: 0x100017694, symSize: 0x14 }
  - { offsetInCU: 0x50878, offset: 0x50878, size: 0x8, addend: 0x0, symName: __ZNSt3__116__tree_node_baseIPvE12__set_parentB8ue170006EPS2_, symObjAddr: 0x13830, symBinAddr: 0x100017AC8, symSize: 0x20 }
  - { offsetInCU: 0x508AD, offset: 0x508AD, size: 0x8, addend: 0x0, symName: __ZNSt3__117__compressed_pairIPNS_11__tree_nodeINS_12__value_typeINS_12basic_stringIcNS_11char_traitsIcEENS_9allocatorIcEEEES8_EEPvEENS_22__tree_node_destructorINS6_ISB_EEEEE5firstB8ue170006Ev, symObjAddr: 0x13850, symBinAddr: 0x100017AE8, symSize: 0x24 }
  - { offsetInCU: 0x508D3, offset: 0x508D3, size: 0x8, addend: 0x0, symName: __ZNSt3__122__compressed_pair_elemIPNS_11__tree_nodeINS_12__value_typeINS_12basic_stringIcNS_11char_traitsIcEENS_9allocatorIcEEEES8_EEPvEELi0ELb0EE5__getB8ue170006Ev, symObjAddr: 0x13874, symBinAddr: 0x100017B0C, symSize: 0x14 }
  - { offsetInCU: 0x508F9, offset: 0x508F9, size: 0x8, addend: 0x0, symName: __ZNSt3__110unique_ptrINS_11__tree_nodeINS_12__value_typeINS_12basic_stringIcNS_11char_traitsIcEENS_9allocatorIcEEEES8_EEPvEENS_22__tree_node_destructorINS6_ISB_EEEEED2B8ue170006Ev, symObjAddr: 0x13888, symBinAddr: 0x100017B20, symSize: 0x30 }
  - { offsetInCU: 0x50923, offset: 0x50923, size: 0x8, addend: 0x0, symName: __ZNSt3__110unique_ptrINS_11__tree_nodeINS_12__value_typeINS_12basic_stringIcNS_11char_traitsIcEENS_9allocatorIcEEEES8_EEPvEENS_22__tree_node_destructorINS6_ISB_EEEEE5resetB8ue170006EPSB_, symObjAddr: 0x138B8, symBinAddr: 0x100017B50, symSize: 0x78 }
  - { offsetInCU: 0x50967, offset: 0x50967, size: 0x8, addend: 0x0, symName: __ZNSt3__122__tree_node_destructorINS_9allocatorINS_11__tree_nodeINS_12__value_typeINS_12basic_stringIcNS_11char_traitsIcEENS1_IcEEEES8_EEPvEEEEEclB8ue170006EPSB_, symObjAddr: 0x13930, symBinAddr: 0x100017BC8, symSize: 0x98 }
  - { offsetInCU: 0x5099C, offset: 0x5099C, size: 0x8, addend: 0x0, symName: __ZNSt3__115__tree_iteratorINS_12__value_typeINS_12basic_stringIcNS_11char_traitsIcEENS_9allocatorIcEEEES7_EEPNS_11__tree_nodeIS8_PvEElEC2B8ue170006ESC_, symObjAddr: 0x139C8, symBinAddr: 0x100017C60, symSize: 0x20 }
  - { offsetInCU: 0x509D5, offset: 0x509D5, size: 0x8, addend: 0x0, symName: __ZNSt3__14pairINS_15__tree_iteratorINS_12__value_typeINS_12basic_stringIcNS_11char_traitsIcEENS_9allocatorIcEEEES8_EEPNS_11__tree_nodeIS9_PvEElEEbEC2B8ue170006ISE_RbLSB_0EEEOT_OT0_, symObjAddr: 0x139E8, symBinAddr: 0x100017C80, symSize: 0x38 }
  - { offsetInCU: 0x50A33, offset: 0x50A33, size: 0x8, addend: 0x0, symName: __ZNSt3__114__map_iteratorINS_15__tree_iteratorINS_12__value_typeINS_12basic_stringIcNS_11char_traitsIcEENS_9allocatorIcEEEES8_EEPNS_11__tree_nodeIS9_PvEElEEEC2B8ue170006ESE_, symObjAddr: 0x13A20, symBinAddr: 0x100017CB8, symSize: 0x20 }
  - { offsetInCU: 0x50A6C, offset: 0x50A6C, size: 0x8, addend: 0x0, symName: __ZNSt3__120__map_const_iteratorINS_21__tree_const_iteratorINS_12__value_typeINS_12basic_stringIcNS_11char_traitsIcEENS_9allocatorIcEEEES8_EEPNS_11__tree_nodeIS9_PvEElEEEC2B8ue170006ESE_, symObjAddr: 0x13A40, symBinAddr: 0x100017CD8, symSize: 0x20 }
  - { offsetInCU: 0x50AA5, offset: 0x50AA5, size: 0x8, addend: 0x0, symName: __ZNKSt3__121__tree_const_iteratorINS_12__value_typeINS_12basic_stringIcNS_11char_traitsIcEENS_9allocatorIcEEEES7_EEPNS_11__tree_nodeIS8_PvEElEptB8ue170006Ev, symObjAddr: 0x13A60, symBinAddr: 0x100017CF8, symSize: 0x2C }
  - { offsetInCU: 0x50ACB, offset: 0x50ACB, size: 0x8, addend: 0x0, symName: __ZNSt3__114pointer_traitsIPKNS_12__value_typeINS_12basic_stringIcNS_11char_traitsIcEENS_9allocatorIcEEEES7_EEE10pointer_toB8ue170006ERS9_, symObjAddr: 0x13A8C, symBinAddr: 0x100017D24, symSize: 0x14 }
  - { offsetInCU: 0x50AEE, offset: 0x50AEE, size: 0x8, addend: 0x0, symName: __ZNKSt3__16__treeINS_12__value_typeINS_12basic_stringIcNS_11char_traitsIcEENS_9allocatorIcEEEES7_EENS_19__map_value_compareIS7_S8_NS_4lessIS7_EELb1EEENS5_IS8_EEE5beginB8ue170006Ev, symObjAddr: 0x13AA0, symBinAddr: 0x100017D38, symSize: 0x34 }
  - { offsetInCU: 0x50B14, offset: 0x50B14, size: 0x8, addend: 0x0, symName: __ZNKSt3__16__treeINS_12__value_typeINS_12basic_stringIcNS_11char_traitsIcEENS_9allocatorIcEEEES7_EENS_19__map_value_compareIS7_S8_NS_4lessIS7_EELb1EEENS5_IS8_EEE12__begin_nodeB8ue170006Ev, symObjAddr: 0x13AD4, symBinAddr: 0x100017D6C, symSize: 0x14 }
  - { offsetInCU: 0x50B3A, offset: 0x50B3A, size: 0x8, addend: 0x0, symName: __ZNSt3__121__tree_const_iteratorINS_12__value_typeINS_12basic_stringIcNS_11char_traitsIcEENS_9allocatorIcEEEES7_EEPNS_11__tree_nodeIS8_PvEElEC1B8ue170006EPNS_15__tree_end_nodeIPNS_16__tree_node_baseISA_EEEE, symObjAddr: 0x13AE8, symBinAddr: 0x100017D80, symSize: 0x34 }
  - { offsetInCU: 0x50B73, offset: 0x50B73, size: 0x8, addend: 0x0, symName: __ZNSt3__121__tree_const_iteratorINS_12__value_typeINS_12basic_stringIcNS_11char_traitsIcEENS_9allocatorIcEEEES7_EEPNS_11__tree_nodeIS8_PvEElEC2B8ue170006EPNS_15__tree_end_nodeIPNS_16__tree_node_baseISA_EEEE, symObjAddr: 0x13B1C, symBinAddr: 0x100017DB4, symSize: 0x20 }
  - { offsetInCU: 0x50BAC, offset: 0x50BAC, size: 0x8, addend: 0x0, symName: __ZNKSt3__16__treeINS_12__value_typeINS_12basic_stringIcNS_11char_traitsIcEENS_9allocatorIcEEEES7_EENS_19__map_value_compareIS7_S8_NS_4lessIS7_EELb1EEENS5_IS8_EEE3endB8ue170006Ev, symObjAddr: 0x13B3C, symBinAddr: 0x100017DD4, symSize: 0x34 }
  - { offsetInCU: 0x50BD2, offset: 0x50BD2, size: 0x8, addend: 0x0, symName: __ZNSt3__16__treeINS_12__value_typeINS_12basic_stringIcNS_11char_traitsIcEENS_9allocatorIcEEEES7_EENS_19__map_value_compareIS7_S8_NS_4lessIS7_EELb1EEENS5_IS8_EEED2Ev, symObjAddr: 0x13B70, symBinAddr: 0x100017E08, symSize: 0x38 }
  - { offsetInCU: 0x50BFE, offset: 0x50BFE, size: 0x8, addend: 0x0, symName: __ZN7tinyobj16texture_option_tD2Ev, symObjAddr: 0x13BA8, symBinAddr: 0x100017E40, symSize: 0x30 }
  - { offsetInCU: 0x50C2A, offset: 0x50C2A, size: 0x8, addend: 0x0, symName: __ZNSt3__117__compressed_pairIPN7tinyobj10material_tENS_9allocatorIS2_EEE6secondB8ue170006Ev, symObjAddr: 0x13BD8, symBinAddr: 0x100017E70, symSize: 0x24 }
  - { offsetInCU: 0x50C50, offset: 0x50C50, size: 0x8, addend: 0x0, symName: __ZNSt3__122__compressed_pair_elemINS_9allocatorIN7tinyobj10material_tEEELi1ELb1EE5__getB8ue170006Ev, symObjAddr: 0x13BFC, symBinAddr: 0x100017E94, symSize: 0x14 }
  - { offsetInCU: 0x50C76, offset: 0x50C76, size: 0x8, addend: 0x0, symName: __ZNSt3__16vectorIN7tinyobj10material_tENS_9allocatorIS2_EEE21_ConstructTransactionD2B8ue170006Ev, symObjAddr: 0x13C10, symBinAddr: 0x100017EA8, symSize: 0x20 }
  - { offsetInCU: 0x50CA0, offset: 0x50CA0, size: 0x8, addend: 0x0, symName: __ZNKSt3__16vectorIN7tinyobj10material_tENS_9allocatorIS2_EEE11__recommendB8ue170006Em, symObjAddr: 0x13C30, symBinAddr: 0x100017EC8, symSize: 0xB4 }
  - { offsetInCU: 0x50CF5, offset: 0x50CF5, size: 0x8, addend: 0x0, symName: __ZNSt3__114__split_bufferIN7tinyobj10material_tERNS_9allocatorIS2_EEEC1EmmS5_, symObjAddr: 0x13CE4, symBinAddr: 0x100017F7C, symSize: 0x44 }
  - { offsetInCU: 0x50D4B, offset: 0x50D4B, size: 0x8, addend: 0x0, symName: __ZNSt3__114__split_bufferIN7tinyobj10material_tERNS_9allocatorIS2_EEED1Ev, symObjAddr: 0x13E38, symBinAddr: 0x1000180D0, symSize: 0x2C }
  - { offsetInCU: 0x50D77, offset: 0x50D77, size: 0x8, addend: 0x0, symName: __ZNKSt3__16vectorIN7tinyobj10material_tENS_9allocatorIS2_EEE8max_sizeEv, symObjAddr: 0x13E64, symBinAddr: 0x1000180FC, symSize: 0x60 }
  - { offsetInCU: 0x50D9F, offset: 0x50D9F, size: 0x8, addend: 0x0, symName: __ZNKSt3__16vectorIN7tinyobj10material_tENS_9allocatorIS2_EEE20__throw_length_errorB8ue170006Ev, symObjAddr: 0x13EC4, symBinAddr: 0x10001815C, symSize: 0x1C }
  - { offsetInCU: 0x50DC5, offset: 0x50DC5, size: 0x8, addend: 0x0, symName: __ZNKSt3__16vectorIN7tinyobj10material_tENS_9allocatorIS2_EEE8capacityB8ue170006Ev, symObjAddr: 0x13EE0, symBinAddr: 0x100018178, symSize: 0x40 }
  - { offsetInCU: 0x50DF5, offset: 0x50DF5, size: 0x8, addend: 0x0, symName: __ZNSt3__116allocator_traitsINS_9allocatorIN7tinyobj10material_tEEEE8max_sizeB8ue170006IS4_vvEEmRKS4_, symObjAddr: 0x13F4C, symBinAddr: 0x1000181E4, symSize: 0x28 }
  - { offsetInCU: 0x50E21, offset: 0x50E21, size: 0x8, addend: 0x0, symName: __ZNKSt3__16vectorIN7tinyobj10material_tENS_9allocatorIS2_EEE7__allocB8ue170006Ev, symObjAddr: 0x13F74, symBinAddr: 0x10001820C, symSize: 0x28 }
  - { offsetInCU: 0x50E47, offset: 0x50E47, size: 0x8, addend: 0x0, symName: __ZNSt3__114numeric_limitsIlE3maxB8ue170006Ev, symObjAddr: 0x13F9C, symBinAddr: 0x100018234, symSize: 0x14 }
  - { offsetInCU: 0x50E5B, offset: 0x50E5B, size: 0x8, addend: 0x0, symName: __ZNKSt3__117__compressed_pairIPN7tinyobj10material_tENS_9allocatorIS2_EEE6secondB8ue170006Ev, symObjAddr: 0x13FB0, symBinAddr: 0x100018248, symSize: 0x24 }
  - { offsetInCU: 0x50E81, offset: 0x50E81, size: 0x8, addend: 0x0, symName: __ZNKSt3__122__compressed_pair_elemINS_9allocatorIN7tinyobj10material_tEEELi1ELb1EE5__getB8ue170006Ev, symObjAddr: 0x13FD4, symBinAddr: 0x10001826C, symSize: 0x14 }
  - { offsetInCU: 0x50EA7, offset: 0x50EA7, size: 0x8, addend: 0x0, symName: __ZNSt3__123__libcpp_numeric_limitsIlLb1EE3maxB8ue170006Ev, symObjAddr: 0x13FE8, symBinAddr: 0x100018280, symSize: 0x8 }
  - { offsetInCU: 0x50EBB, offset: 0x50EBB, size: 0x8, addend: 0x0, symName: __ZNKSt3__16vectorIN7tinyobj10material_tENS_9allocatorIS2_EEE9__end_capB8ue170006Ev, symObjAddr: 0x13FF0, symBinAddr: 0x100018288, symSize: 0x28 }
  - { offsetInCU: 0x50EE1, offset: 0x50EE1, size: 0x8, addend: 0x0, symName: __ZNKSt3__117__compressed_pairIPN7tinyobj10material_tENS_9allocatorIS2_EEE5firstB8ue170006Ev, symObjAddr: 0x14018, symBinAddr: 0x1000182B0, symSize: 0x24 }
  - { offsetInCU: 0x50F07, offset: 0x50F07, size: 0x8, addend: 0x0, symName: __ZNKSt3__122__compressed_pair_elemIPN7tinyobj10material_tELi0ELb0EE5__getB8ue170006Ev, symObjAddr: 0x1403C, symBinAddr: 0x1000182D4, symSize: 0x14 }
  - { offsetInCU: 0x50F2D, offset: 0x50F2D, size: 0x8, addend: 0x0, symName: __ZNSt3__114__split_bufferIN7tinyobj10material_tERNS_9allocatorIS2_EEEC2EmmS5_, symObjAddr: 0x140A4, symBinAddr: 0x10001833C, symSize: 0xE0 }
  - { offsetInCU: 0x50FA6, offset: 0x50FA6, size: 0x8, addend: 0x0, symName: __ZNSt3__117__compressed_pairIPN7tinyobj10material_tERNS_9allocatorIS2_EEEC1B8ue170006IDnS6_EEOT_OT0_, symObjAddr: 0x14184, symBinAddr: 0x10001841C, symSize: 0x3C }
  - { offsetInCU: 0x50FFE, offset: 0x50FFE, size: 0x8, addend: 0x0, symName: __ZNSt3__114__split_bufferIN7tinyobj10material_tERNS_9allocatorIS2_EEE7__allocB8ue170006Ev, symObjAddr: 0x14200, symBinAddr: 0x100018498, symSize: 0x28 }
  - { offsetInCU: 0x51024, offset: 0x51024, size: 0x8, addend: 0x0, symName: __ZNSt3__114__split_bufferIN7tinyobj10material_tERNS_9allocatorIS2_EEE9__end_capB8ue170006Ev, symObjAddr: 0x14228, symBinAddr: 0x1000184C0, symSize: 0x28 }
  - { offsetInCU: 0x5104A, offset: 0x5104A, size: 0x8, addend: 0x0, symName: __ZNSt3__117__compressed_pairIPN7tinyobj10material_tERNS_9allocatorIS2_EEEC2B8ue170006IDnS6_EEOT_OT0_, symObjAddr: 0x14250, symBinAddr: 0x1000184E8, symSize: 0x48 }
  - { offsetInCU: 0x510A2, offset: 0x510A2, size: 0x8, addend: 0x0, symName: __ZNSt3__122__compressed_pair_elemIPN7tinyobj10material_tELi0ELb0EEC2B8ue170006IDnvEEOT_, symObjAddr: 0x14298, symBinAddr: 0x100018530, symSize: 0x1C }
  - { offsetInCU: 0x510E4, offset: 0x510E4, size: 0x8, addend: 0x0, symName: __ZNSt3__122__compressed_pair_elemIRNS_9allocatorIN7tinyobj10material_tEEELi1ELb0EEC2B8ue170006IS5_vEEOT_, symObjAddr: 0x142B4, symBinAddr: 0x10001854C, symSize: 0x20 }
  - { offsetInCU: 0x51126, offset: 0x51126, size: 0x8, addend: 0x0, symName: __ZNSt3__19allocatorIN7tinyobj10material_tEE8allocateB8ue170006Em, symObjAddr: 0x142D4, symBinAddr: 0x10001856C, symSize: 0x5C }
  - { offsetInCU: 0x5115A, offset: 0x5115A, size: 0x8, addend: 0x0, symName: __ZNSt3__117__compressed_pairIPN7tinyobj10material_tERNS_9allocatorIS2_EEE6secondB8ue170006Ev, symObjAddr: 0x14330, symBinAddr: 0x1000185C8, symSize: 0x28 }
  - { offsetInCU: 0x51180, offset: 0x51180, size: 0x8, addend: 0x0, symName: __ZNSt3__122__compressed_pair_elemIRNS_9allocatorIN7tinyobj10material_tEEELi1ELb0EE5__getB8ue170006Ev, symObjAddr: 0x14358, symBinAddr: 0x1000185F0, symSize: 0x18 }
  - { offsetInCU: 0x511A6, offset: 0x511A6, size: 0x8, addend: 0x0, symName: __ZNSt3__117__compressed_pairIPN7tinyobj10material_tERNS_9allocatorIS2_EEE5firstB8ue170006Ev, symObjAddr: 0x14370, symBinAddr: 0x100018608, symSize: 0x24 }
  - { offsetInCU: 0x511CC, offset: 0x511CC, size: 0x8, addend: 0x0, symName: __ZNKSt3__16vectorIN7tinyobj10material_tENS_9allocatorIS2_EEE17__annotate_deleteB8ue170006Ev, symObjAddr: 0x14394, symBinAddr: 0x10001862C, symSize: 0xD4 }
  - { offsetInCU: 0x511F2, offset: 0x511F2, size: 0x8, addend: 0x0, symName: __ZNSt3__116reverse_iteratorIPN7tinyobj10material_tEEC1B8ue170006ES3_, symObjAddr: 0x14594, symBinAddr: 0x10001882C, symSize: 0x34 }
  - { offsetInCU: 0x5122A, offset: 0x5122A, size: 0x8, addend: 0x0, symName: __ZNKSt3__116reverse_iteratorIPN7tinyobj10material_tEE4baseB8ue170006Ev, symObjAddr: 0x145C8, symBinAddr: 0x100018860, symSize: 0x18 }
  - { offsetInCU: 0x51250, offset: 0x51250, size: 0x8, addend: 0x0, symName: __ZNKSt3__16vectorIN7tinyobj10material_tENS_9allocatorIS2_EEE14__annotate_newB8ue170006Em, symObjAddr: 0x1461C, symBinAddr: 0x1000188B4, symSize: 0xC8 }
  - { offsetInCU: 0x51285, offset: 0x51285, size: 0x8, addend: 0x0, symName: __ZNKSt3__16vectorIN7tinyobj10material_tENS_9allocatorIS2_EEE31__annotate_contiguous_containerB8ue170006EPKvS7_S7_S7_, symObjAddr: 0x146E4, symBinAddr: 0x10001897C, symSize: 0x20 }
  - { offsetInCU: 0x512DB, offset: 0x512DB, size: 0x8, addend: 0x0, symName: __ZNKSt3__16vectorIN7tinyobj10material_tENS_9allocatorIS2_EEE4dataB8ue170006Ev, symObjAddr: 0x14704, symBinAddr: 0x10001899C, symSize: 0x28 }
  - { offsetInCU: 0x51301, offset: 0x51301, size: 0x8, addend: 0x0, symName: __ZNSt3__129_AllocatorDestroyRangeReverseINS_9allocatorIN7tinyobj10material_tEEENS_16reverse_iteratorIPS3_EEEC1B8ue170006ERS4_RS7_SA_, symObjAddr: 0x14778, symBinAddr: 0x100018A10, symSize: 0x44 }
  - { offsetInCU: 0x5135E, offset: 0x5135E, size: 0x8, addend: 0x0, symName: __ZNSt3__116allocator_traitsINS_9allocatorIN7tinyobj10material_tEEEE9constructB8ue170006IS3_JS3_EvvEEvRS4_PT_DpOT0_, symObjAddr: 0x14804, symBinAddr: 0x100018A9C, symSize: 0x30 }
  - { offsetInCU: 0x513B3, offset: 0x513B3, size: 0x8, addend: 0x0, symName: __ZNKSt3__116reverse_iteratorIPN7tinyobj10material_tEEdeB8ue170006Ev, symObjAddr: 0x14858, symBinAddr: 0x100018AF0, symSize: 0x28 }
  - { offsetInCU: 0x513E7, offset: 0x513E7, size: 0x8, addend: 0x0, symName: __ZNSt3__116reverse_iteratorIPN7tinyobj10material_tEEppB8ue170006Ev, symObjAddr: 0x14880, symBinAddr: 0x100018B18, symSize: 0x20 }
  - { offsetInCU: 0x5140D, offset: 0x5140D, size: 0x8, addend: 0x0, symName: __ZNSt3__128__exception_guard_exceptionsINS_29_AllocatorDestroyRangeReverseINS_9allocatorIN7tinyobj10material_tEEENS_16reverse_iteratorIPS4_EEEEE10__completeB8ue170006Ev, symObjAddr: 0x148A0, symBinAddr: 0x100018B38, symSize: 0x1C }
  - { offsetInCU: 0x51433, offset: 0x51433, size: 0x8, addend: 0x0, symName: __ZNSt3__128__exception_guard_exceptionsINS_29_AllocatorDestroyRangeReverseINS_9allocatorIN7tinyobj10material_tEEENS_16reverse_iteratorIPS4_EEEEED1B8ue170006Ev, symObjAddr: 0x148BC, symBinAddr: 0x100018B54, symSize: 0x2C }
  - { offsetInCU: 0x5145D, offset: 0x5145D, size: 0x8, addend: 0x0, symName: __ZNSt3__128__exception_guard_exceptionsINS_29_AllocatorDestroyRangeReverseINS_9allocatorIN7tinyobj10material_tEEENS_16reverse_iteratorIPS4_EEEEEC1B8ue170006ES9_, symObjAddr: 0x148E8, symBinAddr: 0x100018B80, symSize: 0x34 }
  - { offsetInCU: 0x51496, offset: 0x51496, size: 0x8, addend: 0x0, symName: __ZNSt3__128__exception_guard_exceptionsINS_29_AllocatorDestroyRangeReverseINS_9allocatorIN7tinyobj10material_tEEENS_16reverse_iteratorIPS4_EEEEEC2B8ue170006ES9_, symObjAddr: 0x1491C, symBinAddr: 0x100018BB4, symSize: 0x30 }
  - { offsetInCU: 0x514CF, offset: 0x514CF, size: 0x8, addend: 0x0, symName: __ZNSt3__129_AllocatorDestroyRangeReverseINS_9allocatorIN7tinyobj10material_tEEENS_16reverse_iteratorIPS3_EEEC2B8ue170006ERS4_RS7_SA_, symObjAddr: 0x1494C, symBinAddr: 0x100018BE4, symSize: 0x38 }
  - { offsetInCU: 0x51526, offset: 0x51526, size: 0x8, addend: 0x0, symName: __ZN7tinyobj10material_tC1EOS0_, symObjAddr: 0x149C0, symBinAddr: 0x100018C58, symSize: 0x34 }
  - { offsetInCU: 0x5155B, offset: 0x5155B, size: 0x8, addend: 0x0, symName: __ZN7tinyobj10material_tC2EOS0_, symObjAddr: 0x149F4, symBinAddr: 0x100018C8C, symSize: 0x29C }
  - { offsetInCU: 0x51590, offset: 0x51590, size: 0x8, addend: 0x0, symName: __ZNSt3__112basic_stringIcNS_11char_traitsIcEENS_9allocatorIcEEEC1B8ue170006EOS5_, symObjAddr: 0x14C90, symBinAddr: 0x100018F28, symSize: 0x34 }
  - { offsetInCU: 0x515CF, offset: 0x515CF, size: 0x8, addend: 0x0, symName: __ZN7tinyobj16texture_option_tC1EOS0_, symObjAddr: 0x14CC4, symBinAddr: 0x100018F5C, symSize: 0x34 }
  - { offsetInCU: 0x51604, offset: 0x51604, size: 0x8, addend: 0x0, symName: __ZNSt3__13mapINS_12basic_stringIcNS_11char_traitsIcEENS_9allocatorIcEEEES6_NS_4lessIS6_EENS4_INS_4pairIKS6_S6_EEEEEC1B8ue170006EOSD_, symObjAddr: 0x14CF8, symBinAddr: 0x100018F90, symSize: 0x34 }
  - { offsetInCU: 0x5163D, offset: 0x5163D, size: 0x8, addend: 0x0, symName: __ZNSt3__112basic_stringIcNS_11char_traitsIcEENS_9allocatorIcEEEC2B8ue170006EOS5_, symObjAddr: 0x14D2C, symBinAddr: 0x100018FC4, symSize: 0x48 }
  - { offsetInCU: 0x51676, offset: 0x51676, size: 0x8, addend: 0x0, symName: __ZN7tinyobj16texture_option_tC2EOS0_, symObjAddr: 0x14D74, symBinAddr: 0x10001900C, symSize: 0x4C }
  - { offsetInCU: 0x516AB, offset: 0x516AB, size: 0x8, addend: 0x0, symName: __ZNSt3__13mapINS_12basic_stringIcNS_11char_traitsIcEENS_9allocatorIcEEEES6_NS_4lessIS6_EENS4_INS_4pairIKS6_S6_EEEEEC2B8ue170006EOSD_, symObjAddr: 0x14DC0, symBinAddr: 0x100019058, symSize: 0x34 }
  - { offsetInCU: 0x516E4, offset: 0x516E4, size: 0x8, addend: 0x0, symName: __ZNSt3__16__treeINS_12__value_typeINS_12basic_stringIcNS_11char_traitsIcEENS_9allocatorIcEEEES7_EENS_19__map_value_compareIS7_S8_NS_4lessIS7_EELb1EEENS5_IS8_EEEC1EOSE_, symObjAddr: 0x14DF4, symBinAddr: 0x10001908C, symSize: 0x34 }
  - { offsetInCU: 0x5171F, offset: 0x5171F, size: 0x8, addend: 0x0, symName: __ZNSt3__16__treeINS_12__value_typeINS_12basic_stringIcNS_11char_traitsIcEENS_9allocatorIcEEEES7_EENS_19__map_value_compareIS7_S8_NS_4lessIS7_EELb1EEENS5_IS8_EEEC2EOSE_, symObjAddr: 0x14E28, symBinAddr: 0x1000190C0, symSize: 0xFC }
  - { offsetInCU: 0x5175F, offset: 0x5175F, size: 0x8, addend: 0x0, symName: __ZNSt3__119__to_address_helperINS_16reverse_iteratorIPN7tinyobj10material_tEEEvE6__callB8ue170006ERKS5_, symObjAddr: 0x14F24, symBinAddr: 0x1000191BC, symSize: 0x38 }
  - { offsetInCU: 0x51782, offset: 0x51782, size: 0x8, addend: 0x0, symName: __ZNKSt3__116reverse_iteratorIPN7tinyobj10material_tEEptB8ue170006Ev, symObjAddr: 0x14F5C, symBinAddr: 0x1000191F4, symSize: 0x2C }
  - { offsetInCU: 0x517A8, offset: 0x517A8, size: 0x8, addend: 0x0, symName: __ZNSt3__128__exception_guard_exceptionsINS_29_AllocatorDestroyRangeReverseINS_9allocatorIN7tinyobj10material_tEEENS_16reverse_iteratorIPS4_EEEEED2B8ue170006Ev, symObjAddr: 0x1502C, symBinAddr: 0x1000192C4, symSize: 0x50 }
  - { offsetInCU: 0x517D2, offset: 0x517D2, size: 0x8, addend: 0x0, symName: __ZNKSt3__129_AllocatorDestroyRangeReverseINS_9allocatorIN7tinyobj10material_tEEENS_16reverse_iteratorIPS3_EEEclB8ue170006Ev, symObjAddr: 0x1507C, symBinAddr: 0x100019314, symSize: 0xB4 }
  - { offsetInCU: 0x517F9, offset: 0x517F9, size: 0x8, addend: 0x0, symName: __ZNSt3__116reverse_iteratorINS0_IPN7tinyobj10material_tEEEEC1B8ue170006ES4_, symObjAddr: 0x151A0, symBinAddr: 0x100019438, symSize: 0x3C }
  - { offsetInCU: 0x51831, offset: 0x51831, size: 0x8, addend: 0x0, symName: __ZNSt3__116allocator_traitsINS_9allocatorIN7tinyobj10material_tEEEE7destroyB8ue170006IS3_vvEEvRS4_PT_, symObjAddr: 0x1523C, symBinAddr: 0x1000194D4, symSize: 0x28 }
  - { offsetInCU: 0x5186C, offset: 0x5186C, size: 0x8, addend: 0x0, symName: __ZNSt3__116reverse_iteratorINS0_IPN7tinyobj10material_tEEEEppB8ue170006Ev, symObjAddr: 0x15288, symBinAddr: 0x100019520, symSize: 0x30 }
  - { offsetInCU: 0x51892, offset: 0x51892, size: 0x8, addend: 0x0, symName: __ZNKSt3__116reverse_iteratorINS0_IPN7tinyobj10material_tEEEE4baseB8ue170006Ev, symObjAddr: 0x152B8, symBinAddr: 0x100019550, symSize: 0x24 }
  - { offsetInCU: 0x518BD, offset: 0x518BD, size: 0x8, addend: 0x0, symName: __ZNSt3__119__to_address_helperINS_16reverse_iteratorINS1_IPN7tinyobj10material_tEEEEEvE6__callB8ue170006ERKS6_, symObjAddr: 0x15324, symBinAddr: 0x1000195BC, symSize: 0x38 }
  - { offsetInCU: 0x518E0, offset: 0x518E0, size: 0x8, addend: 0x0, symName: __ZNKSt3__116reverse_iteratorINS0_IPN7tinyobj10material_tEEEEptB8ue170006Ev, symObjAddr: 0x1535C, symBinAddr: 0x1000195F4, symSize: 0x4C }
  - { offsetInCU: 0x51906, offset: 0x51906, size: 0x8, addend: 0x0, symName: __ZNSt3__116reverse_iteratorIPN7tinyobj10material_tEEpLB8ue170006El, symObjAddr: 0x15458, symBinAddr: 0x1000196F0, symSize: 0x30 }
  - { offsetInCU: 0x5193A, offset: 0x5193A, size: 0x8, addend: 0x0, symName: __ZNSt3__116reverse_iteratorIPN7tinyobj10material_tEEmmB8ue170006Ev, symObjAddr: 0x15488, symBinAddr: 0x100019720, symSize: 0x20 }
  - { offsetInCU: 0x51960, offset: 0x51960, size: 0x8, addend: 0x0, symName: __ZNSt3__116reverse_iteratorINS0_IPN7tinyobj10material_tEEEEC2B8ue170006ES4_, symObjAddr: 0x154A8, symBinAddr: 0x100019740, symSize: 0x2C }
  - { offsetInCU: 0x51998, offset: 0x51998, size: 0x8, addend: 0x0, symName: __ZNSt3__116reverse_iteratorIPN7tinyobj10material_tEEC2B8ue170006ES3_, symObjAddr: 0x154D4, symBinAddr: 0x10001976C, symSize: 0x28 }
  - { offsetInCU: 0x519D0, offset: 0x519D0, size: 0x8, addend: 0x0, symName: __ZNSt3__114__split_bufferIN7tinyobj10material_tERNS_9allocatorIS2_EEED2Ev, symObjAddr: 0x154FC, symBinAddr: 0x100019794, symSize: 0x8C }
  - { offsetInCU: 0x519FC, offset: 0x519FC, size: 0x8, addend: 0x0, symName: __ZNSt3__114__split_bufferIN7tinyobj10material_tERNS_9allocatorIS2_EEE5clearB8ue170006Ev, symObjAddr: 0x15588, symBinAddr: 0x100019820, symSize: 0x28 }
  - { offsetInCU: 0x51A22, offset: 0x51A22, size: 0x8, addend: 0x0, symName: __ZNSt3__116allocator_traitsINS_9allocatorIN7tinyobj10material_tEEEE10deallocateB8ue170006ERS4_PS3_m, symObjAddr: 0x155B0, symBinAddr: 0x100019848, symSize: 0x34 }
  - { offsetInCU: 0x51A64, offset: 0x51A64, size: 0x8, addend: 0x0, symName: __ZNKSt3__114__split_bufferIN7tinyobj10material_tERNS_9allocatorIS2_EEE8capacityB8ue170006Ev, symObjAddr: 0x155E4, symBinAddr: 0x10001987C, symSize: 0x40 }
  - { offsetInCU: 0x51A8A, offset: 0x51A8A, size: 0x8, addend: 0x0, symName: __ZNSt3__114__split_bufferIN7tinyobj10material_tERNS_9allocatorIS2_EEE17__destruct_at_endB8ue170006EPS2_, symObjAddr: 0x15624, symBinAddr: 0x1000198BC, symSize: 0x2C }
  - { offsetInCU: 0x51ABE, offset: 0x51ABE, size: 0x8, addend: 0x0, symName: __ZNSt3__114__split_bufferIN7tinyobj10material_tERNS_9allocatorIS2_EEE17__destruct_at_endB8ue170006EPS2_NS_17integral_constantIbLb0EEE, symObjAddr: 0x15650, symBinAddr: 0x1000198E8, symSize: 0x80 }
  - { offsetInCU: 0x51AFE, offset: 0x51AFE, size: 0x8, addend: 0x0, symName: __ZNSt3__19allocatorIN7tinyobj10material_tEE10deallocateB8ue170006EPS2_m, symObjAddr: 0x156D0, symBinAddr: 0x100019968, symSize: 0x44 }
  - { offsetInCU: 0x51B40, offset: 0x51B40, size: 0x8, addend: 0x0, symName: __ZNKSt3__114__split_bufferIN7tinyobj10material_tERNS_9allocatorIS2_EEE9__end_capB8ue170006Ev, symObjAddr: 0x15714, symBinAddr: 0x1000199AC, symSize: 0x28 }
  - { offsetInCU: 0x51B66, offset: 0x51B66, size: 0x8, addend: 0x0, symName: __ZNKSt3__117__compressed_pairIPN7tinyobj10material_tERNS_9allocatorIS2_EEE5firstB8ue170006Ev, symObjAddr: 0x1573C, symBinAddr: 0x1000199D4, symSize: 0x24 }
  - { offsetInCU: 0x51B8C, offset: 0x51B8C, size: 0x8, addend: 0x0, symName: __ZNSt3__112basic_stringIcNS_11char_traitsIcEENS_9allocatorIcEEEC2B8ue170006EPKcm, symObjAddr: 0x15760, symBinAddr: 0x1000199F8, symSize: 0x4C }
  - { offsetInCU: 0x51BD4, offset: 0x51BD4, size: 0x8, addend: 0x0, symName: __ZNSt3__14pairINS_12basic_stringIcNS_11char_traitsIcEENS_9allocatorIcEEEES6_EC2B8ue170006IRS6_S9_LPv0EEEOT_OT0_, symObjAddr: 0x157AC, symBinAddr: 0x100019A44, symSize: 0x70 }
  - { offsetInCU: 0x51C32, offset: 0x51C32, size: 0x8, addend: 0x0, symName: __ZNSt3__14pairINS_12basic_stringIcNS_11char_traitsIcEENS_9allocatorIcEEEES6_ED2Ev, symObjAddr: 0x1581C, symBinAddr: 0x100019AB4, symSize: 0x38 }
  - { offsetInCU: 0x51C5E, offset: 0x51C5E, size: 0x8, addend: 0x0, symName: __ZNSt3__118basic_stringstreamIcNS_11char_traitsIcEENS_9allocatorIcEEED2Ev, symObjAddr: 0x15854, symBinAddr: 0x100019AEC, symSize: 0x6C }
  - { offsetInCU: 0x51C98, offset: 0x51C98, size: 0x8, addend: 0x0, symName: __ZThn16_NSt3__118basic_stringstreamIcNS_11char_traitsIcEENS_9allocatorIcEEED1Ev, symObjAddr: 0x158C0, symBinAddr: 0x100019B58, symSize: 0x1C }
  - { offsetInCU: 0x51CAF, offset: 0x51CAF, size: 0x8, addend: 0x0, symName: __ZTv0_n24_NSt3__118basic_stringstreamIcNS_11char_traitsIcEENS_9allocatorIcEEED1Ev, symObjAddr: 0x158DC, symBinAddr: 0x100019B74, symSize: 0x28 }
  - { offsetInCU: 0x51CC6, offset: 0x51CC6, size: 0x8, addend: 0x0, symName: __ZN7tinyobj10material_tD2Ev, symObjAddr: 0x15904, symBinAddr: 0x100019B9C, symSize: 0x170 }
  - { offsetInCU: 0x51CF2, offset: 0x51CF2, size: 0x8, addend: 0x0, symName: __ZNSt3__13mapINS_12basic_stringIcNS_11char_traitsIcEENS_9allocatorIcEEEES6_NS_4lessIS6_EENS4_INS_4pairIKS6_S6_EEEEED1B8ue170006Ev, symObjAddr: 0x15A74, symBinAddr: 0x100019D0C, symSize: 0x2C }
  - { offsetInCU: 0x51D1C, offset: 0x51D1C, size: 0x8, addend: 0x0, symName: __ZNSt3__13mapINS_12basic_stringIcNS_11char_traitsIcEENS_9allocatorIcEEEES6_NS_4lessIS6_EENS4_INS_4pairIKS6_S6_EEEEED2B8ue170006Ev, symObjAddr: 0x15AA0, symBinAddr: 0x100019D38, symSize: 0x2C }
  - { offsetInCU: 0x51D46, offset: 0x51D46, size: 0x8, addend: 0x0, symName: __ZNSt3__16vectorINS_12basic_stringIcNS_11char_traitsIcEENS_9allocatorIcEEEENS4_IS6_EEEC2B8ue170006Ev, symObjAddr: 0x15ACC, symBinAddr: 0x100019D64, symSize: 0x4C }
  - { offsetInCU: 0x51D70, offset: 0x51D70, size: 0x8, addend: 0x0, symName: __ZNSt3__117__compressed_pairIPNS_12basic_stringIcNS_11char_traitsIcEENS_9allocatorIcEEEENS4_IS6_EEEC1B8ue170006IDnNS_18__default_init_tagEEEOT_OT0_, symObjAddr: 0x15B18, symBinAddr: 0x100019DB0, symSize: 0x3C }
  - { offsetInCU: 0x51DC8, offset: 0x51DC8, size: 0x8, addend: 0x0, symName: __ZNSt3__117__compressed_pairIPNS_12basic_stringIcNS_11char_traitsIcEENS_9allocatorIcEEEENS4_IS6_EEEC2B8ue170006IDnNS_18__default_init_tagEEEOT_OT0_, symObjAddr: 0x15B54, symBinAddr: 0x100019DEC, symSize: 0x40 }
  - { offsetInCU: 0x51E20, offset: 0x51E20, size: 0x8, addend: 0x0, symName: __ZNSt3__122__compressed_pair_elemIPNS_12basic_stringIcNS_11char_traitsIcEENS_9allocatorIcEEEELi0ELb0EEC2B8ue170006IDnvEEOT_, symObjAddr: 0x15B94, symBinAddr: 0x100019E2C, symSize: 0x1C }
  - { offsetInCU: 0x51E62, offset: 0x51E62, size: 0x8, addend: 0x0, symName: __ZNSt3__122__compressed_pair_elemINS_9allocatorINS_12basic_stringIcNS_11char_traitsIcEENS1_IcEEEEEELi1ELb1EEC2B8ue170006ENS_18__default_init_tagE, symObjAddr: 0x15BB0, symBinAddr: 0x100019E48, symSize: 0x2C }
  - { offsetInCU: 0x51E96, offset: 0x51E96, size: 0x8, addend: 0x0, symName: __ZNSt3__19allocatorINS_12basic_stringIcNS_11char_traitsIcEENS0_IcEEEEEC2B8ue170006Ev, symObjAddr: 0x15BDC, symBinAddr: 0x100019E74, symSize: 0x2C }
  - { offsetInCU: 0x51EC0, offset: 0x51EC0, size: 0x8, addend: 0x0, symName: __ZNSt3__116__non_trivial_ifILb1ENS_9allocatorINS_12basic_stringIcNS_11char_traitsIcEENS1_IcEEEEEEEC2B8ue170006Ev, symObjAddr: 0x15C08, symBinAddr: 0x100019EA0, symSize: 0x14 }
  - { offsetInCU: 0x51EEA, offset: 0x51EEA, size: 0x8, addend: 0x0, symName: __ZNSt3__16vectorINS_12basic_stringIcNS_11char_traitsIcEENS_9allocatorIcEEEENS4_IS6_EEE9__end_capB8ue170006Ev, symObjAddr: 0x15C1C, symBinAddr: 0x100019EB4, symSize: 0x28 }
  - { offsetInCU: 0x51F10, offset: 0x51F10, size: 0x8, addend: 0x0, symName: __ZNSt3__16vectorINS_12basic_stringIcNS_11char_traitsIcEENS_9allocatorIcEEEENS4_IS6_EEE22__construct_one_at_endB8ue170006IJRKS6_EEEvDpOT_, symObjAddr: 0x15C44, symBinAddr: 0x100019EDC, symSize: 0x90 }
  - { offsetInCU: 0x51F5F, offset: 0x51F5F, size: 0x8, addend: 0x0, symName: __ZNSt3__16vectorINS_12basic_stringIcNS_11char_traitsIcEENS_9allocatorIcEEEENS4_IS6_EEE21__push_back_slow_pathIRKS6_EEvOT_, symObjAddr: 0x15CD4, symBinAddr: 0x100019F6C, symSize: 0xD8 }
  - { offsetInCU: 0x51FBD, offset: 0x51FBD, size: 0x8, addend: 0x0, symName: __ZNSt3__117__compressed_pairIPNS_12basic_stringIcNS_11char_traitsIcEENS_9allocatorIcEEEENS4_IS6_EEE5firstB8ue170006Ev, symObjAddr: 0x15DAC, symBinAddr: 0x10001A044, symSize: 0x24 }
  - { offsetInCU: 0x51FE3, offset: 0x51FE3, size: 0x8, addend: 0x0, symName: __ZNSt3__122__compressed_pair_elemIPNS_12basic_stringIcNS_11char_traitsIcEENS_9allocatorIcEEEELi0ELb0EE5__getB8ue170006Ev, symObjAddr: 0x15DD0, symBinAddr: 0x10001A068, symSize: 0x14 }
  - { offsetInCU: 0x52022, offset: 0x52022, size: 0x8, addend: 0x0, symName: __ZNSt3__16vectorINS_12basic_stringIcNS_11char_traitsIcEENS_9allocatorIcEEEENS4_IS6_EEE21_ConstructTransactionC1B8ue170006ERS8_m, symObjAddr: 0x15DE4, symBinAddr: 0x10001A07C, symSize: 0x3C }
  - { offsetInCU: 0x5206A, offset: 0x5206A, size: 0x8, addend: 0x0, symName: __ZNSt3__116allocator_traitsINS_9allocatorINS_12basic_stringIcNS_11char_traitsIcEENS1_IcEEEEEEE9constructB8ue170006IS6_JRKS6_EvvEEvRS7_PT_DpOT0_, symObjAddr: 0x15E20, symBinAddr: 0x10001A0B8, symSize: 0x30 }
  - { offsetInCU: 0x520BF, offset: 0x520BF, size: 0x8, addend: 0x0, symName: __ZNSt3__16vectorINS_12basic_stringIcNS_11char_traitsIcEENS_9allocatorIcEEEENS4_IS6_EEE7__allocB8ue170006Ev, symObjAddr: 0x15E50, symBinAddr: 0x10001A0E8, symSize: 0x28 }
  - { offsetInCU: 0x520E5, offset: 0x520E5, size: 0x8, addend: 0x0, symName: __ZNSt3__16vectorINS_12basic_stringIcNS_11char_traitsIcEENS_9allocatorIcEEEENS4_IS6_EEE21_ConstructTransactionD1B8ue170006Ev, symObjAddr: 0x15E8C, symBinAddr: 0x10001A124, symSize: 0x2C }
  - { offsetInCU: 0x5210F, offset: 0x5210F, size: 0x8, addend: 0x0, symName: __ZNSt3__16vectorINS_12basic_stringIcNS_11char_traitsIcEENS_9allocatorIcEEEENS4_IS6_EEE21_ConstructTransactionC2B8ue170006ERS8_m, symObjAddr: 0x15EB8, symBinAddr: 0x10001A150, symSize: 0x4C }
  - { offsetInCU: 0x52157, offset: 0x52157, size: 0x8, addend: 0x0, symName: __ZNSt3__117__compressed_pairIPNS_12basic_stringIcNS_11char_traitsIcEENS_9allocatorIcEEEENS4_IS6_EEE6secondB8ue170006Ev, symObjAddr: 0x15F40, symBinAddr: 0x10001A1D8, symSize: 0x24 }
  - { offsetInCU: 0x5217D, offset: 0x5217D, size: 0x8, addend: 0x0, symName: __ZNSt3__122__compressed_pair_elemINS_9allocatorINS_12basic_stringIcNS_11char_traitsIcEENS1_IcEEEEEELi1ELb1EE5__getB8ue170006Ev, symObjAddr: 0x15F64, symBinAddr: 0x10001A1FC, symSize: 0x14 }
  - { offsetInCU: 0x521A3, offset: 0x521A3, size: 0x8, addend: 0x0, symName: __ZNSt3__16vectorINS_12basic_stringIcNS_11char_traitsIcEENS_9allocatorIcEEEENS4_IS6_EEE21_ConstructTransactionD2B8ue170006Ev, symObjAddr: 0x15F78, symBinAddr: 0x10001A210, symSize: 0x20 }
  - { offsetInCU: 0x521CD, offset: 0x521CD, size: 0x8, addend: 0x0, symName: __ZNKSt3__16vectorINS_12basic_stringIcNS_11char_traitsIcEENS_9allocatorIcEEEENS4_IS6_EEE11__recommendB8ue170006Em, symObjAddr: 0x15F98, symBinAddr: 0x10001A230, symSize: 0xB4 }
  - { offsetInCU: 0x52222, offset: 0x52222, size: 0x8, addend: 0x0, symName: __ZNSt3__114__split_bufferINS_12basic_stringIcNS_11char_traitsIcEENS_9allocatorIcEEEERNS4_IS6_EEEC1EmmS8_, symObjAddr: 0x1604C, symBinAddr: 0x10001A2E4, symSize: 0x44 }
  - { offsetInCU: 0x52278, offset: 0x52278, size: 0x8, addend: 0x0, symName: __ZNSt3__114__split_bufferINS_12basic_stringIcNS_11char_traitsIcEENS_9allocatorIcEEEERNS4_IS6_EEED1Ev, symObjAddr: 0x161A0, symBinAddr: 0x10001A438, symSize: 0x2C }
  - { offsetInCU: 0x522A4, offset: 0x522A4, size: 0x8, addend: 0x0, symName: __ZNKSt3__16vectorINS_12basic_stringIcNS_11char_traitsIcEENS_9allocatorIcEEEENS4_IS6_EEE8max_sizeEv, symObjAddr: 0x161CC, symBinAddr: 0x10001A464, symSize: 0x60 }
  - { offsetInCU: 0x522CC, offset: 0x522CC, size: 0x8, addend: 0x0, symName: __ZNKSt3__16vectorINS_12basic_stringIcNS_11char_traitsIcEENS_9allocatorIcEEEENS4_IS6_EEE20__throw_length_errorB8ue170006Ev, symObjAddr: 0x1622C, symBinAddr: 0x10001A4C4, symSize: 0x1C }
  - { offsetInCU: 0x522F2, offset: 0x522F2, size: 0x8, addend: 0x0, symName: __ZNKSt3__16vectorINS_12basic_stringIcNS_11char_traitsIcEENS_9allocatorIcEEEENS4_IS6_EEE8capacityB8ue170006Ev, symObjAddr: 0x16248, symBinAddr: 0x10001A4E0, symSize: 0x40 }
  - { offsetInCU: 0x52322, offset: 0x52322, size: 0x8, addend: 0x0, symName: __ZNSt3__116allocator_traitsINS_9allocatorINS_12basic_stringIcNS_11char_traitsIcEENS1_IcEEEEEEE8max_sizeB8ue170006IS7_vvEEmRKS7_, symObjAddr: 0x16288, symBinAddr: 0x10001A520, symSize: 0x28 }
  - { offsetInCU: 0x5234E, offset: 0x5234E, size: 0x8, addend: 0x0, symName: __ZNKSt3__16vectorINS_12basic_stringIcNS_11char_traitsIcEENS_9allocatorIcEEEENS4_IS6_EEE7__allocB8ue170006Ev, symObjAddr: 0x162B0, symBinAddr: 0x10001A548, symSize: 0x28 }
  - { offsetInCU: 0x52374, offset: 0x52374, size: 0x8, addend: 0x0, symName: __ZNKSt3__117__compressed_pairIPNS_12basic_stringIcNS_11char_traitsIcEENS_9allocatorIcEEEENS4_IS6_EEE6secondB8ue170006Ev, symObjAddr: 0x162D8, symBinAddr: 0x10001A570, symSize: 0x24 }
  - { offsetInCU: 0x5239A, offset: 0x5239A, size: 0x8, addend: 0x0, symName: __ZNKSt3__122__compressed_pair_elemINS_9allocatorINS_12basic_stringIcNS_11char_traitsIcEENS1_IcEEEEEELi1ELb1EE5__getB8ue170006Ev, symObjAddr: 0x162FC, symBinAddr: 0x10001A594, symSize: 0x14 }
  - { offsetInCU: 0x523C0, offset: 0x523C0, size: 0x8, addend: 0x0, symName: __ZNKSt3__16vectorINS_12basic_stringIcNS_11char_traitsIcEENS_9allocatorIcEEEENS4_IS6_EEE9__end_capB8ue170006Ev, symObjAddr: 0x16310, symBinAddr: 0x10001A5A8, symSize: 0x28 }
  - { offsetInCU: 0x523E6, offset: 0x523E6, size: 0x8, addend: 0x0, symName: __ZNKSt3__117__compressed_pairIPNS_12basic_stringIcNS_11char_traitsIcEENS_9allocatorIcEEEENS4_IS6_EEE5firstB8ue170006Ev, symObjAddr: 0x16338, symBinAddr: 0x10001A5D0, symSize: 0x24 }
  - { offsetInCU: 0x5240C, offset: 0x5240C, size: 0x8, addend: 0x0, symName: __ZNKSt3__122__compressed_pair_elemIPNS_12basic_stringIcNS_11char_traitsIcEENS_9allocatorIcEEEELi0ELb0EE5__getB8ue170006Ev, symObjAddr: 0x1635C, symBinAddr: 0x10001A5F4, symSize: 0x14 }
  - { offsetInCU: 0x52432, offset: 0x52432, size: 0x8, addend: 0x0, symName: __ZNSt3__114__split_bufferINS_12basic_stringIcNS_11char_traitsIcEENS_9allocatorIcEEEERNS4_IS6_EEEC2EmmS8_, symObjAddr: 0x16370, symBinAddr: 0x10001A608, symSize: 0xE0 }
  - { offsetInCU: 0x524A5, offset: 0x524A5, size: 0x8, addend: 0x0, symName: __ZNSt3__117__compressed_pairIPNS_12basic_stringIcNS_11char_traitsIcEENS_9allocatorIcEEEERNS4_IS6_EEEC1B8ue170006IDnS9_EEOT_OT0_, symObjAddr: 0x16450, symBinAddr: 0x10001A6E8, symSize: 0x3C }
  - { offsetInCU: 0x524FD, offset: 0x524FD, size: 0x8, addend: 0x0, symName: __ZNSt3__114__split_bufferINS_12basic_stringIcNS_11char_traitsIcEENS_9allocatorIcEEEERNS4_IS6_EEE7__allocB8ue170006Ev, symObjAddr: 0x164CC, symBinAddr: 0x10001A764, symSize: 0x28 }
  - { offsetInCU: 0x52523, offset: 0x52523, size: 0x8, addend: 0x0, symName: __ZNSt3__114__split_bufferINS_12basic_stringIcNS_11char_traitsIcEENS_9allocatorIcEEEERNS4_IS6_EEE9__end_capB8ue170006Ev, symObjAddr: 0x164F4, symBinAddr: 0x10001A78C, symSize: 0x28 }
  - { offsetInCU: 0x52549, offset: 0x52549, size: 0x8, addend: 0x0, symName: __ZNSt3__117__compressed_pairIPNS_12basic_stringIcNS_11char_traitsIcEENS_9allocatorIcEEEERNS4_IS6_EEEC2B8ue170006IDnS9_EEOT_OT0_, symObjAddr: 0x1651C, symBinAddr: 0x10001A7B4, symSize: 0x48 }
  - { offsetInCU: 0x525A1, offset: 0x525A1, size: 0x8, addend: 0x0, symName: __ZNSt3__122__compressed_pair_elemIRNS_9allocatorINS_12basic_stringIcNS_11char_traitsIcEENS1_IcEEEEEELi1ELb0EEC2B8ue170006IS8_vEEOT_, symObjAddr: 0x16564, symBinAddr: 0x10001A7FC, symSize: 0x20 }
  - { offsetInCU: 0x525E3, offset: 0x525E3, size: 0x8, addend: 0x0, symName: __ZNSt3__19allocatorINS_12basic_stringIcNS_11char_traitsIcEENS0_IcEEEEE8allocateB8ue170006Em, symObjAddr: 0x16584, symBinAddr: 0x10001A81C, symSize: 0x5C }
  - { offsetInCU: 0x52617, offset: 0x52617, size: 0x8, addend: 0x0, symName: __ZNSt3__117__compressed_pairIPNS_12basic_stringIcNS_11char_traitsIcEENS_9allocatorIcEEEERNS4_IS6_EEE6secondB8ue170006Ev, symObjAddr: 0x165E0, symBinAddr: 0x10001A878, symSize: 0x28 }
  - { offsetInCU: 0x5263D, offset: 0x5263D, size: 0x8, addend: 0x0, symName: __ZNSt3__122__compressed_pair_elemIRNS_9allocatorINS_12basic_stringIcNS_11char_traitsIcEENS1_IcEEEEEELi1ELb0EE5__getB8ue170006Ev, symObjAddr: 0x16608, symBinAddr: 0x10001A8A0, symSize: 0x18 }
  - { offsetInCU: 0x52663, offset: 0x52663, size: 0x8, addend: 0x0, symName: __ZNSt3__117__compressed_pairIPNS_12basic_stringIcNS_11char_traitsIcEENS_9allocatorIcEEEERNS4_IS6_EEE5firstB8ue170006Ev, symObjAddr: 0x16620, symBinAddr: 0x10001A8B8, symSize: 0x24 }
  - { offsetInCU: 0x52689, offset: 0x52689, size: 0x8, addend: 0x0, symName: __ZNKSt3__16vectorINS_12basic_stringIcNS_11char_traitsIcEENS_9allocatorIcEEEENS4_IS6_EEE17__annotate_deleteB8ue170006Ev, symObjAddr: 0x16644, symBinAddr: 0x10001A8DC, symSize: 0xD4 }
  - { offsetInCU: 0x526AF, offset: 0x526AF, size: 0x8, addend: 0x0, symName: __ZNSt3__116reverse_iteratorIPNS_12basic_stringIcNS_11char_traitsIcEENS_9allocatorIcEEEEEC1B8ue170006ES7_, symObjAddr: 0x16844, symBinAddr: 0x10001AADC, symSize: 0x34 }
  - { offsetInCU: 0x526E7, offset: 0x526E7, size: 0x8, addend: 0x0, symName: __ZNKSt3__116reverse_iteratorIPNS_12basic_stringIcNS_11char_traitsIcEENS_9allocatorIcEEEEE4baseB8ue170006Ev, symObjAddr: 0x16878, symBinAddr: 0x10001AB10, symSize: 0x18 }
  - { offsetInCU: 0x5270D, offset: 0x5270D, size: 0x8, addend: 0x0, symName: __ZNKSt3__16vectorINS_12basic_stringIcNS_11char_traitsIcEENS_9allocatorIcEEEENS4_IS6_EEE14__annotate_newB8ue170006Em, symObjAddr: 0x168CC, symBinAddr: 0x10001AB64, symSize: 0xC8 }
  - { offsetInCU: 0x52742, offset: 0x52742, size: 0x8, addend: 0x0, symName: __ZNKSt3__16vectorINS_12basic_stringIcNS_11char_traitsIcEENS_9allocatorIcEEEENS4_IS6_EEE31__annotate_contiguous_containerB8ue170006EPKvSA_SA_SA_, symObjAddr: 0x16994, symBinAddr: 0x10001AC2C, symSize: 0x20 }
  - { offsetInCU: 0x52798, offset: 0x52798, size: 0x8, addend: 0x0, symName: __ZNKSt3__16vectorINS_12basic_stringIcNS_11char_traitsIcEENS_9allocatorIcEEEENS4_IS6_EEE4dataB8ue170006Ev, symObjAddr: 0x169B4, symBinAddr: 0x10001AC4C, symSize: 0x28 }
  - { offsetInCU: 0x527BE, offset: 0x527BE, size: 0x8, addend: 0x0, symName: __ZNSt3__129_AllocatorDestroyRangeReverseINS_9allocatorINS_12basic_stringIcNS_11char_traitsIcEENS1_IcEEEEEENS_16reverse_iteratorIPS6_EEEC1B8ue170006ERS7_RSA_SD_, symObjAddr: 0x16A28, symBinAddr: 0x10001ACC0, symSize: 0x44 }
  - { offsetInCU: 0x5281B, offset: 0x5281B, size: 0x8, addend: 0x0, symName: __ZNSt3__116allocator_traitsINS_9allocatorINS_12basic_stringIcNS_11char_traitsIcEENS1_IcEEEEEEE9constructB8ue170006IS6_JS6_EvvEEvRS7_PT_DpOT0_, symObjAddr: 0x16AB4, symBinAddr: 0x10001AD4C, symSize: 0x30 }
  - { offsetInCU: 0x52870, offset: 0x52870, size: 0x8, addend: 0x0, symName: __ZNKSt3__116reverse_iteratorIPNS_12basic_stringIcNS_11char_traitsIcEENS_9allocatorIcEEEEEdeB8ue170006Ev, symObjAddr: 0x16B08, symBinAddr: 0x10001ADA0, symSize: 0x28 }
  - { offsetInCU: 0x528A4, offset: 0x528A4, size: 0x8, addend: 0x0, symName: __ZNSt3__116reverse_iteratorIPNS_12basic_stringIcNS_11char_traitsIcEENS_9allocatorIcEEEEEppB8ue170006Ev, symObjAddr: 0x16B30, symBinAddr: 0x10001ADC8, symSize: 0x20 }
  - { offsetInCU: 0x528CA, offset: 0x528CA, size: 0x8, addend: 0x0, symName: __ZNSt3__128__exception_guard_exceptionsINS_29_AllocatorDestroyRangeReverseINS_9allocatorINS_12basic_stringIcNS_11char_traitsIcEENS2_IcEEEEEENS_16reverse_iteratorIPS7_EEEEE10__completeB8ue170006Ev, symObjAddr: 0x16B50, symBinAddr: 0x10001ADE8, symSize: 0x1C }
  - { offsetInCU: 0x528F0, offset: 0x528F0, size: 0x8, addend: 0x0, symName: __ZNSt3__128__exception_guard_exceptionsINS_29_AllocatorDestroyRangeReverseINS_9allocatorINS_12basic_stringIcNS_11char_traitsIcEENS2_IcEEEEEENS_16reverse_iteratorIPS7_EEEEED1B8ue170006Ev, symObjAddr: 0x16B6C, symBinAddr: 0x10001AE04, symSize: 0x2C }
  - { offsetInCU: 0x5291A, offset: 0x5291A, size: 0x8, addend: 0x0, symName: __ZNSt3__128__exception_guard_exceptionsINS_29_AllocatorDestroyRangeReverseINS_9allocatorINS_12basic_stringIcNS_11char_traitsIcEENS2_IcEEEEEENS_16reverse_iteratorIPS7_EEEEEC1B8ue170006ESC_, symObjAddr: 0x16B98, symBinAddr: 0x10001AE30, symSize: 0x34 }
  - { offsetInCU: 0x52953, offset: 0x52953, size: 0x8, addend: 0x0, symName: __ZNSt3__128__exception_guard_exceptionsINS_29_AllocatorDestroyRangeReverseINS_9allocatorINS_12basic_stringIcNS_11char_traitsIcEENS2_IcEEEEEENS_16reverse_iteratorIPS7_EEEEEC2B8ue170006ESC_, symObjAddr: 0x16BCC, symBinAddr: 0x10001AE64, symSize: 0x30 }
  - { offsetInCU: 0x5298C, offset: 0x5298C, size: 0x8, addend: 0x0, symName: __ZNSt3__129_AllocatorDestroyRangeReverseINS_9allocatorINS_12basic_stringIcNS_11char_traitsIcEENS1_IcEEEEEENS_16reverse_iteratorIPS6_EEEC2B8ue170006ERS7_RSA_SD_, symObjAddr: 0x16BFC, symBinAddr: 0x10001AE94, symSize: 0x38 }
  - { offsetInCU: 0x529E8, offset: 0x529E8, size: 0x8, addend: 0x0, symName: __ZNSt3__119__to_address_helperINS_16reverse_iteratorIPNS_12basic_stringIcNS_11char_traitsIcEENS_9allocatorIcEEEEEEvE6__callB8ue170006ERKS9_, symObjAddr: 0x16C70, symBinAddr: 0x10001AF08, symSize: 0x38 }
  - { offsetInCU: 0x52A0B, offset: 0x52A0B, size: 0x8, addend: 0x0, symName: __ZNKSt3__116reverse_iteratorIPNS_12basic_stringIcNS_11char_traitsIcEENS_9allocatorIcEEEEEptB8ue170006Ev, symObjAddr: 0x16CA8, symBinAddr: 0x10001AF40, symSize: 0x2C }
  - { offsetInCU: 0x52A31, offset: 0x52A31, size: 0x8, addend: 0x0, symName: __ZNSt3__128__exception_guard_exceptionsINS_29_AllocatorDestroyRangeReverseINS_9allocatorINS_12basic_stringIcNS_11char_traitsIcEENS2_IcEEEEEENS_16reverse_iteratorIPS7_EEEEED2B8ue170006Ev, symObjAddr: 0x16D78, symBinAddr: 0x10001B010, symSize: 0x50 }
  - { offsetInCU: 0x52A5B, offset: 0x52A5B, size: 0x8, addend: 0x0, symName: __ZNKSt3__129_AllocatorDestroyRangeReverseINS_9allocatorINS_12basic_stringIcNS_11char_traitsIcEENS1_IcEEEEEENS_16reverse_iteratorIPS6_EEEclB8ue170006Ev, symObjAddr: 0x16DC8, symBinAddr: 0x10001B060, symSize: 0xB4 }
  - { offsetInCU: 0x52A82, offset: 0x52A82, size: 0x8, addend: 0x0, symName: __ZNSt3__116reverse_iteratorINS0_IPNS_12basic_stringIcNS_11char_traitsIcEENS_9allocatorIcEEEEEEEC1B8ue170006ES8_, symObjAddr: 0x16EEC, symBinAddr: 0x10001B184, symSize: 0x3C }
  - { offsetInCU: 0x52ABA, offset: 0x52ABA, size: 0x8, addend: 0x0, symName: __ZNSt3__116allocator_traitsINS_9allocatorINS_12basic_stringIcNS_11char_traitsIcEENS1_IcEEEEEEE7destroyB8ue170006IS6_vvEEvRS7_PT_, symObjAddr: 0x16F88, symBinAddr: 0x10001B220, symSize: 0x28 }
  - { offsetInCU: 0x52AF5, offset: 0x52AF5, size: 0x8, addend: 0x0, symName: __ZNSt3__116reverse_iteratorINS0_IPNS_12basic_stringIcNS_11char_traitsIcEENS_9allocatorIcEEEEEEEppB8ue170006Ev, symObjAddr: 0x16FD4, symBinAddr: 0x10001B26C, symSize: 0x30 }
  - { offsetInCU: 0x52B1B, offset: 0x52B1B, size: 0x8, addend: 0x0, symName: __ZNKSt3__116reverse_iteratorINS0_IPNS_12basic_stringIcNS_11char_traitsIcEENS_9allocatorIcEEEEEEE4baseB8ue170006Ev, symObjAddr: 0x17004, symBinAddr: 0x10001B29C, symSize: 0x24 }
  - { offsetInCU: 0x52B46, offset: 0x52B46, size: 0x8, addend: 0x0, symName: __ZNSt3__119__to_address_helperINS_16reverse_iteratorINS1_IPNS_12basic_stringIcNS_11char_traitsIcEENS_9allocatorIcEEEEEEEEvE6__callB8ue170006ERKSA_, symObjAddr: 0x17070, symBinAddr: 0x10001B308, symSize: 0x38 }
  - { offsetInCU: 0x52B69, offset: 0x52B69, size: 0x8, addend: 0x0, symName: __ZNKSt3__116reverse_iteratorINS0_IPNS_12basic_stringIcNS_11char_traitsIcEENS_9allocatorIcEEEEEEEptB8ue170006Ev, symObjAddr: 0x170A8, symBinAddr: 0x10001B340, symSize: 0x4C }
  - { offsetInCU: 0x52B8F, offset: 0x52B8F, size: 0x8, addend: 0x0, symName: __ZNSt3__116reverse_iteratorIPNS_12basic_stringIcNS_11char_traitsIcEENS_9allocatorIcEEEEEpLB8ue170006El, symObjAddr: 0x171A4, symBinAddr: 0x10001B43C, symSize: 0x30 }
  - { offsetInCU: 0x52BC3, offset: 0x52BC3, size: 0x8, addend: 0x0, symName: __ZNSt3__116reverse_iteratorIPNS_12basic_stringIcNS_11char_traitsIcEENS_9allocatorIcEEEEEmmB8ue170006Ev, symObjAddr: 0x171D4, symBinAddr: 0x10001B46C, symSize: 0x20 }
  - { offsetInCU: 0x52BE9, offset: 0x52BE9, size: 0x8, addend: 0x0, symName: __ZNSt3__116reverse_iteratorINS0_IPNS_12basic_stringIcNS_11char_traitsIcEENS_9allocatorIcEEEEEEEC2B8ue170006ES8_, symObjAddr: 0x171F4, symBinAddr: 0x10001B48C, symSize: 0x2C }
  - { offsetInCU: 0x52C21, offset: 0x52C21, size: 0x8, addend: 0x0, symName: __ZNSt3__116reverse_iteratorIPNS_12basic_stringIcNS_11char_traitsIcEENS_9allocatorIcEEEEEC2B8ue170006ES7_, symObjAddr: 0x17220, symBinAddr: 0x10001B4B8, symSize: 0x28 }
  - { offsetInCU: 0x52C59, offset: 0x52C59, size: 0x8, addend: 0x0, symName: __ZNSt3__114__split_bufferINS_12basic_stringIcNS_11char_traitsIcEENS_9allocatorIcEEEERNS4_IS6_EEED2Ev, symObjAddr: 0x17248, symBinAddr: 0x10001B4E0, symSize: 0x8C }
  - { offsetInCU: 0x52C85, offset: 0x52C85, size: 0x8, addend: 0x0, symName: __ZNSt3__114__split_bufferINS_12basic_stringIcNS_11char_traitsIcEENS_9allocatorIcEEEERNS4_IS6_EEE5clearB8ue170006Ev, symObjAddr: 0x172D4, symBinAddr: 0x10001B56C, symSize: 0x28 }
  - { offsetInCU: 0x52CAB, offset: 0x52CAB, size: 0x8, addend: 0x0, symName: __ZNSt3__116allocator_traitsINS_9allocatorINS_12basic_stringIcNS_11char_traitsIcEENS1_IcEEEEEEE10deallocateB8ue170006ERS7_PS6_m, symObjAddr: 0x172FC, symBinAddr: 0x10001B594, symSize: 0x34 }
  - { offsetInCU: 0x52CED, offset: 0x52CED, size: 0x8, addend: 0x0, symName: __ZNKSt3__114__split_bufferINS_12basic_stringIcNS_11char_traitsIcEENS_9allocatorIcEEEERNS4_IS6_EEE8capacityB8ue170006Ev, symObjAddr: 0x17330, symBinAddr: 0x10001B5C8, symSize: 0x40 }
  - { offsetInCU: 0x52D13, offset: 0x52D13, size: 0x8, addend: 0x0, symName: __ZNSt3__114__split_bufferINS_12basic_stringIcNS_11char_traitsIcEENS_9allocatorIcEEEERNS4_IS6_EEE17__destruct_at_endB8ue170006EPS6_, symObjAddr: 0x17370, symBinAddr: 0x10001B608, symSize: 0x2C }
  - { offsetInCU: 0x52D47, offset: 0x52D47, size: 0x8, addend: 0x0, symName: __ZNSt3__114__split_bufferINS_12basic_stringIcNS_11char_traitsIcEENS_9allocatorIcEEEERNS4_IS6_EEE17__destruct_at_endB8ue170006EPS6_NS_17integral_constantIbLb0EEE, symObjAddr: 0x1739C, symBinAddr: 0x10001B634, symSize: 0x80 }
  - { offsetInCU: 0x52D87, offset: 0x52D87, size: 0x8, addend: 0x0, symName: __ZNSt3__19allocatorINS_12basic_stringIcNS_11char_traitsIcEENS0_IcEEEEE10deallocateB8ue170006EPS5_m, symObjAddr: 0x1741C, symBinAddr: 0x10001B6B4, symSize: 0x44 }
  - { offsetInCU: 0x52DC9, offset: 0x52DC9, size: 0x8, addend: 0x0, symName: __ZNKSt3__114__split_bufferINS_12basic_stringIcNS_11char_traitsIcEENS_9allocatorIcEEEERNS4_IS6_EEE9__end_capB8ue170006Ev, symObjAddr: 0x17460, symBinAddr: 0x10001B6F8, symSize: 0x28 }
  - { offsetInCU: 0x52DEF, offset: 0x52DEF, size: 0x8, addend: 0x0, symName: __ZNKSt3__117__compressed_pairIPNS_12basic_stringIcNS_11char_traitsIcEENS_9allocatorIcEEEERNS4_IS6_EEE5firstB8ue170006Ev, symObjAddr: 0x17488, symBinAddr: 0x10001B720, symSize: 0x24 }
  - { offsetInCU: 0x52E15, offset: 0x52E15, size: 0x8, addend: 0x0, symName: __ZNKSt3__112basic_stringIcNS_11char_traitsIcEENS_9allocatorIcEEE6rbeginB8ue170006Ev, symObjAddr: 0x174AC, symBinAddr: 0x10001B744, symSize: 0x44 }
  - { offsetInCU: 0x52E3B, offset: 0x52E3B, size: 0x8, addend: 0x0, symName: __ZNKSt3__116reverse_iteratorINS_11__wrap_iterIPKcEEEdeB8ue170006Ev, symObjAddr: 0x174F0, symBinAddr: 0x10001B788, symSize: 0x34 }
  - { offsetInCU: 0x52E6F, offset: 0x52E6F, size: 0x8, addend: 0x0, symName: __ZNKSt3__112basic_stringIcNS_11char_traitsIcEENS_9allocatorIcEEE3endB8ue170006Ev, symObjAddr: 0x176DC, symBinAddr: 0x10001B974, symSize: 0x64 }
  - { offsetInCU: 0x52E95, offset: 0x52E95, size: 0x8, addend: 0x0, symName: __ZNSt3__116reverse_iteratorINS_11__wrap_iterIPKcEEEC1B8ue170006ES4_, symObjAddr: 0x17740, symBinAddr: 0x10001B9D8, symSize: 0x34 }
  - { offsetInCU: 0x52ECD, offset: 0x52ECD, size: 0x8, addend: 0x0, symName: __ZNKSt3__112basic_stringIcNS_11char_traitsIcEENS_9allocatorIcEEE21__make_const_iteratorB8ue170006EPKc, symObjAddr: 0x17774, symBinAddr: 0x10001BA0C, symSize: 0x30 }
  - { offsetInCU: 0x52F02, offset: 0x52F02, size: 0x8, addend: 0x0, symName: __ZNSt3__111__wrap_iterIPKcEC1B8ue170006ES2_, symObjAddr: 0x177A4, symBinAddr: 0x10001BA3C, symSize: 0x34 }
  - { offsetInCU: 0x52F3A, offset: 0x52F3A, size: 0x8, addend: 0x0, symName: __ZNSt3__111__wrap_iterIPKcEC2B8ue170006ES2_, symObjAddr: 0x177D8, symBinAddr: 0x10001BA70, symSize: 0x20 }
  - { offsetInCU: 0x52F72, offset: 0x52F72, size: 0x8, addend: 0x0, symName: __ZNSt3__116reverse_iteratorINS_11__wrap_iterIPKcEEEC2B8ue170006ES4_, symObjAddr: 0x177F8, symBinAddr: 0x10001BA90, symSize: 0x28 }
  - { offsetInCU: 0x52FAA, offset: 0x52FAA, size: 0x8, addend: 0x0, symName: __ZNSt3__111__wrap_iterIPKcEmmB8ue170006Ev, symObjAddr: 0x17820, symBinAddr: 0x10001BAB8, symSize: 0x20 }
  - { offsetInCU: 0x52FD0, offset: 0x52FD0, size: 0x8, addend: 0x0, symName: __ZNKSt3__111__wrap_iterIPKcEdeB8ue170006Ev, symObjAddr: 0x17840, symBinAddr: 0x10001BAD8, symSize: 0x18 }
  - { offsetInCU: 0x52FF6, offset: 0x52FF6, size: 0x8, addend: 0x0, symName: __ZNSt3__112basic_stringIcNS_11char_traitsIcEENS_9allocatorIcEEE6appendB8ue170006ERKS5_, symObjAddr: 0x17858, symBinAddr: 0x10001BAF0, symSize: 0x4C }
  - { offsetInCU: 0x5302B, offset: 0x5302B, size: 0x8, addend: 0x0, symName: __ZNSt3__112basic_stringIcNS_11char_traitsIcEENS_9allocatorIcEEE6insertB8ue170006EmRKS5_, symObjAddr: 0x178A4, symBinAddr: 0x10001BB3C, symSize: 0x5C }
  - { offsetInCU: 0x5306F, offset: 0x5306F, size: 0x8, addend: 0x0, symName: __ZNSt3__116allocator_traitsINS_9allocatorIcEEE37select_on_container_copy_constructionB8ue170006IS2_vvEES2_RKS2_, symObjAddr: 0x17900, symBinAddr: 0x10001BB98, symSize: 0x10 }
  - { offsetInCU: 0x5309E, offset: 0x5309E, size: 0x8, addend: 0x0, symName: __ZNKSt3__112basic_stringIcNS_11char_traitsIcEENS_9allocatorIcEEE13get_allocatorB8ue170006Ev, symObjAddr: 0x17910, symBinAddr: 0x10001BBA8, symSize: 0x24 }
  - { offsetInCU: 0x530C4, offset: 0x530C4, size: 0x8, addend: 0x0, symName: __ZNSt3__112basic_stringIcNS_11char_traitsIcEENS_9allocatorIcEEEC1B8ue170006ENS_24__uninitialized_size_tagEmRKS4_, symObjAddr: 0x17934, symBinAddr: 0x10001BBCC, symSize: 0x3C }
  - { offsetInCU: 0x53118, offset: 0x53118, size: 0x8, addend: 0x0, symName: __ZNSt3__111char_traitsIcE4copyB8ue170006EPcPKcm, symObjAddr: 0x17984, symBinAddr: 0x10001BC1C, symSize: 0x40 }
  - { offsetInCU: 0x53157, offset: 0x53157, size: 0x8, addend: 0x0, symName: __ZNSt3__111char_traitsIcE6assignB8ue170006EPcmc, symObjAddr: 0x179C4, symBinAddr: 0x10001BC5C, symSize: 0x44 }
  - { offsetInCU: 0x53196, offset: 0x53196, size: 0x8, addend: 0x0, symName: __ZNSt3__112basic_stringIcNS_11char_traitsIcEENS_9allocatorIcEEEC2B8ue170006ENS_24__uninitialized_size_tagEmRKS4_, symObjAddr: 0x17A08, symBinAddr: 0x10001BCA0, symSize: 0x110 }
  - { offsetInCU: 0x53216, offset: 0x53216, size: 0x8, addend: 0x0, symName: __ZNSt3__117__compressed_pairINS_12basic_stringIcNS_11char_traitsIcEENS_9allocatorIcEEE5__repES5_EC1B8ue170006INS_18__default_init_tagERKS5_EEOT_OT0_, symObjAddr: 0x17B18, symBinAddr: 0x10001BDB0, symSize: 0x3C }
  - { offsetInCU: 0x5326E, offset: 0x5326E, size: 0x8, addend: 0x0, symName: __ZNSt3__116allocator_traitsINS_9allocatorIcEEE8allocateB8ue170006ERS2_m, symObjAddr: 0x17B54, symBinAddr: 0x10001BDEC, symSize: 0x2C }
  - { offsetInCU: 0x532A1, offset: 0x532A1, size: 0x8, addend: 0x0, symName: __ZNSt3__117__compressed_pairINS_12basic_stringIcNS_11char_traitsIcEENS_9allocatorIcEEE5__repES5_EC2B8ue170006INS_18__default_init_tagERKS5_EEOT_OT0_, symObjAddr: 0x17B80, symBinAddr: 0x10001BE18, symSize: 0x40 }
  - { offsetInCU: 0x532F9, offset: 0x532F9, size: 0x8, addend: 0x0, symName: __ZNSt3__122__compressed_pair_elemINS_9allocatorIcEELi1ELb1EEC2B8ue170006IRKS2_vEEOT_, symObjAddr: 0x17BC0, symBinAddr: 0x10001BE58, symSize: 0x18 }
  - { offsetInCU: 0x5335F, offset: 0x5335F, size: 0x8, addend: 0x0, symName: __ZNKSt3__114__copy_trivialclB8ue170006IKccLi0EEENS_4pairIPT_PT0_EES5_S5_S7_, symObjAddr: 0x17DD4, symBinAddr: 0x10001C06C, symSize: 0x48 }
  - { offsetInCU: 0x533E1, offset: 0x533E1, size: 0x8, addend: 0x0, symName: __ZNSt3__119__unwrap_range_implIPKcS2_E8__unwrapB8ue170006ES2_S2_, symObjAddr: 0x17EE0, symBinAddr: 0x10001C178, symSize: 0x58 }
  - { offsetInCU: 0x53418, offset: 0x53418, size: 0x8, addend: 0x0, symName: __ZNSt3__14pairIPKcS2_EC1B8ue170006IS2_S2_LPv0EEEOT_OT0_, symObjAddr: 0x17F5C, symBinAddr: 0x10001C1F4, symSize: 0x3C }
  - { offsetInCU: 0x53476, offset: 0x53476, size: 0x8, addend: 0x0, symName: __ZNSt3__118__unwrap_iter_implIPKcLb1EE8__unwrapB8ue170006ES2_, symObjAddr: 0x17F98, symBinAddr: 0x10001C230, symSize: 0x24 }
  - { offsetInCU: 0x53499, offset: 0x53499, size: 0x8, addend: 0x0, symName: __ZNSt3__14pairIPKcS2_EC2B8ue170006IS2_S2_LPv0EEEOT_OT0_, symObjAddr: 0x17FBC, symBinAddr: 0x10001C254, symSize: 0x34 }
  - { offsetInCU: 0x534FD, offset: 0x534FD, size: 0x8, addend: 0x0, symName: __ZNSt3__14pairIPKcPcEC1B8ue170006IRS2_S3_LPv0EEEOT_OT0_, symObjAddr: 0x18104, symBinAddr: 0x10001C39C, symSize: 0x3C }
  - { offsetInCU: 0x5355B, offset: 0x5355B, size: 0x8, addend: 0x0, symName: __ZNSt3__14pairIPKcPcEC2B8ue170006IRS2_S3_LPv0EEEOT_OT0_, symObjAddr: 0x18140, symBinAddr: 0x10001C3D8, symSize: 0x34 }
  - { offsetInCU: 0x535B9, offset: 0x535B9, size: 0x8, addend: 0x0, symName: __ZNSt3__118__unwrap_iter_implIPcLb1EE8__unwrapB8ue170006ES1_, symObjAddr: 0x18174, symBinAddr: 0x10001C40C, symSize: 0x24 }
  - { offsetInCU: 0x535DC, offset: 0x535DC, size: 0x8, addend: 0x0, symName: __ZNSt3__14pairIPKcPcEC1B8ue170006IS2_S3_LPv0EEEOT_OT0_, symObjAddr: 0x18198, symBinAddr: 0x10001C430, symSize: 0x3C }
  - { offsetInCU: 0x5363A, offset: 0x5363A, size: 0x8, addend: 0x0, symName: __ZNSt3__14pairIPKcPcEC2B8ue170006IS2_S3_LPv0EEEOT_OT0_, symObjAddr: 0x181D4, symBinAddr: 0x10001C46C, symSize: 0x34 }
  - { offsetInCU: 0x53698, offset: 0x53698, size: 0x8, addend: 0x0, symName: __ZNSt3__119__unwrap_range_implIPKcS2_E8__rewrapB8ue170006ES2_S2_, symObjAddr: 0x18208, symBinAddr: 0x10001C4A0, symSize: 0x2C }
  - { offsetInCU: 0x536C9, offset: 0x536C9, size: 0x8, addend: 0x0, symName: __ZNSt3__118__unwrap_iter_implIPKcLb1EE8__rewrapB8ue170006ES2_S2_, symObjAddr: 0x18270, symBinAddr: 0x10001C508, symSize: 0x48 }
  - { offsetInCU: 0x536FA, offset: 0x536FA, size: 0x8, addend: 0x0, symName: __ZNSt3__118__unwrap_iter_implIPcLb1EE8__rewrapB8ue170006ES1_S1_, symObjAddr: 0x182B8, symBinAddr: 0x10001C550, symSize: 0x48 }
  - { offsetInCU: 0x5372B, offset: 0x5372B, size: 0x8, addend: 0x0, symName: __ZNSt3__114basic_ifstreamIcNS_11char_traitsIcEEED2Ev, symObjAddr: 0x183BC, symBinAddr: 0x10001C654, symSize: 0x64 }
  - { offsetInCU: 0x53765, offset: 0x53765, size: 0x8, addend: 0x0, symName: __ZTv0_n24_NSt3__114basic_ifstreamIcNS_11char_traitsIcEEED1Ev, symObjAddr: 0x18420, symBinAddr: 0x10001C6B8, symSize: 0x28 }
  - { offsetInCU: 0x5377C, offset: 0x5377C, size: 0x8, addend: 0x0, symName: __ZNSt3__119basic_istringstreamIcNS_11char_traitsIcEENS_9allocatorIcEEED2Ev, symObjAddr: 0x18448, symBinAddr: 0x10001C6E0, symSize: 0x64 }
  - { offsetInCU: 0x537B6, offset: 0x537B6, size: 0x8, addend: 0x0, symName: __ZTv0_n24_NSt3__119basic_istringstreamIcNS_11char_traitsIcEENS_9allocatorIcEEED1Ev, symObjAddr: 0x184AC, symBinAddr: 0x10001C744, symSize: 0x28 }
  - { offsetInCU: 0x537CD, offset: 0x537CD, size: 0x8, addend: 0x0, symName: __ZNSt3__16vectorINS_12basic_stringIcNS_11char_traitsIcEENS_9allocatorIcEEEENS4_IS6_EEED2B8ue170006Ev, symObjAddr: 0x184D4, symBinAddr: 0x10001C76C, symSize: 0x44 }
  - { offsetInCU: 0x537F7, offset: 0x537F7, size: 0x8, addend: 0x0, symName: __ZNSt3__16vectorINS_12basic_stringIcNS_11char_traitsIcEENS_9allocatorIcEEEENS4_IS6_EEE16__destroy_vectorC1B8ue170006ERS8_, symObjAddr: 0x18518, symBinAddr: 0x10001C7B0, symSize: 0x34 }
  - { offsetInCU: 0x53830, offset: 0x53830, size: 0x8, addend: 0x0, symName: __ZNSt3__16vectorINS_12basic_stringIcNS_11char_traitsIcEENS_9allocatorIcEEEENS4_IS6_EEE16__destroy_vectorclB8ue170006Ev, symObjAddr: 0x1854C, symBinAddr: 0x10001C7E4, symSize: 0x90 }
  - { offsetInCU: 0x53856, offset: 0x53856, size: 0x8, addend: 0x0, symName: __ZNSt3__16vectorINS_12basic_stringIcNS_11char_traitsIcEENS_9allocatorIcEEEENS4_IS6_EEE16__destroy_vectorC2B8ue170006ERS8_, symObjAddr: 0x185DC, symBinAddr: 0x10001C874, symSize: 0x20 }
  - { offsetInCU: 0x5388F, offset: 0x5388F, size: 0x8, addend: 0x0, symName: __ZNSt3__16vectorINS_12basic_stringIcNS_11char_traitsIcEENS_9allocatorIcEEEENS4_IS6_EEE7__clearB8ue170006Ev, symObjAddr: 0x185FC, symBinAddr: 0x10001C894, symSize: 0x28 }
  - { offsetInCU: 0x538B5, offset: 0x538B5, size: 0x8, addend: 0x0, symName: __ZNSt3__16vectorINS_12basic_stringIcNS_11char_traitsIcEENS_9allocatorIcEEEENS4_IS6_EEE22__base_destruct_at_endB8ue170006EPS6_, symObjAddr: 0x18624, symBinAddr: 0x10001C8BC, symSize: 0x8C }
  - { offsetInCU: 0x538F9, offset: 0x538F9, size: 0x8, addend: 0x0, symName: __ZNSt3__16vectorIfNS_9allocatorIfEEE7__clearB8ue170006Ev, symObjAddr: 0x186B0, symBinAddr: 0x10001C948, symSize: 0x28 }
  - { offsetInCU: 0x5391F, offset: 0x5391F, size: 0x8, addend: 0x0, symName: __ZNKSt3__16vectorIfNS_9allocatorIfEEE17__annotate_shrinkB8ue170006Em, symObjAddr: 0x186D8, symBinAddr: 0x10001C970, symSize: 0xB4 }
  - { offsetInCU: 0x53954, offset: 0x53954, size: 0x8, addend: 0x0, symName: __ZNSt3__16vectorIfNS_9allocatorIfEEE22__base_destruct_at_endB8ue170006EPf, symObjAddr: 0x1878C, symBinAddr: 0x10001CA24, symSize: 0x8C }
  - { offsetInCU: 0x53998, offset: 0x53998, size: 0x8, addend: 0x0, symName: __ZNSt3__116allocator_traitsINS_9allocatorIfEEE7destroyB8ue170006IfvvEEvRS2_PT_, symObjAddr: 0x18818, symBinAddr: 0x10001CAB0, symSize: 0x28 }
  - { offsetInCU: 0x539D3, offset: 0x539D3, size: 0x8, addend: 0x0, symName: __ZNSt3__16vectorIfNS_9allocatorIfEEE7__allocB8ue170006Ev, symObjAddr: 0x18840, symBinAddr: 0x10001CAD8, symSize: 0x28 }
  - { offsetInCU: 0x539F9, offset: 0x539F9, size: 0x8, addend: 0x0, symName: __ZNSt3__117__compressed_pairIPfNS_9allocatorIfEEE6secondB8ue170006Ev, symObjAddr: 0x188B0, symBinAddr: 0x10001CB48, symSize: 0x24 }
  - { offsetInCU: 0x53A1F, offset: 0x53A1F, size: 0x8, addend: 0x0, symName: __ZNSt3__122__compressed_pair_elemINS_9allocatorIfEELi1ELb1EE5__getB8ue170006Ev, symObjAddr: 0x188D4, symBinAddr: 0x10001CB6C, symSize: 0x14 }
  - { offsetInCU: 0x53A45, offset: 0x53A45, size: 0x8, addend: 0x0, symName: __ZNKSt3__16vectorIfNS_9allocatorIfEEE31__annotate_contiguous_containerB8ue170006EPKvS5_S5_S5_, symObjAddr: 0x188E8, symBinAddr: 0x10001CB80, symSize: 0x20 }
  - { offsetInCU: 0x53A9B, offset: 0x53A9B, size: 0x8, addend: 0x0, symName: __ZNKSt3__16vectorIfNS_9allocatorIfEEE4dataB8ue170006Ev, symObjAddr: 0x18908, symBinAddr: 0x10001CBA0, symSize: 0x28 }
  - { offsetInCU: 0x53AC1, offset: 0x53AC1, size: 0x8, addend: 0x0, symName: __ZNKSt3__16vectorIfNS_9allocatorIfEEE8capacityB8ue170006Ev, symObjAddr: 0x18930, symBinAddr: 0x10001CBC8, symSize: 0x40 }
  - { offsetInCU: 0x53AE7, offset: 0x53AE7, size: 0x8, addend: 0x0, symName: __ZNKSt3__16vectorIfNS_9allocatorIfEEE9__end_capB8ue170006Ev, symObjAddr: 0x18970, symBinAddr: 0x10001CC08, symSize: 0x28 }
  - { offsetInCU: 0x53B0D, offset: 0x53B0D, size: 0x8, addend: 0x0, symName: __ZNKSt3__117__compressed_pairIPfNS_9allocatorIfEEE5firstB8ue170006Ev, symObjAddr: 0x18998, symBinAddr: 0x10001CC30, symSize: 0x24 }
  - { offsetInCU: 0x53B33, offset: 0x53B33, size: 0x8, addend: 0x0, symName: __ZNKSt3__122__compressed_pair_elemIPfLi0ELb0EE5__getB8ue170006Ev, symObjAddr: 0x189BC, symBinAddr: 0x10001CC54, symSize: 0x14 }
  - { offsetInCU: 0x53B59, offset: 0x53B59, size: 0x8, addend: 0x0, symName: __ZNKSt3__16vectorIN7tinyobj7shape_tENS_9allocatorIS2_EEE4sizeB8ue170006Ev, symObjAddr: 0x189D0, symBinAddr: 0x10001CC68, symSize: 0x28 }
  - { offsetInCU: 0x53B7F, offset: 0x53B7F, size: 0x8, addend: 0x0, symName: __ZNSt3__16vectorIN7tinyobj7shape_tENS_9allocatorIS2_EEE7__clearB8ue170006Ev, symObjAddr: 0x189F8, symBinAddr: 0x10001CC90, symSize: 0x28 }
  - { offsetInCU: 0x53BA5, offset: 0x53BA5, size: 0x8, addend: 0x0, symName: __ZNKSt3__16vectorIN7tinyobj7shape_tENS_9allocatorIS2_EEE17__annotate_shrinkB8ue170006Em, symObjAddr: 0x18A20, symBinAddr: 0x10001CCB8, symSize: 0xD0 }
  - { offsetInCU: 0x53BDA, offset: 0x53BDA, size: 0x8, addend: 0x0, symName: __ZNSt3__16vectorIN7tinyobj7shape_tENS_9allocatorIS2_EEE22__base_destruct_at_endB8ue170006EPS2_, symObjAddr: 0x18AF0, symBinAddr: 0x10001CD88, symSize: 0x8C }
  - { offsetInCU: 0x53C1E, offset: 0x53C1E, size: 0x8, addend: 0x0, symName: __ZNSt3__116allocator_traitsINS_9allocatorIN7tinyobj7shape_tEEEE7destroyB8ue170006IS3_vvEEvRS4_PT_, symObjAddr: 0x18B7C, symBinAddr: 0x10001CE14, symSize: 0x28 }
  - { offsetInCU: 0x53C59, offset: 0x53C59, size: 0x8, addend: 0x0, symName: __ZNSt3__16vectorIN7tinyobj7shape_tENS_9allocatorIS2_EEE7__allocB8ue170006Ev, symObjAddr: 0x18BA4, symBinAddr: 0x10001CE3C, symSize: 0x28 }
  - { offsetInCU: 0x53C7F, offset: 0x53C7F, size: 0x8, addend: 0x0, symName: __ZNSt3__117__compressed_pairIPN7tinyobj7shape_tENS_9allocatorIS2_EEE6secondB8ue170006Ev, symObjAddr: 0x18C28, symBinAddr: 0x10001CEC0, symSize: 0x24 }
  - { offsetInCU: 0x53CA5, offset: 0x53CA5, size: 0x8, addend: 0x0, symName: __ZNSt3__122__compressed_pair_elemINS_9allocatorIN7tinyobj7shape_tEEELi1ELb1EE5__getB8ue170006Ev, symObjAddr: 0x18C4C, symBinAddr: 0x10001CEE4, symSize: 0x14 }
  - { offsetInCU: 0x53CCB, offset: 0x53CCB, size: 0x8, addend: 0x0, symName: __ZNKSt3__16vectorIN7tinyobj7shape_tENS_9allocatorIS2_EEE31__annotate_contiguous_containerB8ue170006EPKvS7_S7_S7_, symObjAddr: 0x18C60, symBinAddr: 0x10001CEF8, symSize: 0x20 }
  - { offsetInCU: 0x53D21, offset: 0x53D21, size: 0x8, addend: 0x0, symName: __ZNKSt3__16vectorIN7tinyobj7shape_tENS_9allocatorIS2_EEE4dataB8ue170006Ev, symObjAddr: 0x18C80, symBinAddr: 0x10001CF18, symSize: 0x28 }
  - { offsetInCU: 0x53D47, offset: 0x53D47, size: 0x8, addend: 0x0, symName: __ZNKSt3__16vectorIN7tinyobj7shape_tENS_9allocatorIS2_EEE8capacityB8ue170006Ev, symObjAddr: 0x18CA8, symBinAddr: 0x10001CF40, symSize: 0x40 }
  - { offsetInCU: 0x53D6D, offset: 0x53D6D, size: 0x8, addend: 0x0, symName: __ZNKSt3__16vectorIN7tinyobj7shape_tENS_9allocatorIS2_EEE9__end_capB8ue170006Ev, symObjAddr: 0x18CE8, symBinAddr: 0x10001CF80, symSize: 0x28 }
  - { offsetInCU: 0x53D93, offset: 0x53D93, size: 0x8, addend: 0x0, symName: __ZNKSt3__117__compressed_pairIPN7tinyobj7shape_tENS_9allocatorIS2_EEE5firstB8ue170006Ev, symObjAddr: 0x18D10, symBinAddr: 0x10001CFA8, symSize: 0x24 }
  - { offsetInCU: 0x53DB9, offset: 0x53DB9, size: 0x8, addend: 0x0, symName: __ZNKSt3__122__compressed_pair_elemIPN7tinyobj7shape_tELi0ELb0EE5__getB8ue170006Ev, symObjAddr: 0x18D34, symBinAddr: 0x10001CFCC, symSize: 0x14 }
  - { offsetInCU: 0x53DDF, offset: 0x53DDF, size: 0x8, addend: 0x0, symName: __ZN7tinyobj18MaterialFileReaderC2ERKNSt3__112basic_stringIcNS1_11char_traitsIcEENS1_9allocatorIcEEEE, symObjAddr: 0x18D48, symBinAddr: 0x10001CFE0, symSize: 0x80 }
  - { offsetInCU: 0x53E18, offset: 0x53E18, size: 0x8, addend: 0x0, symName: __ZN7tinyobj14MaterialReaderC2Ev, symObjAddr: 0x18DC8, symBinAddr: 0x10001D060, symSize: 0x24 }
  - { offsetInCU: 0x53E42, offset: 0x53E42, size: 0x8, addend: 0x0, symName: __ZN7tinyobj18MaterialFileReaderD2Ev, symObjAddr: 0x18DEC, symBinAddr: 0x10001D084, symSize: 0x48 }
  - { offsetInCU: 0x53E6C, offset: 0x53E6C, size: 0x8, addend: 0x0, symName: __ZNSt3__16vectorIfNS_9allocatorIfEEEC2B8ue170006Ev, symObjAddr: 0x18E34, symBinAddr: 0x10001D0CC, symSize: 0x4C }
  - { offsetInCU: 0x53E96, offset: 0x53E96, size: 0x8, addend: 0x0, symName: __ZNSt3__117__compressed_pairIPfNS_9allocatorIfEEEC1B8ue170006IDnNS_18__default_init_tagEEEOT_OT0_, symObjAddr: 0x18E80, symBinAddr: 0x10001D118, symSize: 0x3C }
  - { offsetInCU: 0x53EEE, offset: 0x53EEE, size: 0x8, addend: 0x0, symName: __ZNSt3__117__compressed_pairIPfNS_9allocatorIfEEEC2B8ue170006IDnNS_18__default_init_tagEEEOT_OT0_, symObjAddr: 0x18EBC, symBinAddr: 0x10001D154, symSize: 0x40 }
  - { offsetInCU: 0x53F46, offset: 0x53F46, size: 0x8, addend: 0x0, symName: __ZNSt3__122__compressed_pair_elemIPfLi0ELb0EEC2B8ue170006IDnvEEOT_, symObjAddr: 0x18EFC, symBinAddr: 0x10001D194, symSize: 0x1C }
  - { offsetInCU: 0x53F88, offset: 0x53F88, size: 0x8, addend: 0x0, symName: __ZNSt3__122__compressed_pair_elemINS_9allocatorIfEELi1ELb1EEC2B8ue170006ENS_18__default_init_tagE, symObjAddr: 0x18F18, symBinAddr: 0x10001D1B0, symSize: 0x2C }
  - { offsetInCU: 0x53FBC, offset: 0x53FBC, size: 0x8, addend: 0x0, symName: __ZNSt3__19allocatorIfEC2B8ue170006Ev, symObjAddr: 0x18F44, symBinAddr: 0x10001D1DC, symSize: 0x2C }
  - { offsetInCU: 0x53FE6, offset: 0x53FE6, size: 0x8, addend: 0x0, symName: __ZNSt3__116__non_trivial_ifILb1ENS_9allocatorIfEEEC2B8ue170006Ev, symObjAddr: 0x18F70, symBinAddr: 0x10001D208, symSize: 0x14 }
  - { offsetInCU: 0x54010, offset: 0x54010, size: 0x8, addend: 0x0, symName: __ZNSt3__16vectorIN7tinyobj13skin_weight_tENS_9allocatorIS2_EEEC2B8ue170006Ev, symObjAddr: 0x18F84, symBinAddr: 0x10001D21C, symSize: 0x4C }
  - { offsetInCU: 0x5403A, offset: 0x5403A, size: 0x8, addend: 0x0, symName: __ZNSt3__117__compressed_pairIPN7tinyobj13skin_weight_tENS_9allocatorIS2_EEEC1B8ue170006IDnNS_18__default_init_tagEEEOT_OT0_, symObjAddr: 0x18FD0, symBinAddr: 0x10001D268, symSize: 0x3C }
  - { offsetInCU: 0x54092, offset: 0x54092, size: 0x8, addend: 0x0, symName: __ZNSt3__117__compressed_pairIPN7tinyobj13skin_weight_tENS_9allocatorIS2_EEEC2B8ue170006IDnNS_18__default_init_tagEEEOT_OT0_, symObjAddr: 0x1900C, symBinAddr: 0x10001D2A4, symSize: 0x40 }
  - { offsetInCU: 0x540EA, offset: 0x540EA, size: 0x8, addend: 0x0, symName: __ZNSt3__122__compressed_pair_elemIPN7tinyobj13skin_weight_tELi0ELb0EEC2B8ue170006IDnvEEOT_, symObjAddr: 0x1904C, symBinAddr: 0x10001D2E4, symSize: 0x1C }
  - { offsetInCU: 0x5412C, offset: 0x5412C, size: 0x8, addend: 0x0, symName: __ZNSt3__122__compressed_pair_elemINS_9allocatorIN7tinyobj13skin_weight_tEEELi1ELb1EEC2B8ue170006ENS_18__default_init_tagE, symObjAddr: 0x19068, symBinAddr: 0x10001D300, symSize: 0x2C }
  - { offsetInCU: 0x54160, offset: 0x54160, size: 0x8, addend: 0x0, symName: __ZNSt3__19allocatorIN7tinyobj13skin_weight_tEEC2B8ue170006Ev, symObjAddr: 0x19094, symBinAddr: 0x10001D32C, symSize: 0x2C }
  - { offsetInCU: 0x5418A, offset: 0x5418A, size: 0x8, addend: 0x0, symName: __ZNSt3__116__non_trivial_ifILb1ENS_9allocatorIN7tinyobj13skin_weight_tEEEEC2B8ue170006Ev, symObjAddr: 0x190C0, symBinAddr: 0x10001D358, symSize: 0x14 }
  - { offsetInCU: 0x541B4, offset: 0x541B4, size: 0x8, addend: 0x0, symName: __ZNSt3__16vectorIN7tinyobj5tag_tENS_9allocatorIS2_EEEC2B8ue170006Ev, symObjAddr: 0x190D4, symBinAddr: 0x10001D36C, symSize: 0x4C }
  - { offsetInCU: 0x541DE, offset: 0x541DE, size: 0x8, addend: 0x0, symName: __ZNSt3__117__compressed_pairIPN7tinyobj5tag_tENS_9allocatorIS2_EEEC1B8ue170006IDnNS_18__default_init_tagEEEOT_OT0_, symObjAddr: 0x19120, symBinAddr: 0x10001D3B8, symSize: 0x3C }
  - { offsetInCU: 0x54236, offset: 0x54236, size: 0x8, addend: 0x0, symName: __ZNSt3__117__compressed_pairIPN7tinyobj5tag_tENS_9allocatorIS2_EEEC2B8ue170006IDnNS_18__default_init_tagEEEOT_OT0_, symObjAddr: 0x1915C, symBinAddr: 0x10001D3F4, symSize: 0x40 }
  - { offsetInCU: 0x5428E, offset: 0x5428E, size: 0x8, addend: 0x0, symName: __ZNSt3__122__compressed_pair_elemIPN7tinyobj5tag_tELi0ELb0EEC2B8ue170006IDnvEEOT_, symObjAddr: 0x1919C, symBinAddr: 0x10001D434, symSize: 0x1C }
  - { offsetInCU: 0x542D0, offset: 0x542D0, size: 0x8, addend: 0x0, symName: __ZNSt3__122__compressed_pair_elemINS_9allocatorIN7tinyobj5tag_tEEELi1ELb1EEC2B8ue170006ENS_18__default_init_tagE, symObjAddr: 0x191B8, symBinAddr: 0x10001D450, symSize: 0x2C }
  - { offsetInCU: 0x54304, offset: 0x54304, size: 0x8, addend: 0x0, symName: __ZNSt3__19allocatorIN7tinyobj5tag_tEEC2B8ue170006Ev, symObjAddr: 0x191E4, symBinAddr: 0x10001D47C, symSize: 0x2C }
  - { offsetInCU: 0x5432E, offset: 0x5432E, size: 0x8, addend: 0x0, symName: __ZNSt3__116__non_trivial_ifILb1ENS_9allocatorIN7tinyobj5tag_tEEEEC2B8ue170006Ev, symObjAddr: 0x19210, symBinAddr: 0x10001D4A8, symSize: 0x14 }
  - { offsetInCU: 0x54358, offset: 0x54358, size: 0x8, addend: 0x0, symName: __ZN7tinyobj9PrimGroupC2Ev, symObjAddr: 0x19224, symBinAddr: 0x10001D4BC, symSize: 0x44 }
  - { offsetInCU: 0x54385, offset: 0x54385, size: 0x8, addend: 0x0, symName: __ZNSt3__16vectorIN7tinyobj6face_tENS_9allocatorIS2_EEEC1B8ue170006Ev, symObjAddr: 0x19268, symBinAddr: 0x10001D500, symSize: 0x2C }
  - { offsetInCU: 0x543AF, offset: 0x543AF, size: 0x8, addend: 0x0, symName: __ZNSt3__16vectorIN7tinyobj8__line_tENS_9allocatorIS2_EEEC1B8ue170006Ev, symObjAddr: 0x19294, symBinAddr: 0x10001D52C, symSize: 0x2C }
  - { offsetInCU: 0x543D9, offset: 0x543D9, size: 0x8, addend: 0x0, symName: __ZNSt3__16vectorIN7tinyobj10__points_tENS_9allocatorIS2_EEEC1B8ue170006Ev, symObjAddr: 0x192C0, symBinAddr: 0x10001D558, symSize: 0x2C }
  - { offsetInCU: 0x54403, offset: 0x54403, size: 0x8, addend: 0x0, symName: __ZNSt3__16vectorIN7tinyobj6face_tENS_9allocatorIS2_EEEC2B8ue170006Ev, symObjAddr: 0x192EC, symBinAddr: 0x10001D584, symSize: 0x4C }
  - { offsetInCU: 0x5442D, offset: 0x5442D, size: 0x8, addend: 0x0, symName: __ZNSt3__117__compressed_pairIPN7tinyobj6face_tENS_9allocatorIS2_EEEC1B8ue170006IDnNS_18__default_init_tagEEEOT_OT0_, symObjAddr: 0x19338, symBinAddr: 0x10001D5D0, symSize: 0x3C }
  - { offsetInCU: 0x54485, offset: 0x54485, size: 0x8, addend: 0x0, symName: __ZNSt3__117__compressed_pairIPN7tinyobj6face_tENS_9allocatorIS2_EEEC2B8ue170006IDnNS_18__default_init_tagEEEOT_OT0_, symObjAddr: 0x19374, symBinAddr: 0x10001D60C, symSize: 0x40 }
  - { offsetInCU: 0x544DD, offset: 0x544DD, size: 0x8, addend: 0x0, symName: __ZNSt3__122__compressed_pair_elemIPN7tinyobj6face_tELi0ELb0EEC2B8ue170006IDnvEEOT_, symObjAddr: 0x193B4, symBinAddr: 0x10001D64C, symSize: 0x1C }
  - { offsetInCU: 0x5451F, offset: 0x5451F, size: 0x8, addend: 0x0, symName: __ZNSt3__122__compressed_pair_elemINS_9allocatorIN7tinyobj6face_tEEELi1ELb1EEC2B8ue170006ENS_18__default_init_tagE, symObjAddr: 0x193D0, symBinAddr: 0x10001D668, symSize: 0x2C }
  - { offsetInCU: 0x54553, offset: 0x54553, size: 0x8, addend: 0x0, symName: __ZNSt3__19allocatorIN7tinyobj6face_tEEC2B8ue170006Ev, symObjAddr: 0x193FC, symBinAddr: 0x10001D694, symSize: 0x2C }
  - { offsetInCU: 0x5457D, offset: 0x5457D, size: 0x8, addend: 0x0, symName: __ZNSt3__116__non_trivial_ifILb1ENS_9allocatorIN7tinyobj6face_tEEEEC2B8ue170006Ev, symObjAddr: 0x19428, symBinAddr: 0x10001D6C0, symSize: 0x14 }
  - { offsetInCU: 0x545A7, offset: 0x545A7, size: 0x8, addend: 0x0, symName: __ZNSt3__16vectorIN7tinyobj8__line_tENS_9allocatorIS2_EEEC2B8ue170006Ev, symObjAddr: 0x1943C, symBinAddr: 0x10001D6D4, symSize: 0x4C }
  - { offsetInCU: 0x545D1, offset: 0x545D1, size: 0x8, addend: 0x0, symName: __ZNSt3__117__compressed_pairIPN7tinyobj8__line_tENS_9allocatorIS2_EEEC1B8ue170006IDnNS_18__default_init_tagEEEOT_OT0_, symObjAddr: 0x19488, symBinAddr: 0x10001D720, symSize: 0x3C }
  - { offsetInCU: 0x54629, offset: 0x54629, size: 0x8, addend: 0x0, symName: __ZNSt3__117__compressed_pairIPN7tinyobj8__line_tENS_9allocatorIS2_EEEC2B8ue170006IDnNS_18__default_init_tagEEEOT_OT0_, symObjAddr: 0x194C4, symBinAddr: 0x10001D75C, symSize: 0x40 }
  - { offsetInCU: 0x54681, offset: 0x54681, size: 0x8, addend: 0x0, symName: __ZNSt3__122__compressed_pair_elemIPN7tinyobj8__line_tELi0ELb0EEC2B8ue170006IDnvEEOT_, symObjAddr: 0x19504, symBinAddr: 0x10001D79C, symSize: 0x1C }
  - { offsetInCU: 0x546C3, offset: 0x546C3, size: 0x8, addend: 0x0, symName: __ZNSt3__122__compressed_pair_elemINS_9allocatorIN7tinyobj8__line_tEEELi1ELb1EEC2B8ue170006ENS_18__default_init_tagE, symObjAddr: 0x19520, symBinAddr: 0x10001D7B8, symSize: 0x2C }
  - { offsetInCU: 0x546F7, offset: 0x546F7, size: 0x8, addend: 0x0, symName: __ZNSt3__19allocatorIN7tinyobj8__line_tEEC2B8ue170006Ev, symObjAddr: 0x1954C, symBinAddr: 0x10001D7E4, symSize: 0x2C }
  - { offsetInCU: 0x54721, offset: 0x54721, size: 0x8, addend: 0x0, symName: __ZNSt3__116__non_trivial_ifILb1ENS_9allocatorIN7tinyobj8__line_tEEEEC2B8ue170006Ev, symObjAddr: 0x19578, symBinAddr: 0x10001D810, symSize: 0x14 }
  - { offsetInCU: 0x5474B, offset: 0x5474B, size: 0x8, addend: 0x0, symName: __ZNSt3__16vectorIN7tinyobj10__points_tENS_9allocatorIS2_EEEC2B8ue170006Ev, symObjAddr: 0x1958C, symBinAddr: 0x10001D824, symSize: 0x4C }
  - { offsetInCU: 0x54775, offset: 0x54775, size: 0x8, addend: 0x0, symName: __ZNSt3__117__compressed_pairIPN7tinyobj10__points_tENS_9allocatorIS2_EEEC1B8ue170006IDnNS_18__default_init_tagEEEOT_OT0_, symObjAddr: 0x195D8, symBinAddr: 0x10001D870, symSize: 0x3C }
  - { offsetInCU: 0x547CD, offset: 0x547CD, size: 0x8, addend: 0x0, symName: __ZNSt3__117__compressed_pairIPN7tinyobj10__points_tENS_9allocatorIS2_EEEC2B8ue170006IDnNS_18__default_init_tagEEEOT_OT0_, symObjAddr: 0x19614, symBinAddr: 0x10001D8AC, symSize: 0x40 }
  - { offsetInCU: 0x54825, offset: 0x54825, size: 0x8, addend: 0x0, symName: __ZNSt3__122__compressed_pair_elemIPN7tinyobj10__points_tELi0ELb0EEC2B8ue170006IDnvEEOT_, symObjAddr: 0x19654, symBinAddr: 0x10001D8EC, symSize: 0x1C }
  - { offsetInCU: 0x54867, offset: 0x54867, size: 0x8, addend: 0x0, symName: __ZNSt3__122__compressed_pair_elemINS_9allocatorIN7tinyobj10__points_tEEELi1ELb1EEC2B8ue170006ENS_18__default_init_tagE, symObjAddr: 0x19670, symBinAddr: 0x10001D908, symSize: 0x2C }
  - { offsetInCU: 0x5489B, offset: 0x5489B, size: 0x8, addend: 0x0, symName: __ZNSt3__19allocatorIN7tinyobj10__points_tEEC2B8ue170006Ev, symObjAddr: 0x1969C, symBinAddr: 0x10001D934, symSize: 0x2C }
  - { offsetInCU: 0x548C5, offset: 0x548C5, size: 0x8, addend: 0x0, symName: __ZNSt3__116__non_trivial_ifILb1ENS_9allocatorIN7tinyobj10__points_tEEEEC2B8ue170006Ev, symObjAddr: 0x196C8, symBinAddr: 0x10001D960, symSize: 0x14 }
  - { offsetInCU: 0x548EF, offset: 0x548EF, size: 0x8, addend: 0x0, symName: __ZN7tinyobj7shape_tC2Ev, symObjAddr: 0x196DC, symBinAddr: 0x10001D974, symSize: 0x50 }
  - { offsetInCU: 0x54921, offset: 0x54921, size: 0x8, addend: 0x0, symName: __ZN7tinyobj6mesh_tC1Ev, symObjAddr: 0x1972C, symBinAddr: 0x10001D9C4, symSize: 0x2C }
  - { offsetInCU: 0x54953, offset: 0x54953, size: 0x8, addend: 0x0, symName: __ZN7tinyobj7lines_tC1Ev, symObjAddr: 0x19758, symBinAddr: 0x10001D9F0, symSize: 0x2C }
  - { offsetInCU: 0x54985, offset: 0x54985, size: 0x8, addend: 0x0, symName: __ZN7tinyobj8points_tC1Ev, symObjAddr: 0x19784, symBinAddr: 0x10001DA1C, symSize: 0x2C }
  - { offsetInCU: 0x549B2, offset: 0x549B2, size: 0x8, addend: 0x0, symName: __ZN7tinyobj6mesh_tC2Ev, symObjAddr: 0x197B0, symBinAddr: 0x10001DA48, symSize: 0x5C }
  - { offsetInCU: 0x549DF, offset: 0x549DF, size: 0x8, addend: 0x0, symName: __ZNSt3__16vectorIjNS_9allocatorIjEEEC1B8ue170006Ev, symObjAddr: 0x1980C, symBinAddr: 0x10001DAA4, symSize: 0x2C }
  - { offsetInCU: 0x54A09, offset: 0x54A09, size: 0x8, addend: 0x0, symName: __ZNSt3__16vectorIiNS_9allocatorIiEEEC1B8ue170006Ev, symObjAddr: 0x19838, symBinAddr: 0x10001DAD0, symSize: 0x2C }
  - { offsetInCU: 0x54A33, offset: 0x54A33, size: 0x8, addend: 0x0, symName: __ZNSt3__16vectorIjNS_9allocatorIjEEEC2B8ue170006Ev, symObjAddr: 0x19864, symBinAddr: 0x10001DAFC, symSize: 0x4C }
  - { offsetInCU: 0x54A5D, offset: 0x54A5D, size: 0x8, addend: 0x0, symName: __ZNSt3__117__compressed_pairIPjNS_9allocatorIjEEEC1B8ue170006IDnNS_18__default_init_tagEEEOT_OT0_, symObjAddr: 0x198B0, symBinAddr: 0x10001DB48, symSize: 0x3C }
  - { offsetInCU: 0x54AB5, offset: 0x54AB5, size: 0x8, addend: 0x0, symName: __ZNSt3__117__compressed_pairIPjNS_9allocatorIjEEEC2B8ue170006IDnNS_18__default_init_tagEEEOT_OT0_, symObjAddr: 0x198EC, symBinAddr: 0x10001DB84, symSize: 0x40 }
  - { offsetInCU: 0x54B0D, offset: 0x54B0D, size: 0x8, addend: 0x0, symName: __ZNSt3__122__compressed_pair_elemIPjLi0ELb0EEC2B8ue170006IDnvEEOT_, symObjAddr: 0x1992C, symBinAddr: 0x10001DBC4, symSize: 0x1C }
  - { offsetInCU: 0x54B4F, offset: 0x54B4F, size: 0x8, addend: 0x0, symName: __ZNSt3__122__compressed_pair_elemINS_9allocatorIjEELi1ELb1EEC2B8ue170006ENS_18__default_init_tagE, symObjAddr: 0x19948, symBinAddr: 0x10001DBE0, symSize: 0x2C }
  - { offsetInCU: 0x54B83, offset: 0x54B83, size: 0x8, addend: 0x0, symName: __ZNSt3__19allocatorIjEC2B8ue170006Ev, symObjAddr: 0x19974, symBinAddr: 0x10001DC0C, symSize: 0x2C }
  - { offsetInCU: 0x54BAD, offset: 0x54BAD, size: 0x8, addend: 0x0, symName: __ZNSt3__116__non_trivial_ifILb1ENS_9allocatorIjEEEC2B8ue170006Ev, symObjAddr: 0x199A0, symBinAddr: 0x10001DC38, symSize: 0x14 }
  - { offsetInCU: 0x54BD7, offset: 0x54BD7, size: 0x8, addend: 0x0, symName: __ZNSt3__16vectorIiNS_9allocatorIiEEEC2B8ue170006Ev, symObjAddr: 0x199B4, symBinAddr: 0x10001DC4C, symSize: 0x4C }
  - { offsetInCU: 0x54C01, offset: 0x54C01, size: 0x8, addend: 0x0, symName: __ZNSt3__117__compressed_pairIPiNS_9allocatorIiEEEC1B8ue170006IDnNS_18__default_init_tagEEEOT_OT0_, symObjAddr: 0x19A00, symBinAddr: 0x10001DC98, symSize: 0x3C }
  - { offsetInCU: 0x54C59, offset: 0x54C59, size: 0x8, addend: 0x0, symName: __ZNSt3__117__compressed_pairIPiNS_9allocatorIiEEEC2B8ue170006IDnNS_18__default_init_tagEEEOT_OT0_, symObjAddr: 0x19A3C, symBinAddr: 0x10001DCD4, symSize: 0x40 }
  - { offsetInCU: 0x54CB1, offset: 0x54CB1, size: 0x8, addend: 0x0, symName: __ZNSt3__122__compressed_pair_elemIPiLi0ELb0EEC2B8ue170006IDnvEEOT_, symObjAddr: 0x19A7C, symBinAddr: 0x10001DD14, symSize: 0x1C }
  - { offsetInCU: 0x54CF3, offset: 0x54CF3, size: 0x8, addend: 0x0, symName: __ZNSt3__122__compressed_pair_elemINS_9allocatorIiEELi1ELb1EEC2B8ue170006ENS_18__default_init_tagE, symObjAddr: 0x19A98, symBinAddr: 0x10001DD30, symSize: 0x2C }
  - { offsetInCU: 0x54D27, offset: 0x54D27, size: 0x8, addend: 0x0, symName: __ZNSt3__19allocatorIiEC2B8ue170006Ev, symObjAddr: 0x19AC4, symBinAddr: 0x10001DD5C, symSize: 0x2C }
  - { offsetInCU: 0x54D51, offset: 0x54D51, size: 0x8, addend: 0x0, symName: __ZNSt3__116__non_trivial_ifILb1ENS_9allocatorIiEEEC2B8ue170006Ev, symObjAddr: 0x19AF0, symBinAddr: 0x10001DD88, symSize: 0x14 }
  - { offsetInCU: 0x54D7B, offset: 0x54D7B, size: 0x8, addend: 0x0, symName: __ZN7tinyobj7lines_tC2Ev, symObjAddr: 0x19B04, symBinAddr: 0x10001DD9C, symSize: 0x38 }
  - { offsetInCU: 0x54DA8, offset: 0x54DA8, size: 0x8, addend: 0x0, symName: __ZN7tinyobj8points_tC2Ev, symObjAddr: 0x19B3C, symBinAddr: 0x10001DDD4, symSize: 0x2C }
  - { offsetInCU: 0x54DD5, offset: 0x54DD5, size: 0x8, addend: 0x0, symName: __ZNSt3__16vectorIfNS_9allocatorIfEEE9__end_capB8ue170006Ev, symObjAddr: 0x19C34, symBinAddr: 0x10001DECC, symSize: 0x28 }
  - { offsetInCU: 0x54DFB, offset: 0x54DFB, size: 0x8, addend: 0x0, symName: __ZNSt3__16vectorIfNS_9allocatorIfEEE22__construct_one_at_endB8ue170006IJRKfEEEvDpOT_, symObjAddr: 0x19C5C, symBinAddr: 0x10001DEF4, symSize: 0x90 }
  - { offsetInCU: 0x54E4A, offset: 0x54E4A, size: 0x8, addend: 0x0, symName: __ZNSt3__16vectorIfNS_9allocatorIfEEE21__push_back_slow_pathIRKfEEvOT_, symObjAddr: 0x19CEC, symBinAddr: 0x10001DF84, symSize: 0xD8 }
  - { offsetInCU: 0x54EA8, offset: 0x54EA8, size: 0x8, addend: 0x0, symName: __ZNSt3__117__compressed_pairIPfNS_9allocatorIfEEE5firstB8ue170006Ev, symObjAddr: 0x19DC4, symBinAddr: 0x10001E05C, symSize: 0x24 }
  - { offsetInCU: 0x54ECE, offset: 0x54ECE, size: 0x8, addend: 0x0, symName: __ZNSt3__122__compressed_pair_elemIPfLi0ELb0EE5__getB8ue170006Ev, symObjAddr: 0x19DE8, symBinAddr: 0x10001E080, symSize: 0x14 }
  - { offsetInCU: 0x54F0D, offset: 0x54F0D, size: 0x8, addend: 0x0, symName: __ZNSt3__16vectorIfNS_9allocatorIfEEE21_ConstructTransactionC1B8ue170006ERS3_m, symObjAddr: 0x19DFC, symBinAddr: 0x10001E094, symSize: 0x3C }
  - { offsetInCU: 0x54F55, offset: 0x54F55, size: 0x8, addend: 0x0, symName: __ZNSt3__116allocator_traitsINS_9allocatorIfEEE9constructB8ue170006IfJRKfEvvEEvRS2_PT_DpOT0_, symObjAddr: 0x19E38, symBinAddr: 0x10001E0D0, symSize: 0x30 }
  - { offsetInCU: 0x54FAA, offset: 0x54FAA, size: 0x8, addend: 0x0, symName: __ZNSt3__16vectorIfNS_9allocatorIfEEE21_ConstructTransactionD1B8ue170006Ev, symObjAddr: 0x19E68, symBinAddr: 0x10001E100, symSize: 0x2C }
  - { offsetInCU: 0x54FD4, offset: 0x54FD4, size: 0x8, addend: 0x0, symName: __ZNSt3__16vectorIfNS_9allocatorIfEEE21_ConstructTransactionC2B8ue170006ERS3_m, symObjAddr: 0x19E94, symBinAddr: 0x10001E12C, symSize: 0x44 }
  - { offsetInCU: 0x5501C, offset: 0x5501C, size: 0x8, addend: 0x0, symName: __ZNSt3__16vectorIfNS_9allocatorIfEEE21_ConstructTransactionD2B8ue170006Ev, symObjAddr: 0x19F04, symBinAddr: 0x10001E19C, symSize: 0x20 }
  - { offsetInCU: 0x55046, offset: 0x55046, size: 0x8, addend: 0x0, symName: __ZNKSt3__16vectorIfNS_9allocatorIfEEE11__recommendB8ue170006Em, symObjAddr: 0x19F24, symBinAddr: 0x10001E1BC, symSize: 0xB4 }
  - { offsetInCU: 0x5509B, offset: 0x5509B, size: 0x8, addend: 0x0, symName: __ZNSt3__114__split_bufferIfRNS_9allocatorIfEEEC1EmmS3_, symObjAddr: 0x19FD8, symBinAddr: 0x10001E270, symSize: 0x44 }
  - { offsetInCU: 0x550F1, offset: 0x550F1, size: 0x8, addend: 0x0, symName: __ZNSt3__114__split_bufferIfRNS_9allocatorIfEEED1Ev, symObjAddr: 0x1A12C, symBinAddr: 0x10001E3C4, symSize: 0x2C }
  - { offsetInCU: 0x5511D, offset: 0x5511D, size: 0x8, addend: 0x0, symName: __ZNKSt3__16vectorIfNS_9allocatorIfEEE8max_sizeEv, symObjAddr: 0x1A158, symBinAddr: 0x10001E3F0, symSize: 0x60 }
  - { offsetInCU: 0x55145, offset: 0x55145, size: 0x8, addend: 0x0, symName: __ZNKSt3__16vectorIfNS_9allocatorIfEEE20__throw_length_errorB8ue170006Ev, symObjAddr: 0x1A1B8, symBinAddr: 0x10001E450, symSize: 0x1C }
  - { offsetInCU: 0x55175, offset: 0x55175, size: 0x8, addend: 0x0, symName: __ZNSt3__116allocator_traitsINS_9allocatorIfEEE8max_sizeB8ue170006IS2_vvEEmRKS2_, symObjAddr: 0x1A1D4, symBinAddr: 0x10001E46C, symSize: 0x28 }
  - { offsetInCU: 0x551A1, offset: 0x551A1, size: 0x8, addend: 0x0, symName: __ZNKSt3__16vectorIfNS_9allocatorIfEEE7__allocB8ue170006Ev, symObjAddr: 0x1A1FC, symBinAddr: 0x10001E494, symSize: 0x28 }
  - { offsetInCU: 0x551C7, offset: 0x551C7, size: 0x8, addend: 0x0, symName: __ZNKSt3__117__compressed_pairIPfNS_9allocatorIfEEE6secondB8ue170006Ev, symObjAddr: 0x1A224, symBinAddr: 0x10001E4BC, symSize: 0x24 }
  - { offsetInCU: 0x551ED, offset: 0x551ED, size: 0x8, addend: 0x0, symName: __ZNKSt3__122__compressed_pair_elemINS_9allocatorIfEELi1ELb1EE5__getB8ue170006Ev, symObjAddr: 0x1A248, symBinAddr: 0x10001E4E0, symSize: 0x14 }
  - { offsetInCU: 0x55213, offset: 0x55213, size: 0x8, addend: 0x0, symName: __ZNSt3__114__split_bufferIfRNS_9allocatorIfEEEC2EmmS3_, symObjAddr: 0x1A25C, symBinAddr: 0x10001E4F4, symSize: 0xD4 }
  - { offsetInCU: 0x55286, offset: 0x55286, size: 0x8, addend: 0x0, symName: __ZNSt3__117__compressed_pairIPfRNS_9allocatorIfEEEC1B8ue170006IDnS4_EEOT_OT0_, symObjAddr: 0x1A330, symBinAddr: 0x10001E5C8, symSize: 0x3C }
  - { offsetInCU: 0x552DE, offset: 0x552DE, size: 0x8, addend: 0x0, symName: __ZNSt3__114__split_bufferIfRNS_9allocatorIfEEE7__allocB8ue170006Ev, symObjAddr: 0x1A3AC, symBinAddr: 0x10001E644, symSize: 0x28 }
  - { offsetInCU: 0x55304, offset: 0x55304, size: 0x8, addend: 0x0, symName: __ZNSt3__114__split_bufferIfRNS_9allocatorIfEEE9__end_capB8ue170006Ev, symObjAddr: 0x1A3D4, symBinAddr: 0x10001E66C, symSize: 0x28 }
  - { offsetInCU: 0x5532A, offset: 0x5532A, size: 0x8, addend: 0x0, symName: __ZNSt3__117__compressed_pairIPfRNS_9allocatorIfEEEC2B8ue170006IDnS4_EEOT_OT0_, symObjAddr: 0x1A3FC, symBinAddr: 0x10001E694, symSize: 0x48 }
  - { offsetInCU: 0x55382, offset: 0x55382, size: 0x8, addend: 0x0, symName: __ZNSt3__122__compressed_pair_elemIRNS_9allocatorIfEELi1ELb0EEC2B8ue170006IS3_vEEOT_, symObjAddr: 0x1A444, symBinAddr: 0x10001E6DC, symSize: 0x20 }
  - { offsetInCU: 0x553C4, offset: 0x553C4, size: 0x8, addend: 0x0, symName: __ZNSt3__19allocatorIfE8allocateB8ue170006Em, symObjAddr: 0x1A464, symBinAddr: 0x10001E6FC, symSize: 0x58 }
  - { offsetInCU: 0x553F8, offset: 0x553F8, size: 0x8, addend: 0x0, symName: __ZNSt3__117__compressed_pairIPfRNS_9allocatorIfEEE6secondB8ue170006Ev, symObjAddr: 0x1A4BC, symBinAddr: 0x10001E754, symSize: 0x28 }
  - { offsetInCU: 0x5541E, offset: 0x5541E, size: 0x8, addend: 0x0, symName: __ZNSt3__122__compressed_pair_elemIRNS_9allocatorIfEELi1ELb0EE5__getB8ue170006Ev, symObjAddr: 0x1A4E4, symBinAddr: 0x10001E77C, symSize: 0x18 }
  - { offsetInCU: 0x55444, offset: 0x55444, size: 0x8, addend: 0x0, symName: __ZNSt3__117__compressed_pairIPfRNS_9allocatorIfEEE5firstB8ue170006Ev, symObjAddr: 0x1A4FC, symBinAddr: 0x10001E794, symSize: 0x24 }
  - { offsetInCU: 0x5546A, offset: 0x5546A, size: 0x8, addend: 0x0, symName: __ZNKSt3__16vectorIfNS_9allocatorIfEEE17__annotate_deleteB8ue170006Ev, symObjAddr: 0x1A520, symBinAddr: 0x10001E7B8, symSize: 0xB8 }
  - { offsetInCU: 0x55490, offset: 0x55490, size: 0x8, addend: 0x0, symName: __ZNSt3__116reverse_iteratorIPfEC1B8ue170006ES1_, symObjAddr: 0x1A650, symBinAddr: 0x10001E8E8, symSize: 0x34 }
  - { offsetInCU: 0x554C8, offset: 0x554C8, size: 0x8, addend: 0x0, symName: __ZNKSt3__116reverse_iteratorIPfE4baseB8ue170006Ev, symObjAddr: 0x1A684, symBinAddr: 0x10001E91C, symSize: 0x18 }
  - { offsetInCU: 0x554EE, offset: 0x554EE, size: 0x8, addend: 0x0, symName: __ZNKSt3__16vectorIfNS_9allocatorIfEEE14__annotate_newB8ue170006Em, symObjAddr: 0x1A6D8, symBinAddr: 0x10001E970, symSize: 0xAC }
  - { offsetInCU: 0x55547, offset: 0x55547, size: 0x8, addend: 0x0, symName: __ZNKSt3__111__move_loopINS_17_ClassicAlgPolicyEEclB8ue170006INS_16reverse_iteratorIPfEES6_S6_EENS_4pairIT_T1_EES8_T0_S9_, symObjAddr: 0x1AA3C, symBinAddr: 0x10001ECD4, symSize: 0xA0 }
  - { offsetInCU: 0x555B2, offset: 0x555B2, size: 0x8, addend: 0x0, symName: __ZNSt3__119__unwrap_range_implINS_16reverse_iteratorIPfEES3_E8__unwrapB8ue170006ES3_S3_, symObjAddr: 0x1AC28, symBinAddr: 0x10001EEC0, symSize: 0x84 }
  - { offsetInCU: 0x555E9, offset: 0x555E9, size: 0x8, addend: 0x0, symName: __ZNSt3__14pairINS_16reverse_iteratorIPfEES3_EC1B8ue170006IS3_S3_LPv0EEEOT_OT0_, symObjAddr: 0x1ACAC, symBinAddr: 0x10001EF44, symSize: 0x3C }
  - { offsetInCU: 0x55647, offset: 0x55647, size: 0x8, addend: 0x0, symName: __ZNSt3__14pairINS_16reverse_iteratorIPfEES3_EC2B8ue170006IS3_S3_LPv0EEEOT_OT0_, symObjAddr: 0x1ACE8, symBinAddr: 0x10001EF80, symSize: 0x34 }
  - { offsetInCU: 0x556AB, offset: 0x556AB, size: 0x8, addend: 0x0, symName: __ZNSt3__18_IterOpsINS_17_ClassicAlgPolicyEE11__iter_moveB8ue170006IRNS_16reverse_iteratorIPfEEEENS_9enable_ifIXsr12is_referenceIDTdeclsr3stdE7declvalIRT_EEEEE5valueEDTclsr3stdE4movedeclsr3stdE7declvalISA_EEEEE4typeEOS9_, symObjAddr: 0x1AD64, symBinAddr: 0x10001EFFC, symSize: 0x28 }
  - { offsetInCU: 0x556D7, offset: 0x556D7, size: 0x8, addend: 0x0, symName: __ZNKSt3__116reverse_iteratorIPfEdeB8ue170006Ev, symObjAddr: 0x1AD8C, symBinAddr: 0x10001F024, symSize: 0x28 }
  - { offsetInCU: 0x5570B, offset: 0x5570B, size: 0x8, addend: 0x0, symName: __ZNSt3__116reverse_iteratorIPfEppB8ue170006Ev, symObjAddr: 0x1ADB4, symBinAddr: 0x10001F04C, symSize: 0x20 }
  - { offsetInCU: 0x55731, offset: 0x55731, size: 0x8, addend: 0x0, symName: __ZNSt3__18_IterOpsINS_17_ClassicAlgPolicyEE25__validate_iter_referenceB8ue170006IRNS_16reverse_iteratorIPfEEEEvv, symObjAddr: 0x1ADD4, symBinAddr: 0x10001F06C, symSize: 0x4 }
  - { offsetInCU: 0x5574F, offset: 0x5574F, size: 0x8, addend: 0x0, symName: __ZNSt3__118__unwrap_iter_implINS_16reverse_iteratorIPfEELb0EE8__unwrapB8ue170006ES3_, symObjAddr: 0x1ADD8, symBinAddr: 0x10001F070, symSize: 0x24 }
  - { offsetInCU: 0x55772, offset: 0x55772, size: 0x8, addend: 0x0, symName: __ZNSt3__119__unwrap_range_implINS_16reverse_iteratorIPfEES3_E8__rewrapB8ue170006ES3_S3_, symObjAddr: 0x1ADFC, symBinAddr: 0x10001F094, symSize: 0x5C }
  - { offsetInCU: 0x557A3, offset: 0x557A3, size: 0x8, addend: 0x0, symName: __ZNSt3__118__unwrap_iter_implINS_16reverse_iteratorIPfEELb0EE8__rewrapB8ue170006ES3_S3_, symObjAddr: 0x1AE58, symBinAddr: 0x10001F0F0, symSize: 0x2C }
  - { offsetInCU: 0x557D0, offset: 0x557D0, size: 0x8, addend: 0x0, symName: __ZNSt3__116reverse_iteratorIPfEC2B8ue170006ES1_, symObjAddr: 0x1AE84, symBinAddr: 0x10001F11C, symSize: 0x28 }
  - { offsetInCU: 0x55808, offset: 0x55808, size: 0x8, addend: 0x0, symName: __ZNSt3__114__split_bufferIfRNS_9allocatorIfEEED2Ev, symObjAddr: 0x1AEAC, symBinAddr: 0x10001F144, symSize: 0x8C }
  - { offsetInCU: 0x55834, offset: 0x55834, size: 0x8, addend: 0x0, symName: __ZNSt3__114__split_bufferIfRNS_9allocatorIfEEE5clearB8ue170006Ev, symObjAddr: 0x1AF38, symBinAddr: 0x10001F1D0, symSize: 0x28 }
  - { offsetInCU: 0x5585A, offset: 0x5585A, size: 0x8, addend: 0x0, symName: __ZNSt3__116allocator_traitsINS_9allocatorIfEEE10deallocateB8ue170006ERS2_Pfm, symObjAddr: 0x1AF60, symBinAddr: 0x10001F1F8, symSize: 0x34 }
  - { offsetInCU: 0x5589C, offset: 0x5589C, size: 0x8, addend: 0x0, symName: __ZNKSt3__114__split_bufferIfRNS_9allocatorIfEEE8capacityB8ue170006Ev, symObjAddr: 0x1AF94, symBinAddr: 0x10001F22C, symSize: 0x40 }
  - { offsetInCU: 0x558C2, offset: 0x558C2, size: 0x8, addend: 0x0, symName: __ZNSt3__114__split_bufferIfRNS_9allocatorIfEEE17__destruct_at_endB8ue170006EPf, symObjAddr: 0x1AFD4, symBinAddr: 0x10001F26C, symSize: 0x2C }
  - { offsetInCU: 0x558F6, offset: 0x558F6, size: 0x8, addend: 0x0, symName: __ZNSt3__114__split_bufferIfRNS_9allocatorIfEEE17__destruct_at_endB8ue170006EPfNS_17integral_constantIbLb0EEE, symObjAddr: 0x1B000, symBinAddr: 0x10001F298, symSize: 0x80 }
  - { offsetInCU: 0x55936, offset: 0x55936, size: 0x8, addend: 0x0, symName: __ZNSt3__19allocatorIfE10deallocateB8ue170006EPfm, symObjAddr: 0x1B080, symBinAddr: 0x10001F318, symSize: 0x40 }
  - { offsetInCU: 0x55978, offset: 0x55978, size: 0x8, addend: 0x0, symName: __ZNKSt3__114__split_bufferIfRNS_9allocatorIfEEE9__end_capB8ue170006Ev, symObjAddr: 0x1B0C0, symBinAddr: 0x10001F358, symSize: 0x28 }
  - { offsetInCU: 0x5599E, offset: 0x5599E, size: 0x8, addend: 0x0, symName: __ZNKSt3__117__compressed_pairIPfRNS_9allocatorIfEEE5firstB8ue170006Ev, symObjAddr: 0x1B0E8, symBinAddr: 0x10001F380, symSize: 0x24 }
  - { offsetInCU: 0x559C4, offset: 0x559C4, size: 0x8, addend: 0x0, symName: __ZN7tinyobj13skin_weight_tC2Ev, symObjAddr: 0x1B10C, symBinAddr: 0x10001F3A4, symSize: 0x30 }
  - { offsetInCU: 0x559F1, offset: 0x559F1, size: 0x8, addend: 0x0, symName: __ZNSt3__16vectorIN7tinyobj18joint_and_weight_tENS_9allocatorIS2_EEEC1B8ue170006Ev, symObjAddr: 0x1B13C, symBinAddr: 0x10001F3D4, symSize: 0x2C }
  - { offsetInCU: 0x55A1B, offset: 0x55A1B, size: 0x8, addend: 0x0, symName: __ZNSt3__16vectorIN7tinyobj18joint_and_weight_tENS_9allocatorIS2_EEEC2B8ue170006Ev, symObjAddr: 0x1B168, symBinAddr: 0x10001F400, symSize: 0x4C }
  - { offsetInCU: 0x55A45, offset: 0x55A45, size: 0x8, addend: 0x0, symName: __ZNSt3__117__compressed_pairIPN7tinyobj18joint_and_weight_tENS_9allocatorIS2_EEEC1B8ue170006IDnNS_18__default_init_tagEEEOT_OT0_, symObjAddr: 0x1B1B4, symBinAddr: 0x10001F44C, symSize: 0x3C }
  - { offsetInCU: 0x55A9D, offset: 0x55A9D, size: 0x8, addend: 0x0, symName: __ZNSt3__117__compressed_pairIPN7tinyobj18joint_and_weight_tENS_9allocatorIS2_EEEC2B8ue170006IDnNS_18__default_init_tagEEEOT_OT0_, symObjAddr: 0x1B1F0, symBinAddr: 0x10001F488, symSize: 0x40 }
  - { offsetInCU: 0x55AF5, offset: 0x55AF5, size: 0x8, addend: 0x0, symName: __ZNSt3__122__compressed_pair_elemIPN7tinyobj18joint_and_weight_tELi0ELb0EEC2B8ue170006IDnvEEOT_, symObjAddr: 0x1B230, symBinAddr: 0x10001F4C8, symSize: 0x1C }
  - { offsetInCU: 0x55B37, offset: 0x55B37, size: 0x8, addend: 0x0, symName: __ZNSt3__122__compressed_pair_elemINS_9allocatorIN7tinyobj18joint_and_weight_tEEELi1ELb1EEC2B8ue170006ENS_18__default_init_tagE, symObjAddr: 0x1B24C, symBinAddr: 0x10001F4E4, symSize: 0x2C }
  - { offsetInCU: 0x55B6B, offset: 0x55B6B, size: 0x8, addend: 0x0, symName: __ZNSt3__19allocatorIN7tinyobj18joint_and_weight_tEEC2B8ue170006Ev, symObjAddr: 0x1B278, symBinAddr: 0x10001F510, symSize: 0x2C }
  - { offsetInCU: 0x55B95, offset: 0x55B95, size: 0x8, addend: 0x0, symName: __ZNSt3__116__non_trivial_ifILb1ENS_9allocatorIN7tinyobj18joint_and_weight_tEEEEC2B8ue170006Ev, symObjAddr: 0x1B2A4, symBinAddr: 0x10001F53C, symSize: 0x14 }
  - { offsetInCU: 0x55BBF, offset: 0x55BBF, size: 0x8, addend: 0x0, symName: __ZNSt3__16vectorIN7tinyobj18joint_and_weight_tENS_9allocatorIS2_EEE9__end_capB8ue170006Ev, symObjAddr: 0x1B2B8, symBinAddr: 0x10001F550, symSize: 0x28 }
  - { offsetInCU: 0x55BEA, offset: 0x55BEA, size: 0x8, addend: 0x0, symName: __ZNSt3__16vectorIN7tinyobj18joint_and_weight_tENS_9allocatorIS2_EEE22__construct_one_at_endB8ue170006IJRKS2_EEEvDpOT_, symObjAddr: 0x1B2E0, symBinAddr: 0x10001F578, symSize: 0x90 }
  - { offsetInCU: 0x55C39, offset: 0x55C39, size: 0x8, addend: 0x0, symName: __ZNSt3__16vectorIN7tinyobj18joint_and_weight_tENS_9allocatorIS2_EEE21__push_back_slow_pathIRKS2_EEvOT_, symObjAddr: 0x1B370, symBinAddr: 0x10001F608, symSize: 0xD8 }
  - { offsetInCU: 0x55C97, offset: 0x55C97, size: 0x8, addend: 0x0, symName: __ZNSt3__117__compressed_pairIPN7tinyobj18joint_and_weight_tENS_9allocatorIS2_EEE5firstB8ue170006Ev, symObjAddr: 0x1B448, symBinAddr: 0x10001F6E0, symSize: 0x24 }
  - { offsetInCU: 0x55CBD, offset: 0x55CBD, size: 0x8, addend: 0x0, symName: __ZNSt3__122__compressed_pair_elemIPN7tinyobj18joint_and_weight_tELi0ELb0EE5__getB8ue170006Ev, symObjAddr: 0x1B46C, symBinAddr: 0x10001F704, symSize: 0x14 }
  - { offsetInCU: 0x55CFC, offset: 0x55CFC, size: 0x8, addend: 0x0, symName: __ZNSt3__16vectorIN7tinyobj18joint_and_weight_tENS_9allocatorIS2_EEE21_ConstructTransactionC1B8ue170006ERS5_m, symObjAddr: 0x1B480, symBinAddr: 0x10001F718, symSize: 0x3C }
  - { offsetInCU: 0x55D44, offset: 0x55D44, size: 0x8, addend: 0x0, symName: __ZNSt3__116allocator_traitsINS_9allocatorIN7tinyobj18joint_and_weight_tEEEE9constructB8ue170006IS3_JRKS3_EvvEEvRS4_PT_DpOT0_, symObjAddr: 0x1B4BC, symBinAddr: 0x10001F754, symSize: 0x30 }
  - { offsetInCU: 0x55D99, offset: 0x55D99, size: 0x8, addend: 0x0, symName: __ZNSt3__16vectorIN7tinyobj18joint_and_weight_tENS_9allocatorIS2_EEE7__allocB8ue170006Ev, symObjAddr: 0x1B4EC, symBinAddr: 0x10001F784, symSize: 0x28 }
  - { offsetInCU: 0x55DBF, offset: 0x55DBF, size: 0x8, addend: 0x0, symName: __ZNSt3__16vectorIN7tinyobj18joint_and_weight_tENS_9allocatorIS2_EEE21_ConstructTransactionD1B8ue170006Ev, symObjAddr: 0x1B528, symBinAddr: 0x10001F7C0, symSize: 0x2C }
  - { offsetInCU: 0x55DE9, offset: 0x55DE9, size: 0x8, addend: 0x0, symName: __ZNSt3__16vectorIN7tinyobj18joint_and_weight_tENS_9allocatorIS2_EEE21_ConstructTransactionC2B8ue170006ERS5_m, symObjAddr: 0x1B554, symBinAddr: 0x10001F7EC, symSize: 0x44 }
  - { offsetInCU: 0x55E31, offset: 0x55E31, size: 0x8, addend: 0x0, symName: __ZNSt3__117__compressed_pairIPN7tinyobj18joint_and_weight_tENS_9allocatorIS2_EEE6secondB8ue170006Ev, symObjAddr: 0x1B5C4, symBinAddr: 0x10001F85C, symSize: 0x24 }
  - { offsetInCU: 0x55E57, offset: 0x55E57, size: 0x8, addend: 0x0, symName: __ZNSt3__122__compressed_pair_elemINS_9allocatorIN7tinyobj18joint_and_weight_tEEELi1ELb1EE5__getB8ue170006Ev, symObjAddr: 0x1B5E8, symBinAddr: 0x10001F880, symSize: 0x14 }
  - { offsetInCU: 0x55E7D, offset: 0x55E7D, size: 0x8, addend: 0x0, symName: __ZNSt3__16vectorIN7tinyobj18joint_and_weight_tENS_9allocatorIS2_EEE21_ConstructTransactionD2B8ue170006Ev, symObjAddr: 0x1B5FC, symBinAddr: 0x10001F894, symSize: 0x20 }
  - { offsetInCU: 0x55EA7, offset: 0x55EA7, size: 0x8, addend: 0x0, symName: __ZNKSt3__16vectorIN7tinyobj18joint_and_weight_tENS_9allocatorIS2_EEE11__recommendB8ue170006Em, symObjAddr: 0x1B61C, symBinAddr: 0x10001F8B4, symSize: 0xB4 }
  - { offsetInCU: 0x55EFC, offset: 0x55EFC, size: 0x8, addend: 0x0, symName: __ZNKSt3__16vectorIN7tinyobj18joint_and_weight_tENS_9allocatorIS2_EEE4sizeB8ue170006Ev, symObjAddr: 0x1B6D0, symBinAddr: 0x10001F968, symSize: 0x28 }
  - { offsetInCU: 0x55F22, offset: 0x55F22, size: 0x8, addend: 0x0, symName: __ZNSt3__114__split_bufferIN7tinyobj18joint_and_weight_tERNS_9allocatorIS2_EEEC1EmmS5_, symObjAddr: 0x1B6F8, symBinAddr: 0x10001F990, symSize: 0x44 }
  - { offsetInCU: 0x55F78, offset: 0x55F78, size: 0x8, addend: 0x0, symName: __ZNSt3__114__split_bufferIN7tinyobj18joint_and_weight_tERNS_9allocatorIS2_EEED1Ev, symObjAddr: 0x1B84C, symBinAddr: 0x10001FAE4, symSize: 0x2C }
  - { offsetInCU: 0x55FA4, offset: 0x55FA4, size: 0x8, addend: 0x0, symName: __ZNKSt3__16vectorIN7tinyobj18joint_and_weight_tENS_9allocatorIS2_EEE8max_sizeEv, symObjAddr: 0x1B878, symBinAddr: 0x10001FB10, symSize: 0x60 }
  - { offsetInCU: 0x55FCC, offset: 0x55FCC, size: 0x8, addend: 0x0, symName: __ZNKSt3__16vectorIN7tinyobj18joint_and_weight_tENS_9allocatorIS2_EEE20__throw_length_errorB8ue170006Ev, symObjAddr: 0x1B8D8, symBinAddr: 0x10001FB70, symSize: 0x1C }
  - { offsetInCU: 0x55FF2, offset: 0x55FF2, size: 0x8, addend: 0x0, symName: __ZNKSt3__16vectorIN7tinyobj18joint_and_weight_tENS_9allocatorIS2_EEE8capacityB8ue170006Ev, symObjAddr: 0x1B8F4, symBinAddr: 0x10001FB8C, symSize: 0x40 }
  - { offsetInCU: 0x56022, offset: 0x56022, size: 0x8, addend: 0x0, symName: __ZNSt3__116allocator_traitsINS_9allocatorIN7tinyobj18joint_and_weight_tEEEE8max_sizeB8ue170006IS4_vvEEmRKS4_, symObjAddr: 0x1B934, symBinAddr: 0x10001FBCC, symSize: 0x28 }
  - { offsetInCU: 0x5604E, offset: 0x5604E, size: 0x8, addend: 0x0, symName: __ZNKSt3__16vectorIN7tinyobj18joint_and_weight_tENS_9allocatorIS2_EEE7__allocB8ue170006Ev, symObjAddr: 0x1B95C, symBinAddr: 0x10001FBF4, symSize: 0x28 }
  - { offsetInCU: 0x56074, offset: 0x56074, size: 0x8, addend: 0x0, symName: __ZNKSt3__117__compressed_pairIPN7tinyobj18joint_and_weight_tENS_9allocatorIS2_EEE6secondB8ue170006Ev, symObjAddr: 0x1B984, symBinAddr: 0x10001FC1C, symSize: 0x24 }
  - { offsetInCU: 0x5609A, offset: 0x5609A, size: 0x8, addend: 0x0, symName: __ZNKSt3__122__compressed_pair_elemINS_9allocatorIN7tinyobj18joint_and_weight_tEEELi1ELb1EE5__getB8ue170006Ev, symObjAddr: 0x1B9A8, symBinAddr: 0x10001FC40, symSize: 0x14 }
  - { offsetInCU: 0x560C0, offset: 0x560C0, size: 0x8, addend: 0x0, symName: __ZNKSt3__16vectorIN7tinyobj18joint_and_weight_tENS_9allocatorIS2_EEE9__end_capB8ue170006Ev, symObjAddr: 0x1B9BC, symBinAddr: 0x10001FC54, symSize: 0x28 }
  - { offsetInCU: 0x560E6, offset: 0x560E6, size: 0x8, addend: 0x0, symName: __ZNKSt3__117__compressed_pairIPN7tinyobj18joint_and_weight_tENS_9allocatorIS2_EEE5firstB8ue170006Ev, symObjAddr: 0x1B9E4, symBinAddr: 0x10001FC7C, symSize: 0x24 }
  - { offsetInCU: 0x5610C, offset: 0x5610C, size: 0x8, addend: 0x0, symName: __ZNKSt3__122__compressed_pair_elemIPN7tinyobj18joint_and_weight_tELi0ELb0EE5__getB8ue170006Ev, symObjAddr: 0x1BA08, symBinAddr: 0x10001FCA0, symSize: 0x14 }
  - { offsetInCU: 0x56132, offset: 0x56132, size: 0x8, addend: 0x0, symName: __ZNSt3__114__split_bufferIN7tinyobj18joint_and_weight_tERNS_9allocatorIS2_EEEC2EmmS5_, symObjAddr: 0x1BA1C, symBinAddr: 0x10001FCB4, symSize: 0xD4 }
  - { offsetInCU: 0x561A5, offset: 0x561A5, size: 0x8, addend: 0x0, symName: __ZNSt3__117__compressed_pairIPN7tinyobj18joint_and_weight_tERNS_9allocatorIS2_EEEC1B8ue170006IDnS6_EEOT_OT0_, symObjAddr: 0x1BAF0, symBinAddr: 0x10001FD88, symSize: 0x3C }
  - { offsetInCU: 0x561FD, offset: 0x561FD, size: 0x8, addend: 0x0, symName: __ZNSt3__114__split_bufferIN7tinyobj18joint_and_weight_tERNS_9allocatorIS2_EEE7__allocB8ue170006Ev, symObjAddr: 0x1BB6C, symBinAddr: 0x10001FE04, symSize: 0x28 }
  - { offsetInCU: 0x56223, offset: 0x56223, size: 0x8, addend: 0x0, symName: __ZNSt3__114__split_bufferIN7tinyobj18joint_and_weight_tERNS_9allocatorIS2_EEE9__end_capB8ue170006Ev, symObjAddr: 0x1BB94, symBinAddr: 0x10001FE2C, symSize: 0x28 }
  - { offsetInCU: 0x56249, offset: 0x56249, size: 0x8, addend: 0x0, symName: __ZNSt3__117__compressed_pairIPN7tinyobj18joint_and_weight_tERNS_9allocatorIS2_EEEC2B8ue170006IDnS6_EEOT_OT0_, symObjAddr: 0x1BBBC, symBinAddr: 0x10001FE54, symSize: 0x48 }
  - { offsetInCU: 0x562A1, offset: 0x562A1, size: 0x8, addend: 0x0, symName: __ZNSt3__122__compressed_pair_elemIRNS_9allocatorIN7tinyobj18joint_and_weight_tEEELi1ELb0EEC2B8ue170006IS5_vEEOT_, symObjAddr: 0x1BC04, symBinAddr: 0x10001FE9C, symSize: 0x20 }
  - { offsetInCU: 0x562E3, offset: 0x562E3, size: 0x8, addend: 0x0, symName: __ZNSt3__19allocatorIN7tinyobj18joint_and_weight_tEE8allocateB8ue170006Em, symObjAddr: 0x1BC24, symBinAddr: 0x10001FEBC, symSize: 0x58 }
  - { offsetInCU: 0x56317, offset: 0x56317, size: 0x8, addend: 0x0, symName: __ZNSt3__117__compressed_pairIPN7tinyobj18joint_and_weight_tERNS_9allocatorIS2_EEE6secondB8ue170006Ev, symObjAddr: 0x1BC7C, symBinAddr: 0x10001FF14, symSize: 0x28 }
  - { offsetInCU: 0x5633D, offset: 0x5633D, size: 0x8, addend: 0x0, symName: __ZNSt3__122__compressed_pair_elemIRNS_9allocatorIN7tinyobj18joint_and_weight_tEEELi1ELb0EE5__getB8ue170006Ev, symObjAddr: 0x1BCA4, symBinAddr: 0x10001FF3C, symSize: 0x18 }
  - { offsetInCU: 0x56363, offset: 0x56363, size: 0x8, addend: 0x0, symName: __ZNSt3__117__compressed_pairIPN7tinyobj18joint_and_weight_tERNS_9allocatorIS2_EEE5firstB8ue170006Ev, symObjAddr: 0x1BCBC, symBinAddr: 0x10001FF54, symSize: 0x24 }
  - { offsetInCU: 0x56389, offset: 0x56389, size: 0x8, addend: 0x0, symName: __ZNKSt3__16vectorIN7tinyobj18joint_and_weight_tENS_9allocatorIS2_EEE17__annotate_deleteB8ue170006Ev, symObjAddr: 0x1BCE0, symBinAddr: 0x10001FF78, symSize: 0xB8 }
  - { offsetInCU: 0x563AF, offset: 0x563AF, size: 0x8, addend: 0x0, symName: __ZNSt3__116reverse_iteratorIPN7tinyobj18joint_and_weight_tEEC1B8ue170006ES3_, symObjAddr: 0x1BE10, symBinAddr: 0x1000200A8, symSize: 0x34 }
  - { offsetInCU: 0x563E7, offset: 0x563E7, size: 0x8, addend: 0x0, symName: __ZNKSt3__116reverse_iteratorIPN7tinyobj18joint_and_weight_tEE4baseB8ue170006Ev, symObjAddr: 0x1BE44, symBinAddr: 0x1000200DC, symSize: 0x18 }
  - { offsetInCU: 0x5640D, offset: 0x5640D, size: 0x8, addend: 0x0, symName: __ZNKSt3__16vectorIN7tinyobj18joint_and_weight_tENS_9allocatorIS2_EEE14__annotate_newB8ue170006Em, symObjAddr: 0x1BE98, symBinAddr: 0x100020130, symSize: 0xAC }
  - { offsetInCU: 0x56442, offset: 0x56442, size: 0x8, addend: 0x0, symName: __ZNKSt3__16vectorIN7tinyobj18joint_and_weight_tENS_9allocatorIS2_EEE31__annotate_contiguous_containerB8ue170006EPKvS7_S7_S7_, symObjAddr: 0x1BF44, symBinAddr: 0x1000201DC, symSize: 0x20 }
  - { offsetInCU: 0x56498, offset: 0x56498, size: 0x8, addend: 0x0, symName: __ZNKSt3__16vectorIN7tinyobj18joint_and_weight_tENS_9allocatorIS2_EEE4dataB8ue170006Ev, symObjAddr: 0x1BF64, symBinAddr: 0x1000201FC, symSize: 0x28 }
  - { offsetInCU: 0x564D8, offset: 0x564D8, size: 0x8, addend: 0x0, symName: __ZNKSt3__111__move_loopINS_17_ClassicAlgPolicyEEclB8ue170006INS_16reverse_iteratorIPN7tinyobj18joint_and_weight_tEEES8_S8_EENS_4pairIT_T1_EESA_T0_SB_, symObjAddr: 0x1C244, symBinAddr: 0x1000204DC, symSize: 0xA0 }
  - { offsetInCU: 0x56543, offset: 0x56543, size: 0x8, addend: 0x0, symName: __ZNSt3__119__unwrap_range_implINS_16reverse_iteratorIPN7tinyobj18joint_and_weight_tEEES5_E8__unwrapB8ue170006ES5_S5_, symObjAddr: 0x1C430, symBinAddr: 0x1000206C8, symSize: 0x84 }
  - { offsetInCU: 0x5657A, offset: 0x5657A, size: 0x8, addend: 0x0, symName: __ZNSt3__14pairINS_16reverse_iteratorIPN7tinyobj18joint_and_weight_tEEES5_EC1B8ue170006IS5_S5_LPv0EEEOT_OT0_, symObjAddr: 0x1C4B4, symBinAddr: 0x10002074C, symSize: 0x3C }
  - { offsetInCU: 0x565D8, offset: 0x565D8, size: 0x8, addend: 0x0, symName: __ZNSt3__14pairINS_16reverse_iteratorIPN7tinyobj18joint_and_weight_tEEES5_EC2B8ue170006IS5_S5_LPv0EEEOT_OT0_, symObjAddr: 0x1C4F0, symBinAddr: 0x100020788, symSize: 0x34 }
  - { offsetInCU: 0x5663C, offset: 0x5663C, size: 0x8, addend: 0x0, symName: __ZNSt3__18_IterOpsINS_17_ClassicAlgPolicyEE11__iter_moveB8ue170006IRNS_16reverse_iteratorIPN7tinyobj18joint_and_weight_tEEEEENS_9enable_ifIXsr12is_referenceIDTdeclsr3stdE7declvalIRT_EEEEE5valueEDTclsr3stdE4movedeclsr3stdE7declvalISC_EEEEE4typeEOSB_, symObjAddr: 0x1C56C, symBinAddr: 0x100020804, symSize: 0x28 }
  - { offsetInCU: 0x56668, offset: 0x56668, size: 0x8, addend: 0x0, symName: __ZNKSt3__116reverse_iteratorIPN7tinyobj18joint_and_weight_tEEdeB8ue170006Ev, symObjAddr: 0x1C594, symBinAddr: 0x10002082C, symSize: 0x28 }
  - { offsetInCU: 0x5669C, offset: 0x5669C, size: 0x8, addend: 0x0, symName: __ZNSt3__116reverse_iteratorIPN7tinyobj18joint_and_weight_tEEppB8ue170006Ev, symObjAddr: 0x1C5BC, symBinAddr: 0x100020854, symSize: 0x20 }
  - { offsetInCU: 0x566C2, offset: 0x566C2, size: 0x8, addend: 0x0, symName: __ZNSt3__18_IterOpsINS_17_ClassicAlgPolicyEE25__validate_iter_referenceB8ue170006IRNS_16reverse_iteratorIPN7tinyobj18joint_and_weight_tEEEEEvv, symObjAddr: 0x1C5DC, symBinAddr: 0x100020874, symSize: 0x4 }
  - { offsetInCU: 0x566E0, offset: 0x566E0, size: 0x8, addend: 0x0, symName: __ZNSt3__118__unwrap_iter_implINS_16reverse_iteratorIPN7tinyobj18joint_and_weight_tEEELb0EE8__unwrapB8ue170006ES5_, symObjAddr: 0x1C5E0, symBinAddr: 0x100020878, symSize: 0x24 }
  - { offsetInCU: 0x56703, offset: 0x56703, size: 0x8, addend: 0x0, symName: __ZNSt3__119__unwrap_range_implINS_16reverse_iteratorIPN7tinyobj18joint_and_weight_tEEES5_E8__rewrapB8ue170006ES5_S5_, symObjAddr: 0x1C604, symBinAddr: 0x10002089C, symSize: 0x5C }
  - { offsetInCU: 0x56734, offset: 0x56734, size: 0x8, addend: 0x0, symName: __ZNSt3__118__unwrap_iter_implINS_16reverse_iteratorIPN7tinyobj18joint_and_weight_tEEELb0EE8__rewrapB8ue170006ES5_S5_, symObjAddr: 0x1C660, symBinAddr: 0x1000208F8, symSize: 0x2C }
  - { offsetInCU: 0x56761, offset: 0x56761, size: 0x8, addend: 0x0, symName: __ZNSt3__116reverse_iteratorIPN7tinyobj18joint_and_weight_tEEC2B8ue170006ES3_, symObjAddr: 0x1C68C, symBinAddr: 0x100020924, symSize: 0x28 }
  - { offsetInCU: 0x56799, offset: 0x56799, size: 0x8, addend: 0x0, symName: __ZNSt3__114__split_bufferIN7tinyobj18joint_and_weight_tERNS_9allocatorIS2_EEED2Ev, symObjAddr: 0x1C6B4, symBinAddr: 0x10002094C, symSize: 0x8C }
  - { offsetInCU: 0x567C5, offset: 0x567C5, size: 0x8, addend: 0x0, symName: __ZNSt3__114__split_bufferIN7tinyobj18joint_and_weight_tERNS_9allocatorIS2_EEE5clearB8ue170006Ev, symObjAddr: 0x1C740, symBinAddr: 0x1000209D8, symSize: 0x28 }
  - { offsetInCU: 0x567EB, offset: 0x567EB, size: 0x8, addend: 0x0, symName: __ZNSt3__116allocator_traitsINS_9allocatorIN7tinyobj18joint_and_weight_tEEEE10deallocateB8ue170006ERS4_PS3_m, symObjAddr: 0x1C768, symBinAddr: 0x100020A00, symSize: 0x34 }
  - { offsetInCU: 0x5682D, offset: 0x5682D, size: 0x8, addend: 0x0, symName: __ZNKSt3__114__split_bufferIN7tinyobj18joint_and_weight_tERNS_9allocatorIS2_EEE8capacityB8ue170006Ev, symObjAddr: 0x1C79C, symBinAddr: 0x100020A34, symSize: 0x40 }
  - { offsetInCU: 0x56853, offset: 0x56853, size: 0x8, addend: 0x0, symName: __ZNSt3__114__split_bufferIN7tinyobj18joint_and_weight_tERNS_9allocatorIS2_EEE17__destruct_at_endB8ue170006EPS2_, symObjAddr: 0x1C7DC, symBinAddr: 0x100020A74, symSize: 0x2C }
  - { offsetInCU: 0x56887, offset: 0x56887, size: 0x8, addend: 0x0, symName: __ZNSt3__114__split_bufferIN7tinyobj18joint_and_weight_tERNS_9allocatorIS2_EEE17__destruct_at_endB8ue170006EPS2_NS_17integral_constantIbLb0EEE, symObjAddr: 0x1C808, symBinAddr: 0x100020AA0, symSize: 0x80 }
  - { offsetInCU: 0x568C7, offset: 0x568C7, size: 0x8, addend: 0x0, symName: __ZNSt3__116allocator_traitsINS_9allocatorIN7tinyobj18joint_and_weight_tEEEE7destroyB8ue170006IS3_vvEEvRS4_PT_, symObjAddr: 0x1C888, symBinAddr: 0x100020B20, symSize: 0x28 }
  - { offsetInCU: 0x56902, offset: 0x56902, size: 0x8, addend: 0x0, symName: __ZNSt3__19allocatorIN7tinyobj18joint_and_weight_tEE10deallocateB8ue170006EPS2_m, symObjAddr: 0x1C8E4, symBinAddr: 0x100020B7C, symSize: 0x40 }
  - { offsetInCU: 0x56944, offset: 0x56944, size: 0x8, addend: 0x0, symName: __ZNKSt3__114__split_bufferIN7tinyobj18joint_and_weight_tERNS_9allocatorIS2_EEE9__end_capB8ue170006Ev, symObjAddr: 0x1C924, symBinAddr: 0x100020BBC, symSize: 0x28 }
  - { offsetInCU: 0x5696A, offset: 0x5696A, size: 0x8, addend: 0x0, symName: __ZNKSt3__117__compressed_pairIPN7tinyobj18joint_and_weight_tERNS_9allocatorIS2_EEE5firstB8ue170006Ev, symObjAddr: 0x1C94C, symBinAddr: 0x100020BE4, symSize: 0x24 }
  - { offsetInCU: 0x56990, offset: 0x56990, size: 0x8, addend: 0x0, symName: __ZNSt3__16vectorIN7tinyobj13skin_weight_tENS_9allocatorIS2_EEE9__end_capB8ue170006Ev, symObjAddr: 0x1C970, symBinAddr: 0x100020C08, symSize: 0x28 }
  - { offsetInCU: 0x569BB, offset: 0x569BB, size: 0x8, addend: 0x0, symName: __ZNSt3__16vectorIN7tinyobj13skin_weight_tENS_9allocatorIS2_EEE22__construct_one_at_endB8ue170006IJRKS2_EEEvDpOT_, symObjAddr: 0x1C998, symBinAddr: 0x100020C30, symSize: 0x90 }
  - { offsetInCU: 0x56A0A, offset: 0x56A0A, size: 0x8, addend: 0x0, symName: __ZNSt3__16vectorIN7tinyobj13skin_weight_tENS_9allocatorIS2_EEE21__push_back_slow_pathIRKS2_EEvOT_, symObjAddr: 0x1CA28, symBinAddr: 0x100020CC0, symSize: 0xD8 }
  - { offsetInCU: 0x56A68, offset: 0x56A68, size: 0x8, addend: 0x0, symName: __ZNSt3__117__compressed_pairIPN7tinyobj13skin_weight_tENS_9allocatorIS2_EEE5firstB8ue170006Ev, symObjAddr: 0x1CB00, symBinAddr: 0x100020D98, symSize: 0x24 }
  - { offsetInCU: 0x56A8E, offset: 0x56A8E, size: 0x8, addend: 0x0, symName: __ZNSt3__122__compressed_pair_elemIPN7tinyobj13skin_weight_tELi0ELb0EE5__getB8ue170006Ev, symObjAddr: 0x1CB24, symBinAddr: 0x100020DBC, symSize: 0x14 }
  - { offsetInCU: 0x56ACD, offset: 0x56ACD, size: 0x8, addend: 0x0, symName: __ZNSt3__16vectorIN7tinyobj13skin_weight_tENS_9allocatorIS2_EEE21_ConstructTransactionC1B8ue170006ERS5_m, symObjAddr: 0x1CB38, symBinAddr: 0x100020DD0, symSize: 0x3C }
  - { offsetInCU: 0x56B15, offset: 0x56B15, size: 0x8, addend: 0x0, symName: __ZNSt3__116allocator_traitsINS_9allocatorIN7tinyobj13skin_weight_tEEEE9constructB8ue170006IS3_JRKS3_EvvEEvRS4_PT_DpOT0_, symObjAddr: 0x1CB74, symBinAddr: 0x100020E0C, symSize: 0x30 }
  - { offsetInCU: 0x56B6A, offset: 0x56B6A, size: 0x8, addend: 0x0, symName: __ZNSt3__16vectorIN7tinyobj13skin_weight_tENS_9allocatorIS2_EEE7__allocB8ue170006Ev, symObjAddr: 0x1CBA4, symBinAddr: 0x100020E3C, symSize: 0x28 }
  - { offsetInCU: 0x56B90, offset: 0x56B90, size: 0x8, addend: 0x0, symName: __ZNSt3__16vectorIN7tinyobj13skin_weight_tENS_9allocatorIS2_EEE21_ConstructTransactionD1B8ue170006Ev, symObjAddr: 0x1CBE0, symBinAddr: 0x100020E78, symSize: 0x2C }
  - { offsetInCU: 0x56BBA, offset: 0x56BBA, size: 0x8, addend: 0x0, symName: __ZNSt3__16vectorIN7tinyobj13skin_weight_tENS_9allocatorIS2_EEE21_ConstructTransactionC2B8ue170006ERS5_m, symObjAddr: 0x1CC0C, symBinAddr: 0x100020EA4, symSize: 0x44 }
  - { offsetInCU: 0x56C02, offset: 0x56C02, size: 0x8, addend: 0x0, symName: __ZN7tinyobj13skin_weight_tC1ERKS0_, symObjAddr: 0x1CC8C, symBinAddr: 0x100020F24, symSize: 0x34 }
  - { offsetInCU: 0x56C38, offset: 0x56C38, size: 0x8, addend: 0x0, symName: __ZN7tinyobj13skin_weight_tC2ERKS0_, symObjAddr: 0x1CCC0, symBinAddr: 0x100020F58, symSize: 0x48 }
  - { offsetInCU: 0x56C6E, offset: 0x56C6E, size: 0x8, addend: 0x0, symName: __ZNSt3__16vectorIN7tinyobj18joint_and_weight_tENS_9allocatorIS2_EEEC1ERKS5_, symObjAddr: 0x1CD08, symBinAddr: 0x100020FA0, symSize: 0x34 }
  - { offsetInCU: 0x56CA9, offset: 0x56CA9, size: 0x8, addend: 0x0, symName: __ZNSt3__16vectorIN7tinyobj18joint_and_weight_tENS_9allocatorIS2_EEEC2ERKS5_, symObjAddr: 0x1CD3C, symBinAddr: 0x100020FD4, symSize: 0x94 }
  - { offsetInCU: 0x56CE4, offset: 0x56CE4, size: 0x8, addend: 0x0, symName: __ZNSt3__116allocator_traitsINS_9allocatorIN7tinyobj18joint_and_weight_tEEEE37select_on_container_copy_constructionB8ue170006IS4_vvEES4_RKS4_, symObjAddr: 0x1CDD0, symBinAddr: 0x100021068, symSize: 0x10 }
  - { offsetInCU: 0x56D19, offset: 0x56D19, size: 0x8, addend: 0x0, symName: __ZNSt3__117__compressed_pairIPN7tinyobj18joint_and_weight_tENS_9allocatorIS2_EEEC1B8ue170006IDnS5_EEOT_OT0_, symObjAddr: 0x1CDE0, symBinAddr: 0x100021078, symSize: 0x3C }
  - { offsetInCU: 0x56D71, offset: 0x56D71, size: 0x8, addend: 0x0, symName: __ZNSt3__16vectorIN7tinyobj18joint_and_weight_tENS_9allocatorIS2_EEE16__init_with_sizeB8ue170006IPS2_S7_EEvT_T0_m, symObjAddr: 0x1CE1C, symBinAddr: 0x1000210B4, symSize: 0xB8 }
  - { offsetInCU: 0x56DE5, offset: 0x56DE5, size: 0x8, addend: 0x0, symName: __ZNSt3__117__compressed_pairIPN7tinyobj18joint_and_weight_tENS_9allocatorIS2_EEEC2B8ue170006IDnS5_EEOT_OT0_, symObjAddr: 0x1CED4, symBinAddr: 0x10002116C, symSize: 0x44 }
  - { offsetInCU: 0x56E3D, offset: 0x56E3D, size: 0x8, addend: 0x0, symName: __ZNSt3__122__compressed_pair_elemINS_9allocatorIN7tinyobj18joint_and_weight_tEEELi1ELb1EEC2B8ue170006IS4_vEEOT_, symObjAddr: 0x1CF18, symBinAddr: 0x1000211B0, symSize: 0x18 }
  - { offsetInCU: 0x56E7F, offset: 0x56E7F, size: 0x8, addend: 0x0, symName: __ZNSt3__16vectorIN7tinyobj18joint_and_weight_tENS_9allocatorIS2_EEE16__destroy_vectorC1B8ue170006ERS5_, symObjAddr: 0x1CF70, symBinAddr: 0x100021208, symSize: 0x34 }
  - { offsetInCU: 0x56EB8, offset: 0x56EB8, size: 0x8, addend: 0x0, symName: __ZNSt3__16vectorIN7tinyobj18joint_and_weight_tENS_9allocatorIS2_EEE11__vallocateB8ue170006Em, symObjAddr: 0x1CFA4, symBinAddr: 0x10002123C, symSize: 0xAC }
  - { offsetInCU: 0x56EFC, offset: 0x56EFC, size: 0x8, addend: 0x0, symName: __ZNSt3__16vectorIN7tinyobj18joint_and_weight_tENS_9allocatorIS2_EEE18__construct_at_endIPS2_S7_EEvT_T0_m, symObjAddr: 0x1D050, symBinAddr: 0x1000212E8, symSize: 0x8C }
  - { offsetInCU: 0x56F72, offset: 0x56F72, size: 0x8, addend: 0x0, symName: __ZNSt3__128__exception_guard_exceptionsINS_6vectorIN7tinyobj18joint_and_weight_tENS_9allocatorIS3_EEE16__destroy_vectorEE10__completeB8ue170006Ev, symObjAddr: 0x1D0DC, symBinAddr: 0x100021374, symSize: 0x1C }
  - { offsetInCU: 0x56F98, offset: 0x56F98, size: 0x8, addend: 0x0, symName: __ZNSt3__128__exception_guard_exceptionsINS_6vectorIN7tinyobj18joint_and_weight_tENS_9allocatorIS3_EEE16__destroy_vectorEED1B8ue170006Ev, symObjAddr: 0x1D0F8, symBinAddr: 0x100021390, symSize: 0x2C }
  - { offsetInCU: 0x56FC2, offset: 0x56FC2, size: 0x8, addend: 0x0, symName: __ZNSt3__128__exception_guard_exceptionsINS_6vectorIN7tinyobj18joint_and_weight_tENS_9allocatorIS3_EEE16__destroy_vectorEEC1B8ue170006ES7_, symObjAddr: 0x1D124, symBinAddr: 0x1000213BC, symSize: 0x34 }
  - { offsetInCU: 0x56FFA, offset: 0x56FFA, size: 0x8, addend: 0x0, symName: __ZNSt3__128__exception_guard_exceptionsINS_6vectorIN7tinyobj18joint_and_weight_tENS_9allocatorIS3_EEE16__destroy_vectorEEC2B8ue170006ES7_, symObjAddr: 0x1D158, symBinAddr: 0x1000213F0, symSize: 0x24 }
  - { offsetInCU: 0x57032, offset: 0x57032, size: 0x8, addend: 0x0, symName: __ZNSt3__16vectorIN7tinyobj18joint_and_weight_tENS_9allocatorIS2_EEE16__destroy_vectorC2B8ue170006ERS5_, symObjAddr: 0x1D17C, symBinAddr: 0x100021414, symSize: 0x20 }
  - { offsetInCU: 0x57085, offset: 0x57085, size: 0x8, addend: 0x0, symName: __ZNSt3__119__unwrap_range_implIPN7tinyobj18joint_and_weight_tES3_E8__unwrapB8ue170006ES3_S3_, symObjAddr: 0x1D2F0, symBinAddr: 0x100021588, symSize: 0x58 }
  - { offsetInCU: 0x570BC, offset: 0x570BC, size: 0x8, addend: 0x0, symName: __ZNSt3__14pairIPN7tinyobj18joint_and_weight_tES3_EC1B8ue170006IS3_S3_LPv0EEEOT_OT0_, symObjAddr: 0x1D348, symBinAddr: 0x1000215E0, symSize: 0x3C }
  - { offsetInCU: 0x5711A, offset: 0x5711A, size: 0x8, addend: 0x0, symName: __ZNSt3__14pairIPN7tinyobj18joint_and_weight_tES3_EC2B8ue170006IS3_S3_LPv0EEEOT_OT0_, symObjAddr: 0x1D384, symBinAddr: 0x10002161C, symSize: 0x34 }
  - { offsetInCU: 0x57178, offset: 0x57178, size: 0x8, addend: 0x0, symName: __ZNKSt3__114__copy_trivialclB8ue170006IN7tinyobj18joint_and_weight_tES3_Li0EEENS_4pairIPT_PT0_EES6_S6_S8_, symObjAddr: 0x1D534, symBinAddr: 0x1000217CC, symSize: 0x48 }
  - { offsetInCU: 0x571E0, offset: 0x571E0, size: 0x8, addend: 0x0, symName: __ZNSt3__14pairIPN7tinyobj18joint_and_weight_tES3_EC1B8ue170006IRS3_S3_LPv0EEEOT_OT0_, symObjAddr: 0x1D6FC, symBinAddr: 0x100021994, symSize: 0x3C }
  - { offsetInCU: 0x5723E, offset: 0x5723E, size: 0x8, addend: 0x0, symName: __ZNSt3__14pairIPN7tinyobj18joint_and_weight_tES3_EC2B8ue170006IRS3_S3_LPv0EEEOT_OT0_, symObjAddr: 0x1D738, symBinAddr: 0x1000219D0, symSize: 0x34 }
  - { offsetInCU: 0x5729C, offset: 0x5729C, size: 0x8, addend: 0x0, symName: __ZNSt3__119__unwrap_range_implIPN7tinyobj18joint_and_weight_tES3_E8__rewrapB8ue170006ES3_S3_, symObjAddr: 0x1D76C, symBinAddr: 0x100021A04, symSize: 0x2C }
  - { offsetInCU: 0x572CD, offset: 0x572CD, size: 0x8, addend: 0x0, symName: __ZNSt3__118__unwrap_iter_implIPN7tinyobj18joint_and_weight_tELb1EE8__unwrapB8ue170006ES3_, symObjAddr: 0x1D798, symBinAddr: 0x100021A30, symSize: 0x24 }
  - { offsetInCU: 0x572F0, offset: 0x572F0, size: 0x8, addend: 0x0, symName: __ZNSt3__118__unwrap_iter_implIPN7tinyobj18joint_and_weight_tELb1EE8__rewrapB8ue170006ES3_S3_, symObjAddr: 0x1D7BC, symBinAddr: 0x100021A54, symSize: 0x50 }
  - { offsetInCU: 0x57321, offset: 0x57321, size: 0x8, addend: 0x0, symName: __ZNSt3__128__exception_guard_exceptionsINS_6vectorIN7tinyobj18joint_and_weight_tENS_9allocatorIS3_EEE16__destroy_vectorEED2B8ue170006Ev, symObjAddr: 0x1D80C, symBinAddr: 0x100021AA4, symSize: 0x50 }
  - { offsetInCU: 0x5734B, offset: 0x5734B, size: 0x8, addend: 0x0, symName: __ZNSt3__16vectorIN7tinyobj18joint_and_weight_tENS_9allocatorIS2_EEE16__destroy_vectorclB8ue170006Ev, symObjAddr: 0x1D85C, symBinAddr: 0x100021AF4, symSize: 0x90 }
  - { offsetInCU: 0x57371, offset: 0x57371, size: 0x8, addend: 0x0, symName: __ZNSt3__16vectorIN7tinyobj18joint_and_weight_tENS_9allocatorIS2_EEE7__clearB8ue170006Ev, symObjAddr: 0x1D8EC, symBinAddr: 0x100021B84, symSize: 0x28 }
  - { offsetInCU: 0x57397, offset: 0x57397, size: 0x8, addend: 0x0, symName: __ZNSt3__16vectorIN7tinyobj18joint_and_weight_tENS_9allocatorIS2_EEE22__base_destruct_at_endB8ue170006EPS2_, symObjAddr: 0x1D914, symBinAddr: 0x100021BAC, symSize: 0x8C }
  - { offsetInCU: 0x573DB, offset: 0x573DB, size: 0x8, addend: 0x0, symName: __ZNSt3__117__compressed_pairIPN7tinyobj13skin_weight_tENS_9allocatorIS2_EEE6secondB8ue170006Ev, symObjAddr: 0x1D9A0, symBinAddr: 0x100021C38, symSize: 0x24 }
  - { offsetInCU: 0x57401, offset: 0x57401, size: 0x8, addend: 0x0, symName: __ZNSt3__122__compressed_pair_elemINS_9allocatorIN7tinyobj13skin_weight_tEEELi1ELb1EE5__getB8ue170006Ev, symObjAddr: 0x1D9C4, symBinAddr: 0x100021C5C, symSize: 0x14 }
  - { offsetInCU: 0x57427, offset: 0x57427, size: 0x8, addend: 0x0, symName: __ZNSt3__16vectorIN7tinyobj13skin_weight_tENS_9allocatorIS2_EEE21_ConstructTransactionD2B8ue170006Ev, symObjAddr: 0x1D9D8, symBinAddr: 0x100021C70, symSize: 0x20 }
  - { offsetInCU: 0x57451, offset: 0x57451, size: 0x8, addend: 0x0, symName: __ZNKSt3__16vectorIN7tinyobj13skin_weight_tENS_9allocatorIS2_EEE11__recommendB8ue170006Em, symObjAddr: 0x1D9F8, symBinAddr: 0x100021C90, symSize: 0xB4 }
  - { offsetInCU: 0x574A6, offset: 0x574A6, size: 0x8, addend: 0x0, symName: __ZNKSt3__16vectorIN7tinyobj13skin_weight_tENS_9allocatorIS2_EEE4sizeB8ue170006Ev, symObjAddr: 0x1DAAC, symBinAddr: 0x100021D44, symSize: 0x28 }
  - { offsetInCU: 0x574CC, offset: 0x574CC, size: 0x8, addend: 0x0, symName: __ZNSt3__114__split_bufferIN7tinyobj13skin_weight_tERNS_9allocatorIS2_EEEC1EmmS5_, symObjAddr: 0x1DAD4, symBinAddr: 0x100021D6C, symSize: 0x44 }
  - { offsetInCU: 0x57522, offset: 0x57522, size: 0x8, addend: 0x0, symName: __ZNSt3__114__split_bufferIN7tinyobj13skin_weight_tERNS_9allocatorIS2_EEED1Ev, symObjAddr: 0x1DC28, symBinAddr: 0x100021EC0, symSize: 0x2C }
  - { offsetInCU: 0x5754E, offset: 0x5754E, size: 0x8, addend: 0x0, symName: __ZNKSt3__16vectorIN7tinyobj13skin_weight_tENS_9allocatorIS2_EEE8max_sizeEv, symObjAddr: 0x1DC54, symBinAddr: 0x100021EEC, symSize: 0x60 }
  - { offsetInCU: 0x57576, offset: 0x57576, size: 0x8, addend: 0x0, symName: __ZNKSt3__16vectorIN7tinyobj13skin_weight_tENS_9allocatorIS2_EEE20__throw_length_errorB8ue170006Ev, symObjAddr: 0x1DCB4, symBinAddr: 0x100021F4C, symSize: 0x1C }
  - { offsetInCU: 0x5759C, offset: 0x5759C, size: 0x8, addend: 0x0, symName: __ZNKSt3__16vectorIN7tinyobj13skin_weight_tENS_9allocatorIS2_EEE8capacityB8ue170006Ev, symObjAddr: 0x1DCD0, symBinAddr: 0x100021F68, symSize: 0x40 }
  - { offsetInCU: 0x575CC, offset: 0x575CC, size: 0x8, addend: 0x0, symName: __ZNSt3__116allocator_traitsINS_9allocatorIN7tinyobj13skin_weight_tEEEE8max_sizeB8ue170006IS4_vvEEmRKS4_, symObjAddr: 0x1DD10, symBinAddr: 0x100021FA8, symSize: 0x28 }
  - { offsetInCU: 0x575F8, offset: 0x575F8, size: 0x8, addend: 0x0, symName: __ZNKSt3__16vectorIN7tinyobj13skin_weight_tENS_9allocatorIS2_EEE7__allocB8ue170006Ev, symObjAddr: 0x1DD38, symBinAddr: 0x100021FD0, symSize: 0x28 }
  - { offsetInCU: 0x5761E, offset: 0x5761E, size: 0x8, addend: 0x0, symName: __ZNKSt3__117__compressed_pairIPN7tinyobj13skin_weight_tENS_9allocatorIS2_EEE6secondB8ue170006Ev, symObjAddr: 0x1DD60, symBinAddr: 0x100021FF8, symSize: 0x24 }
  - { offsetInCU: 0x57644, offset: 0x57644, size: 0x8, addend: 0x0, symName: __ZNKSt3__122__compressed_pair_elemINS_9allocatorIN7tinyobj13skin_weight_tEEELi1ELb1EE5__getB8ue170006Ev, symObjAddr: 0x1DD84, symBinAddr: 0x10002201C, symSize: 0x14 }
  - { offsetInCU: 0x5766A, offset: 0x5766A, size: 0x8, addend: 0x0, symName: __ZNKSt3__16vectorIN7tinyobj13skin_weight_tENS_9allocatorIS2_EEE9__end_capB8ue170006Ev, symObjAddr: 0x1DD98, symBinAddr: 0x100022030, symSize: 0x28 }
  - { offsetInCU: 0x57690, offset: 0x57690, size: 0x8, addend: 0x0, symName: __ZNKSt3__117__compressed_pairIPN7tinyobj13skin_weight_tENS_9allocatorIS2_EEE5firstB8ue170006Ev, symObjAddr: 0x1DDC0, symBinAddr: 0x100022058, symSize: 0x24 }
  - { offsetInCU: 0x576B6, offset: 0x576B6, size: 0x8, addend: 0x0, symName: __ZNKSt3__122__compressed_pair_elemIPN7tinyobj13skin_weight_tELi0ELb0EE5__getB8ue170006Ev, symObjAddr: 0x1DDE4, symBinAddr: 0x10002207C, symSize: 0x14 }
  - { offsetInCU: 0x576DC, offset: 0x576DC, size: 0x8, addend: 0x0, symName: __ZNSt3__114__split_bufferIN7tinyobj13skin_weight_tERNS_9allocatorIS2_EEEC2EmmS5_, symObjAddr: 0x1DDF8, symBinAddr: 0x100022090, symSize: 0xD4 }
  - { offsetInCU: 0x5774F, offset: 0x5774F, size: 0x8, addend: 0x0, symName: __ZNSt3__117__compressed_pairIPN7tinyobj13skin_weight_tERNS_9allocatorIS2_EEEC1B8ue170006IDnS6_EEOT_OT0_, symObjAddr: 0x1DECC, symBinAddr: 0x100022164, symSize: 0x3C }
  - { offsetInCU: 0x577A7, offset: 0x577A7, size: 0x8, addend: 0x0, symName: __ZNSt3__114__split_bufferIN7tinyobj13skin_weight_tERNS_9allocatorIS2_EEE7__allocB8ue170006Ev, symObjAddr: 0x1DF48, symBinAddr: 0x1000221E0, symSize: 0x28 }
  - { offsetInCU: 0x577CD, offset: 0x577CD, size: 0x8, addend: 0x0, symName: __ZNSt3__114__split_bufferIN7tinyobj13skin_weight_tERNS_9allocatorIS2_EEE9__end_capB8ue170006Ev, symObjAddr: 0x1DF70, symBinAddr: 0x100022208, symSize: 0x28 }
  - { offsetInCU: 0x577F3, offset: 0x577F3, size: 0x8, addend: 0x0, symName: __ZNSt3__117__compressed_pairIPN7tinyobj13skin_weight_tERNS_9allocatorIS2_EEEC2B8ue170006IDnS6_EEOT_OT0_, symObjAddr: 0x1DF98, symBinAddr: 0x100022230, symSize: 0x48 }
  - { offsetInCU: 0x5784B, offset: 0x5784B, size: 0x8, addend: 0x0, symName: __ZNSt3__122__compressed_pair_elemIRNS_9allocatorIN7tinyobj13skin_weight_tEEELi1ELb0EEC2B8ue170006IS5_vEEOT_, symObjAddr: 0x1DFE0, symBinAddr: 0x100022278, symSize: 0x20 }
  - { offsetInCU: 0x5788D, offset: 0x5788D, size: 0x8, addend: 0x0, symName: __ZNSt3__19allocatorIN7tinyobj13skin_weight_tEE8allocateB8ue170006Em, symObjAddr: 0x1E000, symBinAddr: 0x100022298, symSize: 0x58 }
  - { offsetInCU: 0x578C1, offset: 0x578C1, size: 0x8, addend: 0x0, symName: __ZNSt3__117__compressed_pairIPN7tinyobj13skin_weight_tERNS_9allocatorIS2_EEE6secondB8ue170006Ev, symObjAddr: 0x1E058, symBinAddr: 0x1000222F0, symSize: 0x28 }
  - { offsetInCU: 0x578E7, offset: 0x578E7, size: 0x8, addend: 0x0, symName: __ZNSt3__122__compressed_pair_elemIRNS_9allocatorIN7tinyobj13skin_weight_tEEELi1ELb0EE5__getB8ue170006Ev, symObjAddr: 0x1E080, symBinAddr: 0x100022318, symSize: 0x18 }
  - { offsetInCU: 0x5790D, offset: 0x5790D, size: 0x8, addend: 0x0, symName: __ZNSt3__117__compressed_pairIPN7tinyobj13skin_weight_tERNS_9allocatorIS2_EEE5firstB8ue170006Ev, symObjAddr: 0x1E098, symBinAddr: 0x100022330, symSize: 0x24 }
  - { offsetInCU: 0x57933, offset: 0x57933, size: 0x8, addend: 0x0, symName: __ZNKSt3__16vectorIN7tinyobj13skin_weight_tENS_9allocatorIS2_EEE17__annotate_deleteB8ue170006Ev, symObjAddr: 0x1E0BC, symBinAddr: 0x100022354, symSize: 0xB8 }
  - { offsetInCU: 0x57959, offset: 0x57959, size: 0x8, addend: 0x0, symName: __ZNSt3__116reverse_iteratorIPN7tinyobj13skin_weight_tEEC1B8ue170006ES3_, symObjAddr: 0x1E2A0, symBinAddr: 0x100022538, symSize: 0x34 }
  - { offsetInCU: 0x57991, offset: 0x57991, size: 0x8, addend: 0x0, symName: __ZNKSt3__116reverse_iteratorIPN7tinyobj13skin_weight_tEE4baseB8ue170006Ev, symObjAddr: 0x1E2D4, symBinAddr: 0x10002256C, symSize: 0x18 }
  - { offsetInCU: 0x579B7, offset: 0x579B7, size: 0x8, addend: 0x0, symName: __ZNKSt3__16vectorIN7tinyobj13skin_weight_tENS_9allocatorIS2_EEE14__annotate_newB8ue170006Em, symObjAddr: 0x1E328, symBinAddr: 0x1000225C0, symSize: 0xAC }
  - { offsetInCU: 0x579EC, offset: 0x579EC, size: 0x8, addend: 0x0, symName: __ZNKSt3__16vectorIN7tinyobj13skin_weight_tENS_9allocatorIS2_EEE31__annotate_contiguous_containerB8ue170006EPKvS7_S7_S7_, symObjAddr: 0x1E3D4, symBinAddr: 0x10002266C, symSize: 0x20 }
  - { offsetInCU: 0x57A42, offset: 0x57A42, size: 0x8, addend: 0x0, symName: __ZNKSt3__16vectorIN7tinyobj13skin_weight_tENS_9allocatorIS2_EEE4dataB8ue170006Ev, symObjAddr: 0x1E3F4, symBinAddr: 0x10002268C, symSize: 0x28 }
  - { offsetInCU: 0x57A68, offset: 0x57A68, size: 0x8, addend: 0x0, symName: __ZNSt3__129_AllocatorDestroyRangeReverseINS_9allocatorIN7tinyobj13skin_weight_tEEENS_16reverse_iteratorIPS3_EEEC1B8ue170006ERS4_RS7_SA_, symObjAddr: 0x1E468, symBinAddr: 0x100022700, symSize: 0x44 }
  - { offsetInCU: 0x57AC5, offset: 0x57AC5, size: 0x8, addend: 0x0, symName: __ZNSt3__116allocator_traitsINS_9allocatorIN7tinyobj13skin_weight_tEEEE9constructB8ue170006IS3_JS3_EvvEEvRS4_PT_DpOT0_, symObjAddr: 0x1E4F4, symBinAddr: 0x10002278C, symSize: 0x30 }
  - { offsetInCU: 0x57B1A, offset: 0x57B1A, size: 0x8, addend: 0x0, symName: __ZNKSt3__116reverse_iteratorIPN7tinyobj13skin_weight_tEEdeB8ue170006Ev, symObjAddr: 0x1E548, symBinAddr: 0x1000227E0, symSize: 0x28 }
  - { offsetInCU: 0x57B4E, offset: 0x57B4E, size: 0x8, addend: 0x0, symName: __ZNSt3__116reverse_iteratorIPN7tinyobj13skin_weight_tEEppB8ue170006Ev, symObjAddr: 0x1E570, symBinAddr: 0x100022808, symSize: 0x20 }
  - { offsetInCU: 0x57B74, offset: 0x57B74, size: 0x8, addend: 0x0, symName: __ZNSt3__128__exception_guard_exceptionsINS_29_AllocatorDestroyRangeReverseINS_9allocatorIN7tinyobj13skin_weight_tEEENS_16reverse_iteratorIPS4_EEEEE10__completeB8ue170006Ev, symObjAddr: 0x1E590, symBinAddr: 0x100022828, symSize: 0x1C }
  - { offsetInCU: 0x57B9A, offset: 0x57B9A, size: 0x8, addend: 0x0, symName: __ZNSt3__128__exception_guard_exceptionsINS_29_AllocatorDestroyRangeReverseINS_9allocatorIN7tinyobj13skin_weight_tEEENS_16reverse_iteratorIPS4_EEEEED1B8ue170006Ev, symObjAddr: 0x1E5AC, symBinAddr: 0x100022844, symSize: 0x2C }
  - { offsetInCU: 0x57BC4, offset: 0x57BC4, size: 0x8, addend: 0x0, symName: __ZNSt3__128__exception_guard_exceptionsINS_29_AllocatorDestroyRangeReverseINS_9allocatorIN7tinyobj13skin_weight_tEEENS_16reverse_iteratorIPS4_EEEEEC1B8ue170006ES9_, symObjAddr: 0x1E5D8, symBinAddr: 0x100022870, symSize: 0x34 }
  - { offsetInCU: 0x57BFD, offset: 0x57BFD, size: 0x8, addend: 0x0, symName: __ZNSt3__128__exception_guard_exceptionsINS_29_AllocatorDestroyRangeReverseINS_9allocatorIN7tinyobj13skin_weight_tEEENS_16reverse_iteratorIPS4_EEEEEC2B8ue170006ES9_, symObjAddr: 0x1E60C, symBinAddr: 0x1000228A4, symSize: 0x30 }
  - { offsetInCU: 0x57C36, offset: 0x57C36, size: 0x8, addend: 0x0, symName: __ZNSt3__129_AllocatorDestroyRangeReverseINS_9allocatorIN7tinyobj13skin_weight_tEEENS_16reverse_iteratorIPS3_EEEC2B8ue170006ERS4_RS7_SA_, symObjAddr: 0x1E63C, symBinAddr: 0x1000228D4, symSize: 0x38 }
  - { offsetInCU: 0x57C8D, offset: 0x57C8D, size: 0x8, addend: 0x0, symName: __ZN7tinyobj13skin_weight_tC1EOS0_, symObjAddr: 0x1E6B0, symBinAddr: 0x100022948, symSize: 0x34 }
  - { offsetInCU: 0x57CC3, offset: 0x57CC3, size: 0x8, addend: 0x0, symName: __ZN7tinyobj13skin_weight_tC2EOS0_, symObjAddr: 0x1E6E4, symBinAddr: 0x10002297C, symSize: 0x48 }
  - { offsetInCU: 0x57CF9, offset: 0x57CF9, size: 0x8, addend: 0x0, symName: __ZNSt3__16vectorIN7tinyobj18joint_and_weight_tENS_9allocatorIS2_EEEC1B8ue170006EOS5_, symObjAddr: 0x1E72C, symBinAddr: 0x1000229C4, symSize: 0x34 }
  - { offsetInCU: 0x57D34, offset: 0x57D34, size: 0x8, addend: 0x0, symName: __ZNSt3__16vectorIN7tinyobj18joint_and_weight_tENS_9allocatorIS2_EEEC2B8ue170006EOS5_, symObjAddr: 0x1E760, symBinAddr: 0x1000229F8, symSize: 0xC4 }
  - { offsetInCU: 0x57D74, offset: 0x57D74, size: 0x8, addend: 0x0, symName: __ZNSt3__119__to_address_helperINS_16reverse_iteratorIPN7tinyobj13skin_weight_tEEEvE6__callB8ue170006ERKS5_, symObjAddr: 0x1E824, symBinAddr: 0x100022ABC, symSize: 0x38 }
  - { offsetInCU: 0x57D97, offset: 0x57D97, size: 0x8, addend: 0x0, symName: __ZNKSt3__116reverse_iteratorIPN7tinyobj13skin_weight_tEEptB8ue170006Ev, symObjAddr: 0x1E85C, symBinAddr: 0x100022AF4, symSize: 0x2C }
  - { offsetInCU: 0x57DBD, offset: 0x57DBD, size: 0x8, addend: 0x0, symName: __ZNSt3__128__exception_guard_exceptionsINS_29_AllocatorDestroyRangeReverseINS_9allocatorIN7tinyobj13skin_weight_tEEENS_16reverse_iteratorIPS4_EEEEED2B8ue170006Ev, symObjAddr: 0x1E924, symBinAddr: 0x100022BBC, symSize: 0x50 }
  - { offsetInCU: 0x57DE7, offset: 0x57DE7, size: 0x8, addend: 0x0, symName: __ZNKSt3__129_AllocatorDestroyRangeReverseINS_9allocatorIN7tinyobj13skin_weight_tEEENS_16reverse_iteratorIPS3_EEEclB8ue170006Ev, symObjAddr: 0x1E974, symBinAddr: 0x100022C0C, symSize: 0xB4 }
  - { offsetInCU: 0x57E0E, offset: 0x57E0E, size: 0x8, addend: 0x0, symName: __ZNSt3__116reverse_iteratorINS0_IPN7tinyobj13skin_weight_tEEEEC1B8ue170006ES4_, symObjAddr: 0x1EA98, symBinAddr: 0x100022D30, symSize: 0x3C }
  - { offsetInCU: 0x57E46, offset: 0x57E46, size: 0x8, addend: 0x0, symName: __ZNSt3__116allocator_traitsINS_9allocatorIN7tinyobj13skin_weight_tEEEE7destroyB8ue170006IS3_vvEEvRS4_PT_, symObjAddr: 0x1EB34, symBinAddr: 0x100022DCC, symSize: 0x28 }
  - { offsetInCU: 0x57E81, offset: 0x57E81, size: 0x8, addend: 0x0, symName: __ZNSt3__116reverse_iteratorINS0_IPN7tinyobj13skin_weight_tEEEEppB8ue170006Ev, symObjAddr: 0x1EB80, symBinAddr: 0x100022E18, symSize: 0x30 }
  - { offsetInCU: 0x57EA7, offset: 0x57EA7, size: 0x8, addend: 0x0, symName: __ZNKSt3__116reverse_iteratorINS0_IPN7tinyobj13skin_weight_tEEEE4baseB8ue170006Ev, symObjAddr: 0x1EBB0, symBinAddr: 0x100022E48, symSize: 0x24 }
  - { offsetInCU: 0x57ED2, offset: 0x57ED2, size: 0x8, addend: 0x0, symName: __ZNSt3__119__to_address_helperINS_16reverse_iteratorINS1_IPN7tinyobj13skin_weight_tEEEEEvE6__callB8ue170006ERKS6_, symObjAddr: 0x1EC1C, symBinAddr: 0x100022EB4, symSize: 0x38 }
  - { offsetInCU: 0x57EF5, offset: 0x57EF5, size: 0x8, addend: 0x0, symName: __ZNKSt3__116reverse_iteratorINS0_IPN7tinyobj13skin_weight_tEEEEptB8ue170006Ev, symObjAddr: 0x1EC54, symBinAddr: 0x100022EEC, symSize: 0x4C }
  - { offsetInCU: 0x57F1B, offset: 0x57F1B, size: 0x8, addend: 0x0, symName: __ZNSt3__116reverse_iteratorIPN7tinyobj13skin_weight_tEEpLB8ue170006El, symObjAddr: 0x1ED50, symBinAddr: 0x100022FE8, symSize: 0x30 }
  - { offsetInCU: 0x57F4F, offset: 0x57F4F, size: 0x8, addend: 0x0, symName: __ZNSt3__116reverse_iteratorIPN7tinyobj13skin_weight_tEEmmB8ue170006Ev, symObjAddr: 0x1ED80, symBinAddr: 0x100023018, symSize: 0x20 }
  - { offsetInCU: 0x57F75, offset: 0x57F75, size: 0x8, addend: 0x0, symName: __ZNSt3__116reverse_iteratorINS0_IPN7tinyobj13skin_weight_tEEEEC2B8ue170006ES4_, symObjAddr: 0x1EDA0, symBinAddr: 0x100023038, symSize: 0x2C }
  - { offsetInCU: 0x57FAD, offset: 0x57FAD, size: 0x8, addend: 0x0, symName: __ZNSt3__116reverse_iteratorIPN7tinyobj13skin_weight_tEEC2B8ue170006ES3_, symObjAddr: 0x1EDCC, symBinAddr: 0x100023064, symSize: 0x28 }
  - { offsetInCU: 0x57FE5, offset: 0x57FE5, size: 0x8, addend: 0x0, symName: __ZNSt3__114__split_bufferIN7tinyobj13skin_weight_tERNS_9allocatorIS2_EEED2Ev, symObjAddr: 0x1EDF4, symBinAddr: 0x10002308C, symSize: 0x8C }
  - { offsetInCU: 0x58011, offset: 0x58011, size: 0x8, addend: 0x0, symName: __ZNSt3__114__split_bufferIN7tinyobj13skin_weight_tERNS_9allocatorIS2_EEE5clearB8ue170006Ev, symObjAddr: 0x1EE80, symBinAddr: 0x100023118, symSize: 0x28 }
  - { offsetInCU: 0x58037, offset: 0x58037, size: 0x8, addend: 0x0, symName: __ZNSt3__116allocator_traitsINS_9allocatorIN7tinyobj13skin_weight_tEEEE10deallocateB8ue170006ERS4_PS3_m, symObjAddr: 0x1EEA8, symBinAddr: 0x100023140, symSize: 0x34 }
  - { offsetInCU: 0x58079, offset: 0x58079, size: 0x8, addend: 0x0, symName: __ZNKSt3__114__split_bufferIN7tinyobj13skin_weight_tERNS_9allocatorIS2_EEE8capacityB8ue170006Ev, symObjAddr: 0x1EEDC, symBinAddr: 0x100023174, symSize: 0x40 }
  - { offsetInCU: 0x5809F, offset: 0x5809F, size: 0x8, addend: 0x0, symName: __ZNSt3__114__split_bufferIN7tinyobj13skin_weight_tERNS_9allocatorIS2_EEE17__destruct_at_endB8ue170006EPS2_, symObjAddr: 0x1EF1C, symBinAddr: 0x1000231B4, symSize: 0x2C }
  - { offsetInCU: 0x580D3, offset: 0x580D3, size: 0x8, addend: 0x0, symName: __ZNSt3__114__split_bufferIN7tinyobj13skin_weight_tERNS_9allocatorIS2_EEE17__destruct_at_endB8ue170006EPS2_NS_17integral_constantIbLb0EEE, symObjAddr: 0x1EF48, symBinAddr: 0x1000231E0, symSize: 0x80 }
  - { offsetInCU: 0x58113, offset: 0x58113, size: 0x8, addend: 0x0, symName: __ZNSt3__19allocatorIN7tinyobj13skin_weight_tEE10deallocateB8ue170006EPS2_m, symObjAddr: 0x1EFC8, symBinAddr: 0x100023260, symSize: 0x40 }
  - { offsetInCU: 0x58155, offset: 0x58155, size: 0x8, addend: 0x0, symName: __ZNKSt3__114__split_bufferIN7tinyobj13skin_weight_tERNS_9allocatorIS2_EEE9__end_capB8ue170006Ev, symObjAddr: 0x1F008, symBinAddr: 0x1000232A0, symSize: 0x28 }
  - { offsetInCU: 0x5817B, offset: 0x5817B, size: 0x8, addend: 0x0, symName: __ZNKSt3__117__compressed_pairIPN7tinyobj13skin_weight_tERNS_9allocatorIS2_EEE5firstB8ue170006Ev, symObjAddr: 0x1F030, symBinAddr: 0x1000232C8, symSize: 0x24 }
  - { offsetInCU: 0x581A1, offset: 0x581A1, size: 0x8, addend: 0x0, symName: __ZN7tinyobj13skin_weight_tD2Ev, symObjAddr: 0x1F054, symBinAddr: 0x1000232EC, symSize: 0x30 }
  - { offsetInCU: 0x581CE, offset: 0x581CE, size: 0x8, addend: 0x0, symName: __ZNSt3__16vectorIN7tinyobj18joint_and_weight_tENS_9allocatorIS2_EEED1B8ue170006Ev, symObjAddr: 0x1F084, symBinAddr: 0x10002331C, symSize: 0x2C }
  - { offsetInCU: 0x581F8, offset: 0x581F8, size: 0x8, addend: 0x0, symName: __ZNSt3__16vectorIN7tinyobj18joint_and_weight_tENS_9allocatorIS2_EEED2B8ue170006Ev, symObjAddr: 0x1F0B0, symBinAddr: 0x100023348, symSize: 0x40 }
  - { offsetInCU: 0x58222, offset: 0x58222, size: 0x8, addend: 0x0, symName: __ZN7tinyobj8__line_tC2Ev, symObjAddr: 0x1F0F0, symBinAddr: 0x100023388, symSize: 0x2C }
  - { offsetInCU: 0x5824F, offset: 0x5824F, size: 0x8, addend: 0x0, symName: __ZNSt3__16vectorIN7tinyobj14vertex_index_tENS_9allocatorIS2_EEEC1B8ue170006Ev, symObjAddr: 0x1F11C, symBinAddr: 0x1000233B4, symSize: 0x2C }
  - { offsetInCU: 0x58279, offset: 0x58279, size: 0x8, addend: 0x0, symName: __ZNSt3__16vectorIN7tinyobj14vertex_index_tENS_9allocatorIS2_EEEC2B8ue170006Ev, symObjAddr: 0x1F148, symBinAddr: 0x1000233E0, symSize: 0x4C }
  - { offsetInCU: 0x582A3, offset: 0x582A3, size: 0x8, addend: 0x0, symName: __ZNSt3__117__compressed_pairIPN7tinyobj14vertex_index_tENS_9allocatorIS2_EEEC1B8ue170006IDnNS_18__default_init_tagEEEOT_OT0_, symObjAddr: 0x1F194, symBinAddr: 0x10002342C, symSize: 0x3C }
  - { offsetInCU: 0x582FB, offset: 0x582FB, size: 0x8, addend: 0x0, symName: __ZNSt3__117__compressed_pairIPN7tinyobj14vertex_index_tENS_9allocatorIS2_EEEC2B8ue170006IDnNS_18__default_init_tagEEEOT_OT0_, symObjAddr: 0x1F1D0, symBinAddr: 0x100023468, symSize: 0x40 }
  - { offsetInCU: 0x58353, offset: 0x58353, size: 0x8, addend: 0x0, symName: __ZNSt3__122__compressed_pair_elemIPN7tinyobj14vertex_index_tELi0ELb0EEC2B8ue170006IDnvEEOT_, symObjAddr: 0x1F210, symBinAddr: 0x1000234A8, symSize: 0x1C }
  - { offsetInCU: 0x58395, offset: 0x58395, size: 0x8, addend: 0x0, symName: __ZNSt3__122__compressed_pair_elemINS_9allocatorIN7tinyobj14vertex_index_tEEELi1ELb1EEC2B8ue170006ENS_18__default_init_tagE, symObjAddr: 0x1F22C, symBinAddr: 0x1000234C4, symSize: 0x2C }
  - { offsetInCU: 0x583C9, offset: 0x583C9, size: 0x8, addend: 0x0, symName: __ZNSt3__19allocatorIN7tinyobj14vertex_index_tEEC2B8ue170006Ev, symObjAddr: 0x1F258, symBinAddr: 0x1000234F0, symSize: 0x2C }
  - { offsetInCU: 0x583F3, offset: 0x583F3, size: 0x8, addend: 0x0, symName: __ZNSt3__116__non_trivial_ifILb1ENS_9allocatorIN7tinyobj14vertex_index_tEEEEC2B8ue170006Ev, symObjAddr: 0x1F284, symBinAddr: 0x10002351C, symSize: 0x14 }
  - { offsetInCU: 0x5841D, offset: 0x5841D, size: 0x8, addend: 0x0, symName: __ZN7tinyobj14vertex_index_tC2Ev, symObjAddr: 0x1F298, symBinAddr: 0x100023530, symSize: 0x24 }
  - { offsetInCU: 0x58447, offset: 0x58447, size: 0x8, addend: 0x0, symName: __ZN7tinyobj14vertex_index_tC1Ei, symObjAddr: 0x1F2BC, symBinAddr: 0x100023554, symSize: 0x34 }
  - { offsetInCU: 0x58480, offset: 0x58480, size: 0x8, addend: 0x0, symName: __ZN7tinyobj14vertex_index_tC2Ei, symObjAddr: 0x1F524, symBinAddr: 0x1000237BC, symSize: 0x30 }
  - { offsetInCU: 0x584B9, offset: 0x584B9, size: 0x8, addend: 0x0, symName: __ZNSt3__16vectorIN7tinyobj14vertex_index_tENS_9allocatorIS2_EEE9__end_capB8ue170006Ev, symObjAddr: 0x1F554, symBinAddr: 0x1000237EC, symSize: 0x28 }
  - { offsetInCU: 0x584E4, offset: 0x584E4, size: 0x8, addend: 0x0, symName: __ZNSt3__16vectorIN7tinyobj14vertex_index_tENS_9allocatorIS2_EEE22__construct_one_at_endB8ue170006IJRKS2_EEEvDpOT_, symObjAddr: 0x1F57C, symBinAddr: 0x100023814, symSize: 0x90 }
  - { offsetInCU: 0x58533, offset: 0x58533, size: 0x8, addend: 0x0, symName: __ZNSt3__16vectorIN7tinyobj14vertex_index_tENS_9allocatorIS2_EEE21__push_back_slow_pathIRKS2_EEvOT_, symObjAddr: 0x1F60C, symBinAddr: 0x1000238A4, symSize: 0xD8 }
  - { offsetInCU: 0x58591, offset: 0x58591, size: 0x8, addend: 0x0, symName: __ZNSt3__117__compressed_pairIPN7tinyobj14vertex_index_tENS_9allocatorIS2_EEE5firstB8ue170006Ev, symObjAddr: 0x1F6E4, symBinAddr: 0x10002397C, symSize: 0x24 }
  - { offsetInCU: 0x585B7, offset: 0x585B7, size: 0x8, addend: 0x0, symName: __ZNSt3__122__compressed_pair_elemIPN7tinyobj14vertex_index_tELi0ELb0EE5__getB8ue170006Ev, symObjAddr: 0x1F708, symBinAddr: 0x1000239A0, symSize: 0x14 }
  - { offsetInCU: 0x585F6, offset: 0x585F6, size: 0x8, addend: 0x0, symName: __ZNSt3__16vectorIN7tinyobj14vertex_index_tENS_9allocatorIS2_EEE21_ConstructTransactionC1B8ue170006ERS5_m, symObjAddr: 0x1F71C, symBinAddr: 0x1000239B4, symSize: 0x3C }
  - { offsetInCU: 0x5863E, offset: 0x5863E, size: 0x8, addend: 0x0, symName: __ZNSt3__116allocator_traitsINS_9allocatorIN7tinyobj14vertex_index_tEEEE9constructB8ue170006IS3_JRKS3_EvvEEvRS4_PT_DpOT0_, symObjAddr: 0x1F758, symBinAddr: 0x1000239F0, symSize: 0x30 }
  - { offsetInCU: 0x58693, offset: 0x58693, size: 0x8, addend: 0x0, symName: __ZNSt3__16vectorIN7tinyobj14vertex_index_tENS_9allocatorIS2_EEE7__allocB8ue170006Ev, symObjAddr: 0x1F788, symBinAddr: 0x100023A20, symSize: 0x28 }
  - { offsetInCU: 0x586B9, offset: 0x586B9, size: 0x8, addend: 0x0, symName: __ZNSt3__16vectorIN7tinyobj14vertex_index_tENS_9allocatorIS2_EEE21_ConstructTransactionD1B8ue170006Ev, symObjAddr: 0x1F7C4, symBinAddr: 0x100023A5C, symSize: 0x2C }
  - { offsetInCU: 0x586E3, offset: 0x586E3, size: 0x8, addend: 0x0, symName: __ZNSt3__16vectorIN7tinyobj14vertex_index_tENS_9allocatorIS2_EEE21_ConstructTransactionC2B8ue170006ERS5_m, symObjAddr: 0x1F7F0, symBinAddr: 0x100023A88, symSize: 0x4C }
  - { offsetInCU: 0x5872B, offset: 0x5872B, size: 0x8, addend: 0x0, symName: __ZNSt3__117__compressed_pairIPN7tinyobj14vertex_index_tENS_9allocatorIS2_EEE6secondB8ue170006Ev, symObjAddr: 0x1F870, symBinAddr: 0x100023B08, symSize: 0x24 }
  - { offsetInCU: 0x58751, offset: 0x58751, size: 0x8, addend: 0x0, symName: __ZNSt3__122__compressed_pair_elemINS_9allocatorIN7tinyobj14vertex_index_tEEELi1ELb1EE5__getB8ue170006Ev, symObjAddr: 0x1F894, symBinAddr: 0x100023B2C, symSize: 0x14 }
  - { offsetInCU: 0x58777, offset: 0x58777, size: 0x8, addend: 0x0, symName: __ZNSt3__16vectorIN7tinyobj14vertex_index_tENS_9allocatorIS2_EEE21_ConstructTransactionD2B8ue170006Ev, symObjAddr: 0x1F8A8, symBinAddr: 0x100023B40, symSize: 0x20 }
  - { offsetInCU: 0x587A1, offset: 0x587A1, size: 0x8, addend: 0x0, symName: __ZNKSt3__16vectorIN7tinyobj14vertex_index_tENS_9allocatorIS2_EEE11__recommendB8ue170006Em, symObjAddr: 0x1F8C8, symBinAddr: 0x100023B60, symSize: 0xB4 }
  - { offsetInCU: 0x587F6, offset: 0x587F6, size: 0x8, addend: 0x0, symName: __ZNKSt3__16vectorIN7tinyobj14vertex_index_tENS_9allocatorIS2_EEE4sizeB8ue170006Ev, symObjAddr: 0x1F97C, symBinAddr: 0x100023C14, symSize: 0x28 }
  - { offsetInCU: 0x5881C, offset: 0x5881C, size: 0x8, addend: 0x0, symName: __ZNSt3__114__split_bufferIN7tinyobj14vertex_index_tERNS_9allocatorIS2_EEEC1EmmS5_, symObjAddr: 0x1F9A4, symBinAddr: 0x100023C3C, symSize: 0x44 }
  - { offsetInCU: 0x58872, offset: 0x58872, size: 0x8, addend: 0x0, symName: __ZNSt3__114__split_bufferIN7tinyobj14vertex_index_tERNS_9allocatorIS2_EEED1Ev, symObjAddr: 0x1FAF8, symBinAddr: 0x100023D90, symSize: 0x2C }
  - { offsetInCU: 0x5889E, offset: 0x5889E, size: 0x8, addend: 0x0, symName: __ZNKSt3__16vectorIN7tinyobj14vertex_index_tENS_9allocatorIS2_EEE8max_sizeEv, symObjAddr: 0x1FB24, symBinAddr: 0x100023DBC, symSize: 0x60 }
  - { offsetInCU: 0x588C6, offset: 0x588C6, size: 0x8, addend: 0x0, symName: __ZNKSt3__16vectorIN7tinyobj14vertex_index_tENS_9allocatorIS2_EEE20__throw_length_errorB8ue170006Ev, symObjAddr: 0x1FB84, symBinAddr: 0x100023E1C, symSize: 0x1C }
  - { offsetInCU: 0x588EC, offset: 0x588EC, size: 0x8, addend: 0x0, symName: __ZNKSt3__16vectorIN7tinyobj14vertex_index_tENS_9allocatorIS2_EEE8capacityB8ue170006Ev, symObjAddr: 0x1FBA0, symBinAddr: 0x100023E38, symSize: 0x40 }
  - { offsetInCU: 0x5891C, offset: 0x5891C, size: 0x8, addend: 0x0, symName: __ZNSt3__116allocator_traitsINS_9allocatorIN7tinyobj14vertex_index_tEEEE8max_sizeB8ue170006IS4_vvEEmRKS4_, symObjAddr: 0x1FBE0, symBinAddr: 0x100023E78, symSize: 0x28 }
  - { offsetInCU: 0x58948, offset: 0x58948, size: 0x8, addend: 0x0, symName: __ZNKSt3__16vectorIN7tinyobj14vertex_index_tENS_9allocatorIS2_EEE7__allocB8ue170006Ev, symObjAddr: 0x1FC08, symBinAddr: 0x100023EA0, symSize: 0x28 }
  - { offsetInCU: 0x5896E, offset: 0x5896E, size: 0x8, addend: 0x0, symName: __ZNKSt3__117__compressed_pairIPN7tinyobj14vertex_index_tENS_9allocatorIS2_EEE6secondB8ue170006Ev, symObjAddr: 0x1FC30, symBinAddr: 0x100023EC8, symSize: 0x24 }
  - { offsetInCU: 0x58994, offset: 0x58994, size: 0x8, addend: 0x0, symName: __ZNKSt3__122__compressed_pair_elemINS_9allocatorIN7tinyobj14vertex_index_tEEELi1ELb1EE5__getB8ue170006Ev, symObjAddr: 0x1FC54, symBinAddr: 0x100023EEC, symSize: 0x14 }
  - { offsetInCU: 0x589BA, offset: 0x589BA, size: 0x8, addend: 0x0, symName: __ZNKSt3__16vectorIN7tinyobj14vertex_index_tENS_9allocatorIS2_EEE9__end_capB8ue170006Ev, symObjAddr: 0x1FC68, symBinAddr: 0x100023F00, symSize: 0x28 }
  - { offsetInCU: 0x589E0, offset: 0x589E0, size: 0x8, addend: 0x0, symName: __ZNKSt3__117__compressed_pairIPN7tinyobj14vertex_index_tENS_9allocatorIS2_EEE5firstB8ue170006Ev, symObjAddr: 0x1FC90, symBinAddr: 0x100023F28, symSize: 0x24 }
  - { offsetInCU: 0x58A06, offset: 0x58A06, size: 0x8, addend: 0x0, symName: __ZNKSt3__122__compressed_pair_elemIPN7tinyobj14vertex_index_tELi0ELb0EE5__getB8ue170006Ev, symObjAddr: 0x1FCB4, symBinAddr: 0x100023F4C, symSize: 0x14 }
  - { offsetInCU: 0x58A2C, offset: 0x58A2C, size: 0x8, addend: 0x0, symName: __ZNSt3__114__split_bufferIN7tinyobj14vertex_index_tERNS_9allocatorIS2_EEEC2EmmS5_, symObjAddr: 0x1FCC8, symBinAddr: 0x100023F60, symSize: 0xE0 }
  - { offsetInCU: 0x58A9F, offset: 0x58A9F, size: 0x8, addend: 0x0, symName: __ZNSt3__117__compressed_pairIPN7tinyobj14vertex_index_tERNS_9allocatorIS2_EEEC1B8ue170006IDnS6_EEOT_OT0_, symObjAddr: 0x1FDA8, symBinAddr: 0x100024040, symSize: 0x3C }
  - { offsetInCU: 0x58AF7, offset: 0x58AF7, size: 0x8, addend: 0x0, symName: __ZNSt3__114__split_bufferIN7tinyobj14vertex_index_tERNS_9allocatorIS2_EEE7__allocB8ue170006Ev, symObjAddr: 0x1FE24, symBinAddr: 0x1000240BC, symSize: 0x28 }
  - { offsetInCU: 0x58B1D, offset: 0x58B1D, size: 0x8, addend: 0x0, symName: __ZNSt3__114__split_bufferIN7tinyobj14vertex_index_tERNS_9allocatorIS2_EEE9__end_capB8ue170006Ev, symObjAddr: 0x1FE4C, symBinAddr: 0x1000240E4, symSize: 0x28 }
  - { offsetInCU: 0x58B43, offset: 0x58B43, size: 0x8, addend: 0x0, symName: __ZNSt3__117__compressed_pairIPN7tinyobj14vertex_index_tERNS_9allocatorIS2_EEEC2B8ue170006IDnS6_EEOT_OT0_, symObjAddr: 0x1FE74, symBinAddr: 0x10002410C, symSize: 0x48 }
  - { offsetInCU: 0x58B9B, offset: 0x58B9B, size: 0x8, addend: 0x0, symName: __ZNSt3__122__compressed_pair_elemIRNS_9allocatorIN7tinyobj14vertex_index_tEEELi1ELb0EEC2B8ue170006IS5_vEEOT_, symObjAddr: 0x1FEBC, symBinAddr: 0x100024154, symSize: 0x20 }
  - { offsetInCU: 0x58BDD, offset: 0x58BDD, size: 0x8, addend: 0x0, symName: __ZNSt3__19allocatorIN7tinyobj14vertex_index_tEE8allocateB8ue170006Em, symObjAddr: 0x1FEDC, symBinAddr: 0x100024174, symSize: 0x5C }
  - { offsetInCU: 0x58C11, offset: 0x58C11, size: 0x8, addend: 0x0, symName: __ZNSt3__117__compressed_pairIPN7tinyobj14vertex_index_tERNS_9allocatorIS2_EEE6secondB8ue170006Ev, symObjAddr: 0x1FF38, symBinAddr: 0x1000241D0, symSize: 0x28 }
  - { offsetInCU: 0x58C37, offset: 0x58C37, size: 0x8, addend: 0x0, symName: __ZNSt3__122__compressed_pair_elemIRNS_9allocatorIN7tinyobj14vertex_index_tEEELi1ELb0EE5__getB8ue170006Ev, symObjAddr: 0x1FF60, symBinAddr: 0x1000241F8, symSize: 0x18 }
  - { offsetInCU: 0x58C5D, offset: 0x58C5D, size: 0x8, addend: 0x0, symName: __ZNSt3__117__compressed_pairIPN7tinyobj14vertex_index_tERNS_9allocatorIS2_EEE5firstB8ue170006Ev, symObjAddr: 0x1FF78, symBinAddr: 0x100024210, symSize: 0x24 }
  - { offsetInCU: 0x58C83, offset: 0x58C83, size: 0x8, addend: 0x0, symName: __ZNKSt3__16vectorIN7tinyobj14vertex_index_tENS_9allocatorIS2_EEE17__annotate_deleteB8ue170006Ev, symObjAddr: 0x1FF9C, symBinAddr: 0x100024234, symSize: 0xD4 }
  - { offsetInCU: 0x58CA9, offset: 0x58CA9, size: 0x8, addend: 0x0, symName: __ZNSt3__116reverse_iteratorIPN7tinyobj14vertex_index_tEEC1B8ue170006ES3_, symObjAddr: 0x200E8, symBinAddr: 0x100024380, symSize: 0x34 }
  - { offsetInCU: 0x58CE1, offset: 0x58CE1, size: 0x8, addend: 0x0, symName: __ZNKSt3__116reverse_iteratorIPN7tinyobj14vertex_index_tEE4baseB8ue170006Ev, symObjAddr: 0x2011C, symBinAddr: 0x1000243B4, symSize: 0x18 }
  - { offsetInCU: 0x58D07, offset: 0x58D07, size: 0x8, addend: 0x0, symName: __ZNKSt3__16vectorIN7tinyobj14vertex_index_tENS_9allocatorIS2_EEE14__annotate_newB8ue170006Em, symObjAddr: 0x20170, symBinAddr: 0x100024408, symSize: 0xC8 }
  - { offsetInCU: 0x58D3C, offset: 0x58D3C, size: 0x8, addend: 0x0, symName: __ZNKSt3__16vectorIN7tinyobj14vertex_index_tENS_9allocatorIS2_EEE31__annotate_contiguous_containerB8ue170006EPKvS7_S7_S7_, symObjAddr: 0x20238, symBinAddr: 0x1000244D0, symSize: 0x20 }
  - { offsetInCU: 0x58D92, offset: 0x58D92, size: 0x8, addend: 0x0, symName: __ZNKSt3__16vectorIN7tinyobj14vertex_index_tENS_9allocatorIS2_EEE4dataB8ue170006Ev, symObjAddr: 0x20258, symBinAddr: 0x1000244F0, symSize: 0x28 }
  - { offsetInCU: 0x58DD2, offset: 0x58DD2, size: 0x8, addend: 0x0, symName: __ZNKSt3__111__move_loopINS_17_ClassicAlgPolicyEEclB8ue170006INS_16reverse_iteratorIPN7tinyobj14vertex_index_tEEES8_S8_EENS_4pairIT_T1_EESA_T0_SB_, symObjAddr: 0x20538, symBinAddr: 0x1000247D0, symSize: 0xA8 }
  - { offsetInCU: 0x58E3D, offset: 0x58E3D, size: 0x8, addend: 0x0, symName: __ZNSt3__119__unwrap_range_implINS_16reverse_iteratorIPN7tinyobj14vertex_index_tEEES5_E8__unwrapB8ue170006ES5_S5_, symObjAddr: 0x2072C, symBinAddr: 0x1000249C4, symSize: 0x84 }
  - { offsetInCU: 0x58E74, offset: 0x58E74, size: 0x8, addend: 0x0, symName: __ZNSt3__14pairINS_16reverse_iteratorIPN7tinyobj14vertex_index_tEEES5_EC1B8ue170006IS5_S5_LPv0EEEOT_OT0_, symObjAddr: 0x207B0, symBinAddr: 0x100024A48, symSize: 0x3C }
  - { offsetInCU: 0x58ED2, offset: 0x58ED2, size: 0x8, addend: 0x0, symName: __ZNSt3__14pairINS_16reverse_iteratorIPN7tinyobj14vertex_index_tEEES5_EC2B8ue170006IS5_S5_LPv0EEEOT_OT0_, symObjAddr: 0x207EC, symBinAddr: 0x100024A84, symSize: 0x34 }
  - { offsetInCU: 0x58F36, offset: 0x58F36, size: 0x8, addend: 0x0, symName: __ZNSt3__18_IterOpsINS_17_ClassicAlgPolicyEE11__iter_moveB8ue170006IRNS_16reverse_iteratorIPN7tinyobj14vertex_index_tEEEEENS_9enable_ifIXsr12is_referenceIDTdeclsr3stdE7declvalIRT_EEEEE5valueEDTclsr3stdE4movedeclsr3stdE7declvalISC_EEEEE4typeEOSB_, symObjAddr: 0x20868, symBinAddr: 0x100024B00, symSize: 0x28 }
  - { offsetInCU: 0x58F62, offset: 0x58F62, size: 0x8, addend: 0x0, symName: __ZNKSt3__116reverse_iteratorIPN7tinyobj14vertex_index_tEEdeB8ue170006Ev, symObjAddr: 0x20890, symBinAddr: 0x100024B28, symSize: 0x28 }
  - { offsetInCU: 0x58F96, offset: 0x58F96, size: 0x8, addend: 0x0, symName: __ZNSt3__116reverse_iteratorIPN7tinyobj14vertex_index_tEEppB8ue170006Ev, symObjAddr: 0x208B8, symBinAddr: 0x100024B50, symSize: 0x20 }
  - { offsetInCU: 0x58FBC, offset: 0x58FBC, size: 0x8, addend: 0x0, symName: __ZNSt3__18_IterOpsINS_17_ClassicAlgPolicyEE25__validate_iter_referenceB8ue170006IRNS_16reverse_iteratorIPN7tinyobj14vertex_index_tEEEEEvv, symObjAddr: 0x208D8, symBinAddr: 0x100024B70, symSize: 0x4 }
  - { offsetInCU: 0x58FDA, offset: 0x58FDA, size: 0x8, addend: 0x0, symName: __ZNSt3__118__unwrap_iter_implINS_16reverse_iteratorIPN7tinyobj14vertex_index_tEEELb0EE8__unwrapB8ue170006ES5_, symObjAddr: 0x208DC, symBinAddr: 0x100024B74, symSize: 0x24 }
  - { offsetInCU: 0x58FFD, offset: 0x58FFD, size: 0x8, addend: 0x0, symName: __ZNSt3__119__unwrap_range_implINS_16reverse_iteratorIPN7tinyobj14vertex_index_tEEES5_E8__rewrapB8ue170006ES5_S5_, symObjAddr: 0x20900, symBinAddr: 0x100024B98, symSize: 0x5C }
  - { offsetInCU: 0x5902E, offset: 0x5902E, size: 0x8, addend: 0x0, symName: __ZNSt3__118__unwrap_iter_implINS_16reverse_iteratorIPN7tinyobj14vertex_index_tEEELb0EE8__rewrapB8ue170006ES5_S5_, symObjAddr: 0x2095C, symBinAddr: 0x100024BF4, symSize: 0x2C }
  - { offsetInCU: 0x5905B, offset: 0x5905B, size: 0x8, addend: 0x0, symName: __ZNSt3__116reverse_iteratorIPN7tinyobj14vertex_index_tEEC2B8ue170006ES3_, symObjAddr: 0x20988, symBinAddr: 0x100024C20, symSize: 0x28 }
  - { offsetInCU: 0x59093, offset: 0x59093, size: 0x8, addend: 0x0, symName: __ZNSt3__114__split_bufferIN7tinyobj14vertex_index_tERNS_9allocatorIS2_EEED2Ev, symObjAddr: 0x209B0, symBinAddr: 0x100024C48, symSize: 0x8C }
  - { offsetInCU: 0x590BF, offset: 0x590BF, size: 0x8, addend: 0x0, symName: __ZNSt3__114__split_bufferIN7tinyobj14vertex_index_tERNS_9allocatorIS2_EEE5clearB8ue170006Ev, symObjAddr: 0x20A3C, symBinAddr: 0x100024CD4, symSize: 0x28 }
  - { offsetInCU: 0x590E5, offset: 0x590E5, size: 0x8, addend: 0x0, symName: __ZNSt3__116allocator_traitsINS_9allocatorIN7tinyobj14vertex_index_tEEEE10deallocateB8ue170006ERS4_PS3_m, symObjAddr: 0x20A64, symBinAddr: 0x100024CFC, symSize: 0x34 }
  - { offsetInCU: 0x59127, offset: 0x59127, size: 0x8, addend: 0x0, symName: __ZNKSt3__114__split_bufferIN7tinyobj14vertex_index_tERNS_9allocatorIS2_EEE8capacityB8ue170006Ev, symObjAddr: 0x20A98, symBinAddr: 0x100024D30, symSize: 0x40 }
  - { offsetInCU: 0x5914D, offset: 0x5914D, size: 0x8, addend: 0x0, symName: __ZNSt3__114__split_bufferIN7tinyobj14vertex_index_tERNS_9allocatorIS2_EEE17__destruct_at_endB8ue170006EPS2_, symObjAddr: 0x20AD8, symBinAddr: 0x100024D70, symSize: 0x2C }
  - { offsetInCU: 0x59181, offset: 0x59181, size: 0x8, addend: 0x0, symName: __ZNSt3__114__split_bufferIN7tinyobj14vertex_index_tERNS_9allocatorIS2_EEE17__destruct_at_endB8ue170006EPS2_NS_17integral_constantIbLb0EEE, symObjAddr: 0x20B04, symBinAddr: 0x100024D9C, symSize: 0x80 }
  - { offsetInCU: 0x591C1, offset: 0x591C1, size: 0x8, addend: 0x0, symName: __ZNSt3__116allocator_traitsINS_9allocatorIN7tinyobj14vertex_index_tEEEE7destroyB8ue170006IS3_vvEEvRS4_PT_, symObjAddr: 0x20B84, symBinAddr: 0x100024E1C, symSize: 0x28 }
  - { offsetInCU: 0x591FC, offset: 0x591FC, size: 0x8, addend: 0x0, symName: __ZNSt3__19allocatorIN7tinyobj14vertex_index_tEE10deallocateB8ue170006EPS2_m, symObjAddr: 0x20BE0, symBinAddr: 0x100024E78, symSize: 0x44 }
  - { offsetInCU: 0x5923E, offset: 0x5923E, size: 0x8, addend: 0x0, symName: __ZNKSt3__114__split_bufferIN7tinyobj14vertex_index_tERNS_9allocatorIS2_EEE9__end_capB8ue170006Ev, symObjAddr: 0x20C24, symBinAddr: 0x100024EBC, symSize: 0x28 }
  - { offsetInCU: 0x59264, offset: 0x59264, size: 0x8, addend: 0x0, symName: __ZNKSt3__117__compressed_pairIPN7tinyobj14vertex_index_tERNS_9allocatorIS2_EEE5firstB8ue170006Ev, symObjAddr: 0x20C4C, symBinAddr: 0x100024EE4, symSize: 0x24 }
  - { offsetInCU: 0x5928A, offset: 0x5928A, size: 0x8, addend: 0x0, symName: __ZNSt3__16vectorIN7tinyobj8__line_tENS_9allocatorIS2_EEE9__end_capB8ue170006Ev, symObjAddr: 0x20C70, symBinAddr: 0x100024F08, symSize: 0x28 }
  - { offsetInCU: 0x592B5, offset: 0x592B5, size: 0x8, addend: 0x0, symName: __ZNSt3__16vectorIN7tinyobj8__line_tENS_9allocatorIS2_EEE22__construct_one_at_endB8ue170006IJRKS2_EEEvDpOT_, symObjAddr: 0x20C98, symBinAddr: 0x100024F30, symSize: 0x90 }
  - { offsetInCU: 0x59304, offset: 0x59304, size: 0x8, addend: 0x0, symName: __ZNSt3__16vectorIN7tinyobj8__line_tENS_9allocatorIS2_EEE21__push_back_slow_pathIRKS2_EEvOT_, symObjAddr: 0x20D28, symBinAddr: 0x100024FC0, symSize: 0xD8 }
  - { offsetInCU: 0x59362, offset: 0x59362, size: 0x8, addend: 0x0, symName: __ZNSt3__117__compressed_pairIPN7tinyobj8__line_tENS_9allocatorIS2_EEE5firstB8ue170006Ev, symObjAddr: 0x20E00, symBinAddr: 0x100025098, symSize: 0x24 }
  - { offsetInCU: 0x59388, offset: 0x59388, size: 0x8, addend: 0x0, symName: __ZNSt3__122__compressed_pair_elemIPN7tinyobj8__line_tELi0ELb0EE5__getB8ue170006Ev, symObjAddr: 0x20E24, symBinAddr: 0x1000250BC, symSize: 0x14 }
  - { offsetInCU: 0x593C7, offset: 0x593C7, size: 0x8, addend: 0x0, symName: __ZNSt3__16vectorIN7tinyobj8__line_tENS_9allocatorIS2_EEE21_ConstructTransactionC1B8ue170006ERS5_m, symObjAddr: 0x20E38, symBinAddr: 0x1000250D0, symSize: 0x3C }
  - { offsetInCU: 0x5940F, offset: 0x5940F, size: 0x8, addend: 0x0, symName: __ZNSt3__116allocator_traitsINS_9allocatorIN7tinyobj8__line_tEEEE9constructB8ue170006IS3_JRKS3_EvvEEvRS4_PT_DpOT0_, symObjAddr: 0x20E74, symBinAddr: 0x10002510C, symSize: 0x30 }
  - { offsetInCU: 0x59464, offset: 0x59464, size: 0x8, addend: 0x0, symName: __ZNSt3__16vectorIN7tinyobj8__line_tENS_9allocatorIS2_EEE7__allocB8ue170006Ev, symObjAddr: 0x20EA4, symBinAddr: 0x10002513C, symSize: 0x28 }
  - { offsetInCU: 0x5948A, offset: 0x5948A, size: 0x8, addend: 0x0, symName: __ZNSt3__16vectorIN7tinyobj8__line_tENS_9allocatorIS2_EEE21_ConstructTransactionD1B8ue170006Ev, symObjAddr: 0x20EE0, symBinAddr: 0x100025178, symSize: 0x2C }
  - { offsetInCU: 0x594B4, offset: 0x594B4, size: 0x8, addend: 0x0, symName: __ZNSt3__16vectorIN7tinyobj8__line_tENS_9allocatorIS2_EEE21_ConstructTransactionC2B8ue170006ERS5_m, symObjAddr: 0x20F0C, symBinAddr: 0x1000251A4, symSize: 0x4C }
  - { offsetInCU: 0x594FC, offset: 0x594FC, size: 0x8, addend: 0x0, symName: __ZN7tinyobj8__line_tC1ERKS0_, symObjAddr: 0x20F94, symBinAddr: 0x10002522C, symSize: 0x34 }
  - { offsetInCU: 0x59532, offset: 0x59532, size: 0x8, addend: 0x0, symName: __ZN7tinyobj8__line_tC2ERKS0_, symObjAddr: 0x20FC8, symBinAddr: 0x100025260, symSize: 0x34 }
  - { offsetInCU: 0x59568, offset: 0x59568, size: 0x8, addend: 0x0, symName: __ZNSt3__16vectorIN7tinyobj14vertex_index_tENS_9allocatorIS2_EEEC1ERKS5_, symObjAddr: 0x20FFC, symBinAddr: 0x100025294, symSize: 0x34 }
  - { offsetInCU: 0x595A3, offset: 0x595A3, size: 0x8, addend: 0x0, symName: __ZNSt3__16vectorIN7tinyobj14vertex_index_tENS_9allocatorIS2_EEEC2ERKS5_, symObjAddr: 0x21030, symBinAddr: 0x1000252C8, symSize: 0x94 }
  - { offsetInCU: 0x595DE, offset: 0x595DE, size: 0x8, addend: 0x0, symName: __ZNSt3__116allocator_traitsINS_9allocatorIN7tinyobj14vertex_index_tEEEE37select_on_container_copy_constructionB8ue170006IS4_vvEES4_RKS4_, symObjAddr: 0x210C4, symBinAddr: 0x10002535C, symSize: 0x10 }
  - { offsetInCU: 0x59613, offset: 0x59613, size: 0x8, addend: 0x0, symName: __ZNSt3__117__compressed_pairIPN7tinyobj14vertex_index_tENS_9allocatorIS2_EEEC1B8ue170006IDnS5_EEOT_OT0_, symObjAddr: 0x210D4, symBinAddr: 0x10002536C, symSize: 0x3C }
  - { offsetInCU: 0x5966B, offset: 0x5966B, size: 0x8, addend: 0x0, symName: __ZNSt3__16vectorIN7tinyobj14vertex_index_tENS_9allocatorIS2_EEE16__init_with_sizeB8ue170006IPS2_S7_EEvT_T0_m, symObjAddr: 0x21110, symBinAddr: 0x1000253A8, symSize: 0xB8 }
  - { offsetInCU: 0x596DF, offset: 0x596DF, size: 0x8, addend: 0x0, symName: __ZNSt3__117__compressed_pairIPN7tinyobj14vertex_index_tENS_9allocatorIS2_EEEC2B8ue170006IDnS5_EEOT_OT0_, symObjAddr: 0x211C8, symBinAddr: 0x100025460, symSize: 0x44 }
  - { offsetInCU: 0x59737, offset: 0x59737, size: 0x8, addend: 0x0, symName: __ZNSt3__122__compressed_pair_elemINS_9allocatorIN7tinyobj14vertex_index_tEEELi1ELb1EEC2B8ue170006IS4_vEEOT_, symObjAddr: 0x2120C, symBinAddr: 0x1000254A4, symSize: 0x18 }
  - { offsetInCU: 0x59779, offset: 0x59779, size: 0x8, addend: 0x0, symName: __ZNSt3__16vectorIN7tinyobj14vertex_index_tENS_9allocatorIS2_EEE16__destroy_vectorC1B8ue170006ERS5_, symObjAddr: 0x21264, symBinAddr: 0x1000254FC, symSize: 0x34 }
  - { offsetInCU: 0x597B2, offset: 0x597B2, size: 0x8, addend: 0x0, symName: __ZNSt3__16vectorIN7tinyobj14vertex_index_tENS_9allocatorIS2_EEE11__vallocateB8ue170006Em, symObjAddr: 0x21298, symBinAddr: 0x100025530, symSize: 0xB4 }
  - { offsetInCU: 0x597F6, offset: 0x597F6, size: 0x8, addend: 0x0, symName: __ZNSt3__16vectorIN7tinyobj14vertex_index_tENS_9allocatorIS2_EEE18__construct_at_endIPS2_S7_EEvT_T0_m, symObjAddr: 0x2134C, symBinAddr: 0x1000255E4, symSize: 0x8C }
  - { offsetInCU: 0x5986C, offset: 0x5986C, size: 0x8, addend: 0x0, symName: __ZNSt3__128__exception_guard_exceptionsINS_6vectorIN7tinyobj14vertex_index_tENS_9allocatorIS3_EEE16__destroy_vectorEE10__completeB8ue170006Ev, symObjAddr: 0x213D8, symBinAddr: 0x100025670, symSize: 0x1C }
  - { offsetInCU: 0x59892, offset: 0x59892, size: 0x8, addend: 0x0, symName: __ZNSt3__128__exception_guard_exceptionsINS_6vectorIN7tinyobj14vertex_index_tENS_9allocatorIS3_EEE16__destroy_vectorEED1B8ue170006Ev, symObjAddr: 0x213F4, symBinAddr: 0x10002568C, symSize: 0x2C }
  - { offsetInCU: 0x598BC, offset: 0x598BC, size: 0x8, addend: 0x0, symName: __ZNSt3__128__exception_guard_exceptionsINS_6vectorIN7tinyobj14vertex_index_tENS_9allocatorIS3_EEE16__destroy_vectorEEC1B8ue170006ES7_, symObjAddr: 0x21420, symBinAddr: 0x1000256B8, symSize: 0x34 }
  - { offsetInCU: 0x598F4, offset: 0x598F4, size: 0x8, addend: 0x0, symName: __ZNSt3__128__exception_guard_exceptionsINS_6vectorIN7tinyobj14vertex_index_tENS_9allocatorIS3_EEE16__destroy_vectorEEC2B8ue170006ES7_, symObjAddr: 0x21454, symBinAddr: 0x1000256EC, symSize: 0x24 }
  - { offsetInCU: 0x5992C, offset: 0x5992C, size: 0x8, addend: 0x0, symName: __ZNSt3__16vectorIN7tinyobj14vertex_index_tENS_9allocatorIS2_EEE16__destroy_vectorC2B8ue170006ERS5_, symObjAddr: 0x21478, symBinAddr: 0x100025710, symSize: 0x20 }
  - { offsetInCU: 0x5997F, offset: 0x5997F, size: 0x8, addend: 0x0, symName: __ZNSt3__119__unwrap_range_implIPN7tinyobj14vertex_index_tES3_E8__unwrapB8ue170006ES3_S3_, symObjAddr: 0x215EC, symBinAddr: 0x100025884, symSize: 0x58 }
  - { offsetInCU: 0x599B6, offset: 0x599B6, size: 0x8, addend: 0x0, symName: __ZNSt3__14pairIPN7tinyobj14vertex_index_tES3_EC1B8ue170006IS3_S3_LPv0EEEOT_OT0_, symObjAddr: 0x21644, symBinAddr: 0x1000258DC, symSize: 0x3C }
  - { offsetInCU: 0x59A14, offset: 0x59A14, size: 0x8, addend: 0x0, symName: __ZNSt3__14pairIPN7tinyobj14vertex_index_tES3_EC2B8ue170006IS3_S3_LPv0EEEOT_OT0_, symObjAddr: 0x21680, symBinAddr: 0x100025918, symSize: 0x34 }
  - { offsetInCU: 0x59A72, offset: 0x59A72, size: 0x8, addend: 0x0, symName: __ZNKSt3__114__copy_trivialclB8ue170006IN7tinyobj14vertex_index_tES3_Li0EEENS_4pairIPT_PT0_EES6_S6_S8_, symObjAddr: 0x21830, symBinAddr: 0x100025AC8, symSize: 0x48 }
  - { offsetInCU: 0x59ADA, offset: 0x59ADA, size: 0x8, addend: 0x0, symName: __ZNSt3__14pairIPN7tinyobj14vertex_index_tES3_EC1B8ue170006IRS3_S3_LPv0EEEOT_OT0_, symObjAddr: 0x21A04, symBinAddr: 0x100025C9C, symSize: 0x3C }
  - { offsetInCU: 0x59B38, offset: 0x59B38, size: 0x8, addend: 0x0, symName: __ZNSt3__14pairIPN7tinyobj14vertex_index_tES3_EC2B8ue170006IRS3_S3_LPv0EEEOT_OT0_, symObjAddr: 0x21A40, symBinAddr: 0x100025CD8, symSize: 0x34 }
  - { offsetInCU: 0x59B96, offset: 0x59B96, size: 0x8, addend: 0x0, symName: __ZNSt3__119__unwrap_range_implIPN7tinyobj14vertex_index_tES3_E8__rewrapB8ue170006ES3_S3_, symObjAddr: 0x21A74, symBinAddr: 0x100025D0C, symSize: 0x2C }
  - { offsetInCU: 0x59BC7, offset: 0x59BC7, size: 0x8, addend: 0x0, symName: __ZNSt3__118__unwrap_iter_implIPN7tinyobj14vertex_index_tELb1EE8__unwrapB8ue170006ES3_, symObjAddr: 0x21AA0, symBinAddr: 0x100025D38, symSize: 0x24 }
  - { offsetInCU: 0x59BEA, offset: 0x59BEA, size: 0x8, addend: 0x0, symName: __ZNSt3__118__unwrap_iter_implIPN7tinyobj14vertex_index_tELb1EE8__rewrapB8ue170006ES3_S3_, symObjAddr: 0x21AC4, symBinAddr: 0x100025D5C, symSize: 0x58 }
  - { offsetInCU: 0x59C1B, offset: 0x59C1B, size: 0x8, addend: 0x0, symName: __ZNSt3__128__exception_guard_exceptionsINS_6vectorIN7tinyobj14vertex_index_tENS_9allocatorIS3_EEE16__destroy_vectorEED2B8ue170006Ev, symObjAddr: 0x21B1C, symBinAddr: 0x100025DB4, symSize: 0x50 }
  - { offsetInCU: 0x59C45, offset: 0x59C45, size: 0x8, addend: 0x0, symName: __ZNSt3__16vectorIN7tinyobj14vertex_index_tENS_9allocatorIS2_EEE16__destroy_vectorclB8ue170006Ev, symObjAddr: 0x21B6C, symBinAddr: 0x100025E04, symSize: 0x90 }
  - { offsetInCU: 0x59C6B, offset: 0x59C6B, size: 0x8, addend: 0x0, symName: __ZNSt3__16vectorIN7tinyobj14vertex_index_tENS_9allocatorIS2_EEE7__clearB8ue170006Ev, symObjAddr: 0x21BFC, symBinAddr: 0x100025E94, symSize: 0x28 }
  - { offsetInCU: 0x59C91, offset: 0x59C91, size: 0x8, addend: 0x0, symName: __ZNSt3__16vectorIN7tinyobj14vertex_index_tENS_9allocatorIS2_EEE22__base_destruct_at_endB8ue170006EPS2_, symObjAddr: 0x21C24, symBinAddr: 0x100025EBC, symSize: 0x8C }
  - { offsetInCU: 0x59CD5, offset: 0x59CD5, size: 0x8, addend: 0x0, symName: __ZNSt3__117__compressed_pairIPN7tinyobj8__line_tENS_9allocatorIS2_EEE6secondB8ue170006Ev, symObjAddr: 0x21CB0, symBinAddr: 0x100025F48, symSize: 0x24 }
  - { offsetInCU: 0x59CFB, offset: 0x59CFB, size: 0x8, addend: 0x0, symName: __ZNSt3__122__compressed_pair_elemINS_9allocatorIN7tinyobj8__line_tEEELi1ELb1EE5__getB8ue170006Ev, symObjAddr: 0x21CD4, symBinAddr: 0x100025F6C, symSize: 0x14 }
  - { offsetInCU: 0x59D21, offset: 0x59D21, size: 0x8, addend: 0x0, symName: __ZNSt3__16vectorIN7tinyobj8__line_tENS_9allocatorIS2_EEE21_ConstructTransactionD2B8ue170006Ev, symObjAddr: 0x21CE8, symBinAddr: 0x100025F80, symSize: 0x20 }
  - { offsetInCU: 0x59D4B, offset: 0x59D4B, size: 0x8, addend: 0x0, symName: __ZNKSt3__16vectorIN7tinyobj8__line_tENS_9allocatorIS2_EEE11__recommendB8ue170006Em, symObjAddr: 0x21D08, symBinAddr: 0x100025FA0, symSize: 0xB4 }
  - { offsetInCU: 0x59DA0, offset: 0x59DA0, size: 0x8, addend: 0x0, symName: __ZNKSt3__16vectorIN7tinyobj8__line_tENS_9allocatorIS2_EEE4sizeB8ue170006Ev, symObjAddr: 0x21DBC, symBinAddr: 0x100026054, symSize: 0x28 }
  - { offsetInCU: 0x59DC6, offset: 0x59DC6, size: 0x8, addend: 0x0, symName: __ZNSt3__114__split_bufferIN7tinyobj8__line_tERNS_9allocatorIS2_EEEC1EmmS5_, symObjAddr: 0x21DE4, symBinAddr: 0x10002607C, symSize: 0x44 }
  - { offsetInCU: 0x59E1C, offset: 0x59E1C, size: 0x8, addend: 0x0, symName: __ZNSt3__114__split_bufferIN7tinyobj8__line_tERNS_9allocatorIS2_EEED1Ev, symObjAddr: 0x21F38, symBinAddr: 0x1000261D0, symSize: 0x2C }
  - { offsetInCU: 0x59E48, offset: 0x59E48, size: 0x8, addend: 0x0, symName: __ZNKSt3__16vectorIN7tinyobj8__line_tENS_9allocatorIS2_EEE8max_sizeEv, symObjAddr: 0x21F64, symBinAddr: 0x1000261FC, symSize: 0x60 }
  - { offsetInCU: 0x59E70, offset: 0x59E70, size: 0x8, addend: 0x0, symName: __ZNKSt3__16vectorIN7tinyobj8__line_tENS_9allocatorIS2_EEE20__throw_length_errorB8ue170006Ev, symObjAddr: 0x21FC4, symBinAddr: 0x10002625C, symSize: 0x1C }
  - { offsetInCU: 0x59E96, offset: 0x59E96, size: 0x8, addend: 0x0, symName: __ZNKSt3__16vectorIN7tinyobj8__line_tENS_9allocatorIS2_EEE8capacityB8ue170006Ev, symObjAddr: 0x21FE0, symBinAddr: 0x100026278, symSize: 0x40 }
  - { offsetInCU: 0x59EC6, offset: 0x59EC6, size: 0x8, addend: 0x0, symName: __ZNSt3__116allocator_traitsINS_9allocatorIN7tinyobj8__line_tEEEE8max_sizeB8ue170006IS4_vvEEmRKS4_, symObjAddr: 0x22020, symBinAddr: 0x1000262B8, symSize: 0x28 }
  - { offsetInCU: 0x59EF2, offset: 0x59EF2, size: 0x8, addend: 0x0, symName: __ZNKSt3__16vectorIN7tinyobj8__line_tENS_9allocatorIS2_EEE7__allocB8ue170006Ev, symObjAddr: 0x22048, symBinAddr: 0x1000262E0, symSize: 0x28 }
  - { offsetInCU: 0x59F18, offset: 0x59F18, size: 0x8, addend: 0x0, symName: __ZNKSt3__117__compressed_pairIPN7tinyobj8__line_tENS_9allocatorIS2_EEE6secondB8ue170006Ev, symObjAddr: 0x22070, symBinAddr: 0x100026308, symSize: 0x24 }
  - { offsetInCU: 0x59F3E, offset: 0x59F3E, size: 0x8, addend: 0x0, symName: __ZNKSt3__122__compressed_pair_elemINS_9allocatorIN7tinyobj8__line_tEEELi1ELb1EE5__getB8ue170006Ev, symObjAddr: 0x22094, symBinAddr: 0x10002632C, symSize: 0x14 }
  - { offsetInCU: 0x59F64, offset: 0x59F64, size: 0x8, addend: 0x0, symName: __ZNKSt3__16vectorIN7tinyobj8__line_tENS_9allocatorIS2_EEE9__end_capB8ue170006Ev, symObjAddr: 0x220A8, symBinAddr: 0x100026340, symSize: 0x28 }
  - { offsetInCU: 0x59F8A, offset: 0x59F8A, size: 0x8, addend: 0x0, symName: __ZNKSt3__117__compressed_pairIPN7tinyobj8__line_tENS_9allocatorIS2_EEE5firstB8ue170006Ev, symObjAddr: 0x220D0, symBinAddr: 0x100026368, symSize: 0x24 }
  - { offsetInCU: 0x59FB0, offset: 0x59FB0, size: 0x8, addend: 0x0, symName: __ZNKSt3__122__compressed_pair_elemIPN7tinyobj8__line_tELi0ELb0EE5__getB8ue170006Ev, symObjAddr: 0x220F4, symBinAddr: 0x10002638C, symSize: 0x14 }
  - { offsetInCU: 0x59FD6, offset: 0x59FD6, size: 0x8, addend: 0x0, symName: __ZNSt3__114__split_bufferIN7tinyobj8__line_tERNS_9allocatorIS2_EEEC2EmmS5_, symObjAddr: 0x22108, symBinAddr: 0x1000263A0, symSize: 0xE0 }
  - { offsetInCU: 0x5A049, offset: 0x5A049, size: 0x8, addend: 0x0, symName: __ZNSt3__117__compressed_pairIPN7tinyobj8__line_tERNS_9allocatorIS2_EEEC1B8ue170006IDnS6_EEOT_OT0_, symObjAddr: 0x221E8, symBinAddr: 0x100026480, symSize: 0x3C }
  - { offsetInCU: 0x5A0A1, offset: 0x5A0A1, size: 0x8, addend: 0x0, symName: __ZNSt3__114__split_bufferIN7tinyobj8__line_tERNS_9allocatorIS2_EEE7__allocB8ue170006Ev, symObjAddr: 0x22264, symBinAddr: 0x1000264FC, symSize: 0x28 }
  - { offsetInCU: 0x5A0C7, offset: 0x5A0C7, size: 0x8, addend: 0x0, symName: __ZNSt3__114__split_bufferIN7tinyobj8__line_tERNS_9allocatorIS2_EEE9__end_capB8ue170006Ev, symObjAddr: 0x2228C, symBinAddr: 0x100026524, symSize: 0x28 }
  - { offsetInCU: 0x5A0ED, offset: 0x5A0ED, size: 0x8, addend: 0x0, symName: __ZNSt3__117__compressed_pairIPN7tinyobj8__line_tERNS_9allocatorIS2_EEEC2B8ue170006IDnS6_EEOT_OT0_, symObjAddr: 0x222B4, symBinAddr: 0x10002654C, symSize: 0x48 }
  - { offsetInCU: 0x5A145, offset: 0x5A145, size: 0x8, addend: 0x0, symName: __ZNSt3__122__compressed_pair_elemIRNS_9allocatorIN7tinyobj8__line_tEEELi1ELb0EEC2B8ue170006IS5_vEEOT_, symObjAddr: 0x222FC, symBinAddr: 0x100026594, symSize: 0x20 }
  - { offsetInCU: 0x5A187, offset: 0x5A187, size: 0x8, addend: 0x0, symName: __ZNSt3__19allocatorIN7tinyobj8__line_tEE8allocateB8ue170006Em, symObjAddr: 0x2231C, symBinAddr: 0x1000265B4, symSize: 0x5C }
  - { offsetInCU: 0x5A1BB, offset: 0x5A1BB, size: 0x8, addend: 0x0, symName: __ZNSt3__117__compressed_pairIPN7tinyobj8__line_tERNS_9allocatorIS2_EEE6secondB8ue170006Ev, symObjAddr: 0x22378, symBinAddr: 0x100026610, symSize: 0x28 }
  - { offsetInCU: 0x5A1E1, offset: 0x5A1E1, size: 0x8, addend: 0x0, symName: __ZNSt3__122__compressed_pair_elemIRNS_9allocatorIN7tinyobj8__line_tEEELi1ELb0EE5__getB8ue170006Ev, symObjAddr: 0x223A0, symBinAddr: 0x100026638, symSize: 0x18 }
  - { offsetInCU: 0x5A207, offset: 0x5A207, size: 0x8, addend: 0x0, symName: __ZNSt3__117__compressed_pairIPN7tinyobj8__line_tERNS_9allocatorIS2_EEE5firstB8ue170006Ev, symObjAddr: 0x223B8, symBinAddr: 0x100026650, symSize: 0x24 }
  - { offsetInCU: 0x5A22D, offset: 0x5A22D, size: 0x8, addend: 0x0, symName: __ZNKSt3__16vectorIN7tinyobj8__line_tENS_9allocatorIS2_EEE17__annotate_deleteB8ue170006Ev, symObjAddr: 0x223DC, symBinAddr: 0x100026674, symSize: 0xD4 }
  - { offsetInCU: 0x5A253, offset: 0x5A253, size: 0x8, addend: 0x0, symName: __ZNSt3__116reverse_iteratorIPN7tinyobj8__line_tEEC1B8ue170006ES3_, symObjAddr: 0x225DC, symBinAddr: 0x100026874, symSize: 0x34 }
  - { offsetInCU: 0x5A28B, offset: 0x5A28B, size: 0x8, addend: 0x0, symName: __ZNKSt3__116reverse_iteratorIPN7tinyobj8__line_tEE4baseB8ue170006Ev, symObjAddr: 0x22610, symBinAddr: 0x1000268A8, symSize: 0x18 }
  - { offsetInCU: 0x5A2B1, offset: 0x5A2B1, size: 0x8, addend: 0x0, symName: __ZNKSt3__16vectorIN7tinyobj8__line_tENS_9allocatorIS2_EEE14__annotate_newB8ue170006Em, symObjAddr: 0x22664, symBinAddr: 0x1000268FC, symSize: 0xC8 }
  - { offsetInCU: 0x5A2E6, offset: 0x5A2E6, size: 0x8, addend: 0x0, symName: __ZNKSt3__16vectorIN7tinyobj8__line_tENS_9allocatorIS2_EEE31__annotate_contiguous_containerB8ue170006EPKvS7_S7_S7_, symObjAddr: 0x2272C, symBinAddr: 0x1000269C4, symSize: 0x20 }
  - { offsetInCU: 0x5A33C, offset: 0x5A33C, size: 0x8, addend: 0x0, symName: __ZNKSt3__16vectorIN7tinyobj8__line_tENS_9allocatorIS2_EEE4dataB8ue170006Ev, symObjAddr: 0x2274C, symBinAddr: 0x1000269E4, symSize: 0x28 }
  - { offsetInCU: 0x5A362, offset: 0x5A362, size: 0x8, addend: 0x0, symName: __ZNSt3__129_AllocatorDestroyRangeReverseINS_9allocatorIN7tinyobj8__line_tEEENS_16reverse_iteratorIPS3_EEEC1B8ue170006ERS4_RS7_SA_, symObjAddr: 0x227C0, symBinAddr: 0x100026A58, symSize: 0x44 }
  - { offsetInCU: 0x5A3BF, offset: 0x5A3BF, size: 0x8, addend: 0x0, symName: __ZNSt3__116allocator_traitsINS_9allocatorIN7tinyobj8__line_tEEEE9constructB8ue170006IS3_JS3_EvvEEvRS4_PT_DpOT0_, symObjAddr: 0x2284C, symBinAddr: 0x100026AE4, symSize: 0x30 }
  - { offsetInCU: 0x5A414, offset: 0x5A414, size: 0x8, addend: 0x0, symName: __ZNKSt3__116reverse_iteratorIPN7tinyobj8__line_tEEdeB8ue170006Ev, symObjAddr: 0x228A0, symBinAddr: 0x100026B38, symSize: 0x28 }
  - { offsetInCU: 0x5A448, offset: 0x5A448, size: 0x8, addend: 0x0, symName: __ZNSt3__116reverse_iteratorIPN7tinyobj8__line_tEEppB8ue170006Ev, symObjAddr: 0x228C8, symBinAddr: 0x100026B60, symSize: 0x20 }
  - { offsetInCU: 0x5A46E, offset: 0x5A46E, size: 0x8, addend: 0x0, symName: __ZNSt3__128__exception_guard_exceptionsINS_29_AllocatorDestroyRangeReverseINS_9allocatorIN7tinyobj8__line_tEEENS_16reverse_iteratorIPS4_EEEEE10__completeB8ue170006Ev, symObjAddr: 0x228E8, symBinAddr: 0x100026B80, symSize: 0x1C }
  - { offsetInCU: 0x5A494, offset: 0x5A494, size: 0x8, addend: 0x0, symName: __ZNSt3__128__exception_guard_exceptionsINS_29_AllocatorDestroyRangeReverseINS_9allocatorIN7tinyobj8__line_tEEENS_16reverse_iteratorIPS4_EEEEED1B8ue170006Ev, symObjAddr: 0x22904, symBinAddr: 0x100026B9C, symSize: 0x2C }
  - { offsetInCU: 0x5A4BE, offset: 0x5A4BE, size: 0x8, addend: 0x0, symName: __ZNSt3__128__exception_guard_exceptionsINS_29_AllocatorDestroyRangeReverseINS_9allocatorIN7tinyobj8__line_tEEENS_16reverse_iteratorIPS4_EEEEEC1B8ue170006ES9_, symObjAddr: 0x22930, symBinAddr: 0x100026BC8, symSize: 0x34 }
  - { offsetInCU: 0x5A4F7, offset: 0x5A4F7, size: 0x8, addend: 0x0, symName: __ZNSt3__128__exception_guard_exceptionsINS_29_AllocatorDestroyRangeReverseINS_9allocatorIN7tinyobj8__line_tEEENS_16reverse_iteratorIPS4_EEEEEC2B8ue170006ES9_, symObjAddr: 0x22964, symBinAddr: 0x100026BFC, symSize: 0x30 }
  - { offsetInCU: 0x5A530, offset: 0x5A530, size: 0x8, addend: 0x0, symName: __ZNSt3__129_AllocatorDestroyRangeReverseINS_9allocatorIN7tinyobj8__line_tEEENS_16reverse_iteratorIPS3_EEEC2B8ue170006ERS4_RS7_SA_, symObjAddr: 0x22994, symBinAddr: 0x100026C2C, symSize: 0x38 }
  - { offsetInCU: 0x5A587, offset: 0x5A587, size: 0x8, addend: 0x0, symName: __ZN7tinyobj8__line_tC1EOS0_, symObjAddr: 0x22A08, symBinAddr: 0x100026CA0, symSize: 0x34 }
  - { offsetInCU: 0x5A5BD, offset: 0x5A5BD, size: 0x8, addend: 0x0, symName: __ZN7tinyobj8__line_tC2EOS0_, symObjAddr: 0x22A3C, symBinAddr: 0x100026CD4, symSize: 0x34 }
  - { offsetInCU: 0x5A5F3, offset: 0x5A5F3, size: 0x8, addend: 0x0, symName: __ZNSt3__16vectorIN7tinyobj14vertex_index_tENS_9allocatorIS2_EEEC1B8ue170006EOS5_, symObjAddr: 0x22A70, symBinAddr: 0x100026D08, symSize: 0x34 }
  - { offsetInCU: 0x5A62E, offset: 0x5A62E, size: 0x8, addend: 0x0, symName: __ZNSt3__16vectorIN7tinyobj14vertex_index_tENS_9allocatorIS2_EEEC2B8ue170006EOS5_, symObjAddr: 0x22AA4, symBinAddr: 0x100026D3C, symSize: 0xC4 }
  - { offsetInCU: 0x5A66E, offset: 0x5A66E, size: 0x8, addend: 0x0, symName: __ZNSt3__119__to_address_helperINS_16reverse_iteratorIPN7tinyobj8__line_tEEEvE6__callB8ue170006ERKS5_, symObjAddr: 0x22B68, symBinAddr: 0x100026E00, symSize: 0x38 }
  - { offsetInCU: 0x5A691, offset: 0x5A691, size: 0x8, addend: 0x0, symName: __ZNKSt3__116reverse_iteratorIPN7tinyobj8__line_tEEptB8ue170006Ev, symObjAddr: 0x22BA0, symBinAddr: 0x100026E38, symSize: 0x2C }
  - { offsetInCU: 0x5A6B7, offset: 0x5A6B7, size: 0x8, addend: 0x0, symName: __ZNSt3__128__exception_guard_exceptionsINS_29_AllocatorDestroyRangeReverseINS_9allocatorIN7tinyobj8__line_tEEENS_16reverse_iteratorIPS4_EEEEED2B8ue170006Ev, symObjAddr: 0x22C70, symBinAddr: 0x100026F08, symSize: 0x50 }
  - { offsetInCU: 0x5A6E1, offset: 0x5A6E1, size: 0x8, addend: 0x0, symName: __ZNKSt3__129_AllocatorDestroyRangeReverseINS_9allocatorIN7tinyobj8__line_tEEENS_16reverse_iteratorIPS3_EEEclB8ue170006Ev, symObjAddr: 0x22CC0, symBinAddr: 0x100026F58, symSize: 0xB4 }
  - { offsetInCU: 0x5A708, offset: 0x5A708, size: 0x8, addend: 0x0, symName: __ZNSt3__116reverse_iteratorINS0_IPN7tinyobj8__line_tEEEEC1B8ue170006ES4_, symObjAddr: 0x22DE4, symBinAddr: 0x10002707C, symSize: 0x3C }
  - { offsetInCU: 0x5A740, offset: 0x5A740, size: 0x8, addend: 0x0, symName: __ZNSt3__116allocator_traitsINS_9allocatorIN7tinyobj8__line_tEEEE7destroyB8ue170006IS3_vvEEvRS4_PT_, symObjAddr: 0x22E80, symBinAddr: 0x100027118, symSize: 0x28 }
  - { offsetInCU: 0x5A77B, offset: 0x5A77B, size: 0x8, addend: 0x0, symName: __ZNSt3__116reverse_iteratorINS0_IPN7tinyobj8__line_tEEEEppB8ue170006Ev, symObjAddr: 0x22ECC, symBinAddr: 0x100027164, symSize: 0x30 }
  - { offsetInCU: 0x5A7A1, offset: 0x5A7A1, size: 0x8, addend: 0x0, symName: __ZNKSt3__116reverse_iteratorINS0_IPN7tinyobj8__line_tEEEE4baseB8ue170006Ev, symObjAddr: 0x22EFC, symBinAddr: 0x100027194, symSize: 0x24 }
  - { offsetInCU: 0x5A7CC, offset: 0x5A7CC, size: 0x8, addend: 0x0, symName: __ZNSt3__119__to_address_helperINS_16reverse_iteratorINS1_IPN7tinyobj8__line_tEEEEEvE6__callB8ue170006ERKS6_, symObjAddr: 0x22F68, symBinAddr: 0x100027200, symSize: 0x38 }
  - { offsetInCU: 0x5A7EF, offset: 0x5A7EF, size: 0x8, addend: 0x0, symName: __ZNKSt3__116reverse_iteratorINS0_IPN7tinyobj8__line_tEEEEptB8ue170006Ev, symObjAddr: 0x22FA0, symBinAddr: 0x100027238, symSize: 0x4C }
  - { offsetInCU: 0x5A815, offset: 0x5A815, size: 0x8, addend: 0x0, symName: __ZNSt3__116reverse_iteratorIPN7tinyobj8__line_tEEpLB8ue170006El, symObjAddr: 0x2309C, symBinAddr: 0x100027334, symSize: 0x30 }
  - { offsetInCU: 0x5A849, offset: 0x5A849, size: 0x8, addend: 0x0, symName: __ZNSt3__116reverse_iteratorIPN7tinyobj8__line_tEEmmB8ue170006Ev, symObjAddr: 0x230CC, symBinAddr: 0x100027364, symSize: 0x20 }
  - { offsetInCU: 0x5A86F, offset: 0x5A86F, size: 0x8, addend: 0x0, symName: __ZNSt3__116reverse_iteratorINS0_IPN7tinyobj8__line_tEEEEC2B8ue170006ES4_, symObjAddr: 0x230EC, symBinAddr: 0x100027384, symSize: 0x2C }
  - { offsetInCU: 0x5A8A7, offset: 0x5A8A7, size: 0x8, addend: 0x0, symName: __ZNSt3__116reverse_iteratorIPN7tinyobj8__line_tEEC2B8ue170006ES3_, symObjAddr: 0x23118, symBinAddr: 0x1000273B0, symSize: 0x28 }
  - { offsetInCU: 0x5A8DF, offset: 0x5A8DF, size: 0x8, addend: 0x0, symName: __ZNSt3__114__split_bufferIN7tinyobj8__line_tERNS_9allocatorIS2_EEED2Ev, symObjAddr: 0x23140, symBinAddr: 0x1000273D8, symSize: 0x8C }
  - { offsetInCU: 0x5A90B, offset: 0x5A90B, size: 0x8, addend: 0x0, symName: __ZNSt3__114__split_bufferIN7tinyobj8__line_tERNS_9allocatorIS2_EEE5clearB8ue170006Ev, symObjAddr: 0x231CC, symBinAddr: 0x100027464, symSize: 0x28 }
  - { offsetInCU: 0x5A931, offset: 0x5A931, size: 0x8, addend: 0x0, symName: __ZNSt3__116allocator_traitsINS_9allocatorIN7tinyobj8__line_tEEEE10deallocateB8ue170006ERS4_PS3_m, symObjAddr: 0x231F4, symBinAddr: 0x10002748C, symSize: 0x34 }
  - { offsetInCU: 0x5A973, offset: 0x5A973, size: 0x8, addend: 0x0, symName: __ZNKSt3__114__split_bufferIN7tinyobj8__line_tERNS_9allocatorIS2_EEE8capacityB8ue170006Ev, symObjAddr: 0x23228, symBinAddr: 0x1000274C0, symSize: 0x40 }
  - { offsetInCU: 0x5A999, offset: 0x5A999, size: 0x8, addend: 0x0, symName: __ZNSt3__114__split_bufferIN7tinyobj8__line_tERNS_9allocatorIS2_EEE17__destruct_at_endB8ue170006EPS2_, symObjAddr: 0x23268, symBinAddr: 0x100027500, symSize: 0x2C }
  - { offsetInCU: 0x5A9CD, offset: 0x5A9CD, size: 0x8, addend: 0x0, symName: __ZNSt3__114__split_bufferIN7tinyobj8__line_tERNS_9allocatorIS2_EEE17__destruct_at_endB8ue170006EPS2_NS_17integral_constantIbLb0EEE, symObjAddr: 0x23294, symBinAddr: 0x10002752C, symSize: 0x80 }
  - { offsetInCU: 0x5AA0D, offset: 0x5AA0D, size: 0x8, addend: 0x0, symName: __ZNSt3__19allocatorIN7tinyobj8__line_tEE10deallocateB8ue170006EPS2_m, symObjAddr: 0x23314, symBinAddr: 0x1000275AC, symSize: 0x44 }
  - { offsetInCU: 0x5AA4F, offset: 0x5AA4F, size: 0x8, addend: 0x0, symName: __ZNKSt3__114__split_bufferIN7tinyobj8__line_tERNS_9allocatorIS2_EEE9__end_capB8ue170006Ev, symObjAddr: 0x23358, symBinAddr: 0x1000275F0, symSize: 0x28 }
  - { offsetInCU: 0x5AA75, offset: 0x5AA75, size: 0x8, addend: 0x0, symName: __ZNKSt3__117__compressed_pairIPN7tinyobj8__line_tERNS_9allocatorIS2_EEE5firstB8ue170006Ev, symObjAddr: 0x23380, symBinAddr: 0x100027618, symSize: 0x24 }
  - { offsetInCU: 0x5AA9B, offset: 0x5AA9B, size: 0x8, addend: 0x0, symName: __ZN7tinyobj8__line_tD2Ev, symObjAddr: 0x233A4, symBinAddr: 0x10002763C, symSize: 0x2C }
  - { offsetInCU: 0x5AAC8, offset: 0x5AAC8, size: 0x8, addend: 0x0, symName: __ZNSt3__16vectorIN7tinyobj14vertex_index_tENS_9allocatorIS2_EEED1B8ue170006Ev, symObjAddr: 0x233D0, symBinAddr: 0x100027668, symSize: 0x2C }
  - { offsetInCU: 0x5AAF2, offset: 0x5AAF2, size: 0x8, addend: 0x0, symName: __ZNSt3__16vectorIN7tinyobj14vertex_index_tENS_9allocatorIS2_EEED2B8ue170006Ev, symObjAddr: 0x233FC, symBinAddr: 0x100027694, symSize: 0x40 }
  - { offsetInCU: 0x5AB1C, offset: 0x5AB1C, size: 0x8, addend: 0x0, symName: __ZN7tinyobj10__points_tC2Ev, symObjAddr: 0x2343C, symBinAddr: 0x1000276D4, symSize: 0x2C }
  - { offsetInCU: 0x5AB49, offset: 0x5AB49, size: 0x8, addend: 0x0, symName: __ZNSt3__16vectorIN7tinyobj10__points_tENS_9allocatorIS2_EEE9__end_capB8ue170006Ev, symObjAddr: 0x23468, symBinAddr: 0x100027700, symSize: 0x28 }
  - { offsetInCU: 0x5AB74, offset: 0x5AB74, size: 0x8, addend: 0x0, symName: __ZNSt3__16vectorIN7tinyobj10__points_tENS_9allocatorIS2_EEE22__construct_one_at_endB8ue170006IJRKS2_EEEvDpOT_, symObjAddr: 0x23490, symBinAddr: 0x100027728, symSize: 0x90 }
  - { offsetInCU: 0x5ABC3, offset: 0x5ABC3, size: 0x8, addend: 0x0, symName: __ZNSt3__16vectorIN7tinyobj10__points_tENS_9allocatorIS2_EEE21__push_back_slow_pathIRKS2_EEvOT_, symObjAddr: 0x23520, symBinAddr: 0x1000277B8, symSize: 0xD8 }
  - { offsetInCU: 0x5AC21, offset: 0x5AC21, size: 0x8, addend: 0x0, symName: __ZNSt3__117__compressed_pairIPN7tinyobj10__points_tENS_9allocatorIS2_EEE5firstB8ue170006Ev, symObjAddr: 0x235F8, symBinAddr: 0x100027890, symSize: 0x24 }
  - { offsetInCU: 0x5AC47, offset: 0x5AC47, size: 0x8, addend: 0x0, symName: __ZNSt3__122__compressed_pair_elemIPN7tinyobj10__points_tELi0ELb0EE5__getB8ue170006Ev, symObjAddr: 0x2361C, symBinAddr: 0x1000278B4, symSize: 0x14 }
  - { offsetInCU: 0x5AC86, offset: 0x5AC86, size: 0x8, addend: 0x0, symName: __ZNSt3__16vectorIN7tinyobj10__points_tENS_9allocatorIS2_EEE21_ConstructTransactionC1B8ue170006ERS5_m, symObjAddr: 0x23630, symBinAddr: 0x1000278C8, symSize: 0x3C }
  - { offsetInCU: 0x5ACCE, offset: 0x5ACCE, size: 0x8, addend: 0x0, symName: __ZNSt3__116allocator_traitsINS_9allocatorIN7tinyobj10__points_tEEEE9constructB8ue170006IS3_JRKS3_EvvEEvRS4_PT_DpOT0_, symObjAddr: 0x2366C, symBinAddr: 0x100027904, symSize: 0x30 }
  - { offsetInCU: 0x5AD23, offset: 0x5AD23, size: 0x8, addend: 0x0, symName: __ZNSt3__16vectorIN7tinyobj10__points_tENS_9allocatorIS2_EEE7__allocB8ue170006Ev, symObjAddr: 0x2369C, symBinAddr: 0x100027934, symSize: 0x28 }
  - { offsetInCU: 0x5AD49, offset: 0x5AD49, size: 0x8, addend: 0x0, symName: __ZNSt3__16vectorIN7tinyobj10__points_tENS_9allocatorIS2_EEE21_ConstructTransactionD1B8ue170006Ev, symObjAddr: 0x236D8, symBinAddr: 0x100027970, symSize: 0x2C }
  - { offsetInCU: 0x5AD73, offset: 0x5AD73, size: 0x8, addend: 0x0, symName: __ZNSt3__16vectorIN7tinyobj10__points_tENS_9allocatorIS2_EEE21_ConstructTransactionC2B8ue170006ERS5_m, symObjAddr: 0x23704, symBinAddr: 0x10002799C, symSize: 0x4C }
  - { offsetInCU: 0x5ADBB, offset: 0x5ADBB, size: 0x8, addend: 0x0, symName: __ZN7tinyobj10__points_tC1ERKS0_, symObjAddr: 0x2378C, symBinAddr: 0x100027A24, symSize: 0x34 }
  - { offsetInCU: 0x5ADF1, offset: 0x5ADF1, size: 0x8, addend: 0x0, symName: __ZN7tinyobj10__points_tC2ERKS0_, symObjAddr: 0x237C0, symBinAddr: 0x100027A58, symSize: 0x34 }
  - { offsetInCU: 0x5AE27, offset: 0x5AE27, size: 0x8, addend: 0x0, symName: __ZNSt3__117__compressed_pairIPN7tinyobj10__points_tENS_9allocatorIS2_EEE6secondB8ue170006Ev, symObjAddr: 0x237F4, symBinAddr: 0x100027A8C, symSize: 0x24 }
  - { offsetInCU: 0x5AE4D, offset: 0x5AE4D, size: 0x8, addend: 0x0, symName: __ZNSt3__122__compressed_pair_elemINS_9allocatorIN7tinyobj10__points_tEEELi1ELb1EE5__getB8ue170006Ev, symObjAddr: 0x23818, symBinAddr: 0x100027AB0, symSize: 0x14 }
  - { offsetInCU: 0x5AE73, offset: 0x5AE73, size: 0x8, addend: 0x0, symName: __ZNSt3__16vectorIN7tinyobj10__points_tENS_9allocatorIS2_EEE21_ConstructTransactionD2B8ue170006Ev, symObjAddr: 0x2382C, symBinAddr: 0x100027AC4, symSize: 0x20 }
  - { offsetInCU: 0x5AE9D, offset: 0x5AE9D, size: 0x8, addend: 0x0, symName: __ZNKSt3__16vectorIN7tinyobj10__points_tENS_9allocatorIS2_EEE11__recommendB8ue170006Em, symObjAddr: 0x2384C, symBinAddr: 0x100027AE4, symSize: 0xB4 }
  - { offsetInCU: 0x5AEF2, offset: 0x5AEF2, size: 0x8, addend: 0x0, symName: __ZNKSt3__16vectorIN7tinyobj10__points_tENS_9allocatorIS2_EEE4sizeB8ue170006Ev, symObjAddr: 0x23900, symBinAddr: 0x100027B98, symSize: 0x28 }
  - { offsetInCU: 0x5AF18, offset: 0x5AF18, size: 0x8, addend: 0x0, symName: __ZNSt3__114__split_bufferIN7tinyobj10__points_tERNS_9allocatorIS2_EEEC1EmmS5_, symObjAddr: 0x23928, symBinAddr: 0x100027BC0, symSize: 0x44 }
  - { offsetInCU: 0x5AF6E, offset: 0x5AF6E, size: 0x8, addend: 0x0, symName: __ZNSt3__114__split_bufferIN7tinyobj10__points_tERNS_9allocatorIS2_EEED1Ev, symObjAddr: 0x23A7C, symBinAddr: 0x100027D14, symSize: 0x2C }
  - { offsetInCU: 0x5AF9A, offset: 0x5AF9A, size: 0x8, addend: 0x0, symName: __ZNKSt3__16vectorIN7tinyobj10__points_tENS_9allocatorIS2_EEE8max_sizeEv, symObjAddr: 0x23AA8, symBinAddr: 0x100027D40, symSize: 0x60 }
  - { offsetInCU: 0x5AFC2, offset: 0x5AFC2, size: 0x8, addend: 0x0, symName: __ZNKSt3__16vectorIN7tinyobj10__points_tENS_9allocatorIS2_EEE20__throw_length_errorB8ue170006Ev, symObjAddr: 0x23B08, symBinAddr: 0x100027DA0, symSize: 0x1C }
  - { offsetInCU: 0x5AFE8, offset: 0x5AFE8, size: 0x8, addend: 0x0, symName: __ZNKSt3__16vectorIN7tinyobj10__points_tENS_9allocatorIS2_EEE8capacityB8ue170006Ev, symObjAddr: 0x23B24, symBinAddr: 0x100027DBC, symSize: 0x40 }
  - { offsetInCU: 0x5B018, offset: 0x5B018, size: 0x8, addend: 0x0, symName: __ZNSt3__116allocator_traitsINS_9allocatorIN7tinyobj10__points_tEEEE8max_sizeB8ue170006IS4_vvEEmRKS4_, symObjAddr: 0x23B64, symBinAddr: 0x100027DFC, symSize: 0x28 }
  - { offsetInCU: 0x5B044, offset: 0x5B044, size: 0x8, addend: 0x0, symName: __ZNKSt3__16vectorIN7tinyobj10__points_tENS_9allocatorIS2_EEE7__allocB8ue170006Ev, symObjAddr: 0x23B8C, symBinAddr: 0x100027E24, symSize: 0x28 }
  - { offsetInCU: 0x5B06A, offset: 0x5B06A, size: 0x8, addend: 0x0, symName: __ZNKSt3__117__compressed_pairIPN7tinyobj10__points_tENS_9allocatorIS2_EEE6secondB8ue170006Ev, symObjAddr: 0x23BB4, symBinAddr: 0x100027E4C, symSize: 0x24 }
  - { offsetInCU: 0x5B090, offset: 0x5B090, size: 0x8, addend: 0x0, symName: __ZNKSt3__122__compressed_pair_elemINS_9allocatorIN7tinyobj10__points_tEEELi1ELb1EE5__getB8ue170006Ev, symObjAddr: 0x23BD8, symBinAddr: 0x100027E70, symSize: 0x14 }
  - { offsetInCU: 0x5B0B6, offset: 0x5B0B6, size: 0x8, addend: 0x0, symName: __ZNKSt3__16vectorIN7tinyobj10__points_tENS_9allocatorIS2_EEE9__end_capB8ue170006Ev, symObjAddr: 0x23BEC, symBinAddr: 0x100027E84, symSize: 0x28 }
  - { offsetInCU: 0x5B0DC, offset: 0x5B0DC, size: 0x8, addend: 0x0, symName: __ZNKSt3__117__compressed_pairIPN7tinyobj10__points_tENS_9allocatorIS2_EEE5firstB8ue170006Ev, symObjAddr: 0x23C14, symBinAddr: 0x100027EAC, symSize: 0x24 }
  - { offsetInCU: 0x5B102, offset: 0x5B102, size: 0x8, addend: 0x0, symName: __ZNKSt3__122__compressed_pair_elemIPN7tinyobj10__points_tELi0ELb0EE5__getB8ue170006Ev, symObjAddr: 0x23C38, symBinAddr: 0x100027ED0, symSize: 0x14 }
  - { offsetInCU: 0x5B128, offset: 0x5B128, size: 0x8, addend: 0x0, symName: __ZNSt3__114__split_bufferIN7tinyobj10__points_tERNS_9allocatorIS2_EEEC2EmmS5_, symObjAddr: 0x23C4C, symBinAddr: 0x100027EE4, symSize: 0xE0 }
  - { offsetInCU: 0x5B19B, offset: 0x5B19B, size: 0x8, addend: 0x0, symName: __ZNSt3__117__compressed_pairIPN7tinyobj10__points_tERNS_9allocatorIS2_EEEC1B8ue170006IDnS6_EEOT_OT0_, symObjAddr: 0x23D2C, symBinAddr: 0x100027FC4, symSize: 0x3C }
  - { offsetInCU: 0x5B1F3, offset: 0x5B1F3, size: 0x8, addend: 0x0, symName: __ZNSt3__114__split_bufferIN7tinyobj10__points_tERNS_9allocatorIS2_EEE7__allocB8ue170006Ev, symObjAddr: 0x23DA8, symBinAddr: 0x100028040, symSize: 0x28 }
  - { offsetInCU: 0x5B219, offset: 0x5B219, size: 0x8, addend: 0x0, symName: __ZNSt3__114__split_bufferIN7tinyobj10__points_tERNS_9allocatorIS2_EEE9__end_capB8ue170006Ev, symObjAddr: 0x23DD0, symBinAddr: 0x100028068, symSize: 0x28 }
  - { offsetInCU: 0x5B23F, offset: 0x5B23F, size: 0x8, addend: 0x0, symName: __ZNSt3__117__compressed_pairIPN7tinyobj10__points_tERNS_9allocatorIS2_EEEC2B8ue170006IDnS6_EEOT_OT0_, symObjAddr: 0x23DF8, symBinAddr: 0x100028090, symSize: 0x48 }
  - { offsetInCU: 0x5B297, offset: 0x5B297, size: 0x8, addend: 0x0, symName: __ZNSt3__122__compressed_pair_elemIRNS_9allocatorIN7tinyobj10__points_tEEELi1ELb0EEC2B8ue170006IS5_vEEOT_, symObjAddr: 0x23E40, symBinAddr: 0x1000280D8, symSize: 0x20 }
  - { offsetInCU: 0x5B2D9, offset: 0x5B2D9, size: 0x8, addend: 0x0, symName: __ZNSt3__19allocatorIN7tinyobj10__points_tEE8allocateB8ue170006Em, symObjAddr: 0x23E60, symBinAddr: 0x1000280F8, symSize: 0x5C }
  - { offsetInCU: 0x5B30D, offset: 0x5B30D, size: 0x8, addend: 0x0, symName: __ZNSt3__117__compressed_pairIPN7tinyobj10__points_tERNS_9allocatorIS2_EEE6secondB8ue170006Ev, symObjAddr: 0x23EBC, symBinAddr: 0x100028154, symSize: 0x28 }
  - { offsetInCU: 0x5B333, offset: 0x5B333, size: 0x8, addend: 0x0, symName: __ZNSt3__122__compressed_pair_elemIRNS_9allocatorIN7tinyobj10__points_tEEELi1ELb0EE5__getB8ue170006Ev, symObjAddr: 0x23EE4, symBinAddr: 0x10002817C, symSize: 0x18 }
  - { offsetInCU: 0x5B359, offset: 0x5B359, size: 0x8, addend: 0x0, symName: __ZNSt3__117__compressed_pairIPN7tinyobj10__points_tERNS_9allocatorIS2_EEE5firstB8ue170006Ev, symObjAddr: 0x23EFC, symBinAddr: 0x100028194, symSize: 0x24 }
  - { offsetInCU: 0x5B37F, offset: 0x5B37F, size: 0x8, addend: 0x0, symName: __ZNKSt3__16vectorIN7tinyobj10__points_tENS_9allocatorIS2_EEE17__annotate_deleteB8ue170006Ev, symObjAddr: 0x23F20, symBinAddr: 0x1000281B8, symSize: 0xD4 }
  - { offsetInCU: 0x5B3A5, offset: 0x5B3A5, size: 0x8, addend: 0x0, symName: __ZNSt3__116reverse_iteratorIPN7tinyobj10__points_tEEC1B8ue170006ES3_, symObjAddr: 0x24120, symBinAddr: 0x1000283B8, symSize: 0x34 }
  - { offsetInCU: 0x5B3DD, offset: 0x5B3DD, size: 0x8, addend: 0x0, symName: __ZNKSt3__116reverse_iteratorIPN7tinyobj10__points_tEE4baseB8ue170006Ev, symObjAddr: 0x24154, symBinAddr: 0x1000283EC, symSize: 0x18 }
  - { offsetInCU: 0x5B403, offset: 0x5B403, size: 0x8, addend: 0x0, symName: __ZNKSt3__16vectorIN7tinyobj10__points_tENS_9allocatorIS2_EEE14__annotate_newB8ue170006Em, symObjAddr: 0x241A8, symBinAddr: 0x100028440, symSize: 0xC8 }
  - { offsetInCU: 0x5B438, offset: 0x5B438, size: 0x8, addend: 0x0, symName: __ZNKSt3__16vectorIN7tinyobj10__points_tENS_9allocatorIS2_EEE31__annotate_contiguous_containerB8ue170006EPKvS7_S7_S7_, symObjAddr: 0x24270, symBinAddr: 0x100028508, symSize: 0x20 }
  - { offsetInCU: 0x5B48E, offset: 0x5B48E, size: 0x8, addend: 0x0, symName: __ZNKSt3__16vectorIN7tinyobj10__points_tENS_9allocatorIS2_EEE4dataB8ue170006Ev, symObjAddr: 0x24290, symBinAddr: 0x100028528, symSize: 0x28 }
  - { offsetInCU: 0x5B4B4, offset: 0x5B4B4, size: 0x8, addend: 0x0, symName: __ZNSt3__129_AllocatorDestroyRangeReverseINS_9allocatorIN7tinyobj10__points_tEEENS_16reverse_iteratorIPS3_EEEC1B8ue170006ERS4_RS7_SA_, symObjAddr: 0x24304, symBinAddr: 0x10002859C, symSize: 0x44 }
  - { offsetInCU: 0x5B511, offset: 0x5B511, size: 0x8, addend: 0x0, symName: __ZNSt3__116allocator_traitsINS_9allocatorIN7tinyobj10__points_tEEEE9constructB8ue170006IS3_JS3_EvvEEvRS4_PT_DpOT0_, symObjAddr: 0x24390, symBinAddr: 0x100028628, symSize: 0x30 }
  - { offsetInCU: 0x5B566, offset: 0x5B566, size: 0x8, addend: 0x0, symName: __ZNKSt3__116reverse_iteratorIPN7tinyobj10__points_tEEdeB8ue170006Ev, symObjAddr: 0x243E4, symBinAddr: 0x10002867C, symSize: 0x28 }
  - { offsetInCU: 0x5B59A, offset: 0x5B59A, size: 0x8, addend: 0x0, symName: __ZNSt3__116reverse_iteratorIPN7tinyobj10__points_tEEppB8ue170006Ev, symObjAddr: 0x2440C, symBinAddr: 0x1000286A4, symSize: 0x20 }
  - { offsetInCU: 0x5B5C0, offset: 0x5B5C0, size: 0x8, addend: 0x0, symName: __ZNSt3__128__exception_guard_exceptionsINS_29_AllocatorDestroyRangeReverseINS_9allocatorIN7tinyobj10__points_tEEENS_16reverse_iteratorIPS4_EEEEE10__completeB8ue170006Ev, symObjAddr: 0x2442C, symBinAddr: 0x1000286C4, symSize: 0x1C }
  - { offsetInCU: 0x5B5E6, offset: 0x5B5E6, size: 0x8, addend: 0x0, symName: __ZNSt3__128__exception_guard_exceptionsINS_29_AllocatorDestroyRangeReverseINS_9allocatorIN7tinyobj10__points_tEEENS_16reverse_iteratorIPS4_EEEEED1B8ue170006Ev, symObjAddr: 0x24448, symBinAddr: 0x1000286E0, symSize: 0x2C }
  - { offsetInCU: 0x5B610, offset: 0x5B610, size: 0x8, addend: 0x0, symName: __ZNSt3__128__exception_guard_exceptionsINS_29_AllocatorDestroyRangeReverseINS_9allocatorIN7tinyobj10__points_tEEENS_16reverse_iteratorIPS4_EEEEEC1B8ue170006ES9_, symObjAddr: 0x24474, symBinAddr: 0x10002870C, symSize: 0x34 }
  - { offsetInCU: 0x5B649, offset: 0x5B649, size: 0x8, addend: 0x0, symName: __ZNSt3__128__exception_guard_exceptionsINS_29_AllocatorDestroyRangeReverseINS_9allocatorIN7tinyobj10__points_tEEENS_16reverse_iteratorIPS4_EEEEEC2B8ue170006ES9_, symObjAddr: 0x244A8, symBinAddr: 0x100028740, symSize: 0x30 }
  - { offsetInCU: 0x5B682, offset: 0x5B682, size: 0x8, addend: 0x0, symName: __ZNSt3__129_AllocatorDestroyRangeReverseINS_9allocatorIN7tinyobj10__points_tEEENS_16reverse_iteratorIPS3_EEEC2B8ue170006ERS4_RS7_SA_, symObjAddr: 0x244D8, symBinAddr: 0x100028770, symSize: 0x38 }
  - { offsetInCU: 0x5B6D9, offset: 0x5B6D9, size: 0x8, addend: 0x0, symName: __ZN7tinyobj10__points_tC1EOS0_, symObjAddr: 0x2454C, symBinAddr: 0x1000287E4, symSize: 0x34 }
  - { offsetInCU: 0x5B70F, offset: 0x5B70F, size: 0x8, addend: 0x0, symName: __ZN7tinyobj10__points_tC2EOS0_, symObjAddr: 0x24580, symBinAddr: 0x100028818, symSize: 0x34 }
  - { offsetInCU: 0x5B74A, offset: 0x5B74A, size: 0x8, addend: 0x0, symName: __ZNSt3__119__to_address_helperINS_16reverse_iteratorIPN7tinyobj10__points_tEEEvE6__callB8ue170006ERKS5_, symObjAddr: 0x245B4, symBinAddr: 0x10002884C, symSize: 0x38 }
  - { offsetInCU: 0x5B76D, offset: 0x5B76D, size: 0x8, addend: 0x0, symName: __ZNKSt3__116reverse_iteratorIPN7tinyobj10__points_tEEptB8ue170006Ev, symObjAddr: 0x245EC, symBinAddr: 0x100028884, symSize: 0x2C }
  - { offsetInCU: 0x5B793, offset: 0x5B793, size: 0x8, addend: 0x0, symName: __ZNSt3__128__exception_guard_exceptionsINS_29_AllocatorDestroyRangeReverseINS_9allocatorIN7tinyobj10__points_tEEENS_16reverse_iteratorIPS4_EEEEED2B8ue170006Ev, symObjAddr: 0x246BC, symBinAddr: 0x100028954, symSize: 0x50 }
  - { offsetInCU: 0x5B7BD, offset: 0x5B7BD, size: 0x8, addend: 0x0, symName: __ZNKSt3__129_AllocatorDestroyRangeReverseINS_9allocatorIN7tinyobj10__points_tEEENS_16reverse_iteratorIPS3_EEEclB8ue170006Ev, symObjAddr: 0x2470C, symBinAddr: 0x1000289A4, symSize: 0xB4 }
  - { offsetInCU: 0x5B7E4, offset: 0x5B7E4, size: 0x8, addend: 0x0, symName: __ZNSt3__116reverse_iteratorINS0_IPN7tinyobj10__points_tEEEEC1B8ue170006ES4_, symObjAddr: 0x24830, symBinAddr: 0x100028AC8, symSize: 0x3C }
  - { offsetInCU: 0x5B81C, offset: 0x5B81C, size: 0x8, addend: 0x0, symName: __ZNSt3__116allocator_traitsINS_9allocatorIN7tinyobj10__points_tEEEE7destroyB8ue170006IS3_vvEEvRS4_PT_, symObjAddr: 0x248CC, symBinAddr: 0x100028B64, symSize: 0x28 }
  - { offsetInCU: 0x5B857, offset: 0x5B857, size: 0x8, addend: 0x0, symName: __ZNSt3__116reverse_iteratorINS0_IPN7tinyobj10__points_tEEEEppB8ue170006Ev, symObjAddr: 0x24918, symBinAddr: 0x100028BB0, symSize: 0x30 }
  - { offsetInCU: 0x5B87D, offset: 0x5B87D, size: 0x8, addend: 0x0, symName: __ZNKSt3__116reverse_iteratorINS0_IPN7tinyobj10__points_tEEEE4baseB8ue170006Ev, symObjAddr: 0x24948, symBinAddr: 0x100028BE0, symSize: 0x24 }
  - { offsetInCU: 0x5B8A8, offset: 0x5B8A8, size: 0x8, addend: 0x0, symName: __ZNSt3__119__to_address_helperINS_16reverse_iteratorINS1_IPN7tinyobj10__points_tEEEEEvE6__callB8ue170006ERKS6_, symObjAddr: 0x249B4, symBinAddr: 0x100028C4C, symSize: 0x38 }
  - { offsetInCU: 0x5B8CB, offset: 0x5B8CB, size: 0x8, addend: 0x0, symName: __ZNKSt3__116reverse_iteratorINS0_IPN7tinyobj10__points_tEEEEptB8ue170006Ev, symObjAddr: 0x249EC, symBinAddr: 0x100028C84, symSize: 0x4C }
  - { offsetInCU: 0x5B8F1, offset: 0x5B8F1, size: 0x8, addend: 0x0, symName: __ZNSt3__116reverse_iteratorIPN7tinyobj10__points_tEEpLB8ue170006El, symObjAddr: 0x24AE8, symBinAddr: 0x100028D80, symSize: 0x30 }
  - { offsetInCU: 0x5B925, offset: 0x5B925, size: 0x8, addend: 0x0, symName: __ZNSt3__116reverse_iteratorIPN7tinyobj10__points_tEEmmB8ue170006Ev, symObjAddr: 0x24B18, symBinAddr: 0x100028DB0, symSize: 0x20 }
  - { offsetInCU: 0x5B94B, offset: 0x5B94B, size: 0x8, addend: 0x0, symName: __ZNSt3__116reverse_iteratorINS0_IPN7tinyobj10__points_tEEEEC2B8ue170006ES4_, symObjAddr: 0x24B38, symBinAddr: 0x100028DD0, symSize: 0x2C }
  - { offsetInCU: 0x5B983, offset: 0x5B983, size: 0x8, addend: 0x0, symName: __ZNSt3__116reverse_iteratorIPN7tinyobj10__points_tEEC2B8ue170006ES3_, symObjAddr: 0x24B64, symBinAddr: 0x100028DFC, symSize: 0x28 }
  - { offsetInCU: 0x5B9BB, offset: 0x5B9BB, size: 0x8, addend: 0x0, symName: __ZNSt3__114__split_bufferIN7tinyobj10__points_tERNS_9allocatorIS2_EEED2Ev, symObjAddr: 0x24B8C, symBinAddr: 0x100028E24, symSize: 0x8C }
  - { offsetInCU: 0x5B9E7, offset: 0x5B9E7, size: 0x8, addend: 0x0, symName: __ZNSt3__114__split_bufferIN7tinyobj10__points_tERNS_9allocatorIS2_EEE5clearB8ue170006Ev, symObjAddr: 0x24C18, symBinAddr: 0x100028EB0, symSize: 0x28 }
  - { offsetInCU: 0x5BA0D, offset: 0x5BA0D, size: 0x8, addend: 0x0, symName: __ZNSt3__116allocator_traitsINS_9allocatorIN7tinyobj10__points_tEEEE10deallocateB8ue170006ERS4_PS3_m, symObjAddr: 0x24C40, symBinAddr: 0x100028ED8, symSize: 0x34 }
  - { offsetInCU: 0x5BA4F, offset: 0x5BA4F, size: 0x8, addend: 0x0, symName: __ZNKSt3__114__split_bufferIN7tinyobj10__points_tERNS_9allocatorIS2_EEE8capacityB8ue170006Ev, symObjAddr: 0x24C74, symBinAddr: 0x100028F0C, symSize: 0x40 }
  - { offsetInCU: 0x5BA75, offset: 0x5BA75, size: 0x8, addend: 0x0, symName: __ZNSt3__114__split_bufferIN7tinyobj10__points_tERNS_9allocatorIS2_EEE17__destruct_at_endB8ue170006EPS2_, symObjAddr: 0x24CB4, symBinAddr: 0x100028F4C, symSize: 0x2C }
  - { offsetInCU: 0x5BAA9, offset: 0x5BAA9, size: 0x8, addend: 0x0, symName: __ZNSt3__114__split_bufferIN7tinyobj10__points_tERNS_9allocatorIS2_EEE17__destruct_at_endB8ue170006EPS2_NS_17integral_constantIbLb0EEE, symObjAddr: 0x24CE0, symBinAddr: 0x100028F78, symSize: 0x80 }
  - { offsetInCU: 0x5BAE9, offset: 0x5BAE9, size: 0x8, addend: 0x0, symName: __ZNSt3__19allocatorIN7tinyobj10__points_tEE10deallocateB8ue170006EPS2_m, symObjAddr: 0x24D60, symBinAddr: 0x100028FF8, symSize: 0x44 }
  - { offsetInCU: 0x5BB2B, offset: 0x5BB2B, size: 0x8, addend: 0x0, symName: __ZNKSt3__114__split_bufferIN7tinyobj10__points_tERNS_9allocatorIS2_EEE9__end_capB8ue170006Ev, symObjAddr: 0x24DA4, symBinAddr: 0x10002903C, symSize: 0x28 }
  - { offsetInCU: 0x5BB51, offset: 0x5BB51, size: 0x8, addend: 0x0, symName: __ZNKSt3__117__compressed_pairIPN7tinyobj10__points_tERNS_9allocatorIS2_EEE5firstB8ue170006Ev, symObjAddr: 0x24DCC, symBinAddr: 0x100029064, symSize: 0x24 }
  - { offsetInCU: 0x5BB77, offset: 0x5BB77, size: 0x8, addend: 0x0, symName: __ZN7tinyobj10__points_tD2Ev, symObjAddr: 0x24DF0, symBinAddr: 0x100029088, symSize: 0x2C }
  - { offsetInCU: 0x5BBA4, offset: 0x5BBA4, size: 0x8, addend: 0x0, symName: __ZN7tinyobj6face_tC2Ev, symObjAddr: 0x24E1C, symBinAddr: 0x1000290B4, symSize: 0x38 }
  - { offsetInCU: 0x5BBCE, offset: 0x5BBCE, size: 0x8, addend: 0x0, symName: __ZNSt3__16vectorIN7tinyobj6face_tENS_9allocatorIS2_EEE9__end_capB8ue170006Ev, symObjAddr: 0x24E54, symBinAddr: 0x1000290EC, symSize: 0x28 }
  - { offsetInCU: 0x5BBF9, offset: 0x5BBF9, size: 0x8, addend: 0x0, symName: __ZNSt3__16vectorIN7tinyobj6face_tENS_9allocatorIS2_EEE22__construct_one_at_endB8ue170006IJRKS2_EEEvDpOT_, symObjAddr: 0x24E7C, symBinAddr: 0x100029114, symSize: 0x90 }
  - { offsetInCU: 0x5BC48, offset: 0x5BC48, size: 0x8, addend: 0x0, symName: __ZNSt3__16vectorIN7tinyobj6face_tENS_9allocatorIS2_EEE21__push_back_slow_pathIRKS2_EEvOT_, symObjAddr: 0x24F0C, symBinAddr: 0x1000291A4, symSize: 0xD8 }
  - { offsetInCU: 0x5BCA6, offset: 0x5BCA6, size: 0x8, addend: 0x0, symName: __ZNSt3__117__compressed_pairIPN7tinyobj6face_tENS_9allocatorIS2_EEE5firstB8ue170006Ev, symObjAddr: 0x24FE4, symBinAddr: 0x10002927C, symSize: 0x24 }
  - { offsetInCU: 0x5BCCC, offset: 0x5BCCC, size: 0x8, addend: 0x0, symName: __ZNSt3__122__compressed_pair_elemIPN7tinyobj6face_tELi0ELb0EE5__getB8ue170006Ev, symObjAddr: 0x25008, symBinAddr: 0x1000292A0, symSize: 0x14 }
  - { offsetInCU: 0x5BD0B, offset: 0x5BD0B, size: 0x8, addend: 0x0, symName: __ZNSt3__16vectorIN7tinyobj6face_tENS_9allocatorIS2_EEE21_ConstructTransactionC1B8ue170006ERS5_m, symObjAddr: 0x2501C, symBinAddr: 0x1000292B4, symSize: 0x3C }
  - { offsetInCU: 0x5BD53, offset: 0x5BD53, size: 0x8, addend: 0x0, symName: __ZNSt3__116allocator_traitsINS_9allocatorIN7tinyobj6face_tEEEE9constructB8ue170006IS3_JRKS3_EvvEEvRS4_PT_DpOT0_, symObjAddr: 0x25058, symBinAddr: 0x1000292F0, symSize: 0x30 }
  - { offsetInCU: 0x5BDA8, offset: 0x5BDA8, size: 0x8, addend: 0x0, symName: __ZNSt3__16vectorIN7tinyobj6face_tENS_9allocatorIS2_EEE7__allocB8ue170006Ev, symObjAddr: 0x25088, symBinAddr: 0x100029320, symSize: 0x28 }
  - { offsetInCU: 0x5BDCE, offset: 0x5BDCE, size: 0x8, addend: 0x0, symName: __ZNSt3__16vectorIN7tinyobj6face_tENS_9allocatorIS2_EEE21_ConstructTransactionD1B8ue170006Ev, symObjAddr: 0x250C4, symBinAddr: 0x10002935C, symSize: 0x2C }
  - { offsetInCU: 0x5BDF8, offset: 0x5BDF8, size: 0x8, addend: 0x0, symName: __ZNSt3__16vectorIN7tinyobj6face_tENS_9allocatorIS2_EEE21_ConstructTransactionC2B8ue170006ERS5_m, symObjAddr: 0x250F0, symBinAddr: 0x100029388, symSize: 0x44 }
  - { offsetInCU: 0x5BE40, offset: 0x5BE40, size: 0x8, addend: 0x0, symName: __ZN7tinyobj6face_tC1ERKS0_, symObjAddr: 0x25170, symBinAddr: 0x100029408, symSize: 0x34 }
  - { offsetInCU: 0x5BE76, offset: 0x5BE76, size: 0x8, addend: 0x0, symName: __ZN7tinyobj6face_tC2ERKS0_, symObjAddr: 0x251A4, symBinAddr: 0x10002943C, symSize: 0x48 }
  - { offsetInCU: 0x5BEAC, offset: 0x5BEAC, size: 0x8, addend: 0x0, symName: __ZNSt3__117__compressed_pairIPN7tinyobj6face_tENS_9allocatorIS2_EEE6secondB8ue170006Ev, symObjAddr: 0x251EC, symBinAddr: 0x100029484, symSize: 0x24 }
  - { offsetInCU: 0x5BED2, offset: 0x5BED2, size: 0x8, addend: 0x0, symName: __ZNSt3__122__compressed_pair_elemINS_9allocatorIN7tinyobj6face_tEEELi1ELb1EE5__getB8ue170006Ev, symObjAddr: 0x25210, symBinAddr: 0x1000294A8, symSize: 0x14 }
  - { offsetInCU: 0x5BEF8, offset: 0x5BEF8, size: 0x8, addend: 0x0, symName: __ZNSt3__16vectorIN7tinyobj6face_tENS_9allocatorIS2_EEE21_ConstructTransactionD2B8ue170006Ev, symObjAddr: 0x25224, symBinAddr: 0x1000294BC, symSize: 0x20 }
  - { offsetInCU: 0x5BF22, offset: 0x5BF22, size: 0x8, addend: 0x0, symName: __ZNKSt3__16vectorIN7tinyobj6face_tENS_9allocatorIS2_EEE11__recommendB8ue170006Em, symObjAddr: 0x25244, symBinAddr: 0x1000294DC, symSize: 0xB4 }
  - { offsetInCU: 0x5BF77, offset: 0x5BF77, size: 0x8, addend: 0x0, symName: __ZNKSt3__16vectorIN7tinyobj6face_tENS_9allocatorIS2_EEE4sizeB8ue170006Ev, symObjAddr: 0x252F8, symBinAddr: 0x100029590, symSize: 0x28 }
  - { offsetInCU: 0x5BF9D, offset: 0x5BF9D, size: 0x8, addend: 0x0, symName: __ZNSt3__114__split_bufferIN7tinyobj6face_tERNS_9allocatorIS2_EEEC1EmmS5_, symObjAddr: 0x25320, symBinAddr: 0x1000295B8, symSize: 0x44 }
  - { offsetInCU: 0x5BFF3, offset: 0x5BFF3, size: 0x8, addend: 0x0, symName: __ZNSt3__114__split_bufferIN7tinyobj6face_tERNS_9allocatorIS2_EEED1Ev, symObjAddr: 0x25474, symBinAddr: 0x10002970C, symSize: 0x2C }
  - { offsetInCU: 0x5C01F, offset: 0x5C01F, size: 0x8, addend: 0x0, symName: __ZNKSt3__16vectorIN7tinyobj6face_tENS_9allocatorIS2_EEE8max_sizeEv, symObjAddr: 0x254A0, symBinAddr: 0x100029738, symSize: 0x60 }
  - { offsetInCU: 0x5C047, offset: 0x5C047, size: 0x8, addend: 0x0, symName: __ZNKSt3__16vectorIN7tinyobj6face_tENS_9allocatorIS2_EEE20__throw_length_errorB8ue170006Ev, symObjAddr: 0x25500, symBinAddr: 0x100029798, symSize: 0x1C }
  - { offsetInCU: 0x5C06D, offset: 0x5C06D, size: 0x8, addend: 0x0, symName: __ZNKSt3__16vectorIN7tinyobj6face_tENS_9allocatorIS2_EEE8capacityB8ue170006Ev, symObjAddr: 0x2551C, symBinAddr: 0x1000297B4, symSize: 0x40 }
  - { offsetInCU: 0x5C09D, offset: 0x5C09D, size: 0x8, addend: 0x0, symName: __ZNSt3__116allocator_traitsINS_9allocatorIN7tinyobj6face_tEEEE8max_sizeB8ue170006IS4_vvEEmRKS4_, symObjAddr: 0x2555C, symBinAddr: 0x1000297F4, symSize: 0x28 }
  - { offsetInCU: 0x5C0C9, offset: 0x5C0C9, size: 0x8, addend: 0x0, symName: __ZNKSt3__16vectorIN7tinyobj6face_tENS_9allocatorIS2_EEE7__allocB8ue170006Ev, symObjAddr: 0x25584, symBinAddr: 0x10002981C, symSize: 0x28 }
  - { offsetInCU: 0x5C0EF, offset: 0x5C0EF, size: 0x8, addend: 0x0, symName: __ZNKSt3__117__compressed_pairIPN7tinyobj6face_tENS_9allocatorIS2_EEE6secondB8ue170006Ev, symObjAddr: 0x255AC, symBinAddr: 0x100029844, symSize: 0x24 }
  - { offsetInCU: 0x5C115, offset: 0x5C115, size: 0x8, addend: 0x0, symName: __ZNKSt3__122__compressed_pair_elemINS_9allocatorIN7tinyobj6face_tEEELi1ELb1EE5__getB8ue170006Ev, symObjAddr: 0x255D0, symBinAddr: 0x100029868, symSize: 0x14 }
  - { offsetInCU: 0x5C13B, offset: 0x5C13B, size: 0x8, addend: 0x0, symName: __ZNKSt3__16vectorIN7tinyobj6face_tENS_9allocatorIS2_EEE9__end_capB8ue170006Ev, symObjAddr: 0x255E4, symBinAddr: 0x10002987C, symSize: 0x28 }
  - { offsetInCU: 0x5C161, offset: 0x5C161, size: 0x8, addend: 0x0, symName: __ZNKSt3__117__compressed_pairIPN7tinyobj6face_tENS_9allocatorIS2_EEE5firstB8ue170006Ev, symObjAddr: 0x2560C, symBinAddr: 0x1000298A4, symSize: 0x24 }
  - { offsetInCU: 0x5C187, offset: 0x5C187, size: 0x8, addend: 0x0, symName: __ZNKSt3__122__compressed_pair_elemIPN7tinyobj6face_tELi0ELb0EE5__getB8ue170006Ev, symObjAddr: 0x25630, symBinAddr: 0x1000298C8, symSize: 0x14 }
  - { offsetInCU: 0x5C1AD, offset: 0x5C1AD, size: 0x8, addend: 0x0, symName: __ZNSt3__114__split_bufferIN7tinyobj6face_tERNS_9allocatorIS2_EEEC2EmmS5_, symObjAddr: 0x25644, symBinAddr: 0x1000298DC, symSize: 0xD4 }
  - { offsetInCU: 0x5C220, offset: 0x5C220, size: 0x8, addend: 0x0, symName: __ZNSt3__117__compressed_pairIPN7tinyobj6face_tERNS_9allocatorIS2_EEEC1B8ue170006IDnS6_EEOT_OT0_, symObjAddr: 0x25718, symBinAddr: 0x1000299B0, symSize: 0x3C }
  - { offsetInCU: 0x5C278, offset: 0x5C278, size: 0x8, addend: 0x0, symName: __ZNSt3__114__split_bufferIN7tinyobj6face_tERNS_9allocatorIS2_EEE7__allocB8ue170006Ev, symObjAddr: 0x25794, symBinAddr: 0x100029A2C, symSize: 0x28 }
  - { offsetInCU: 0x5C29E, offset: 0x5C29E, size: 0x8, addend: 0x0, symName: __ZNSt3__114__split_bufferIN7tinyobj6face_tERNS_9allocatorIS2_EEE9__end_capB8ue170006Ev, symObjAddr: 0x257BC, symBinAddr: 0x100029A54, symSize: 0x28 }
  - { offsetInCU: 0x5C2C4, offset: 0x5C2C4, size: 0x8, addend: 0x0, symName: __ZNSt3__117__compressed_pairIPN7tinyobj6face_tERNS_9allocatorIS2_EEEC2B8ue170006IDnS6_EEOT_OT0_, symObjAddr: 0x257E4, symBinAddr: 0x100029A7C, symSize: 0x48 }
  - { offsetInCU: 0x5C31C, offset: 0x5C31C, size: 0x8, addend: 0x0, symName: __ZNSt3__122__compressed_pair_elemIRNS_9allocatorIN7tinyobj6face_tEEELi1ELb0EEC2B8ue170006IS5_vEEOT_, symObjAddr: 0x2582C, symBinAddr: 0x100029AC4, symSize: 0x20 }
  - { offsetInCU: 0x5C35E, offset: 0x5C35E, size: 0x8, addend: 0x0, symName: __ZNSt3__19allocatorIN7tinyobj6face_tEE8allocateB8ue170006Em, symObjAddr: 0x2584C, symBinAddr: 0x100029AE4, symSize: 0x58 }
  - { offsetInCU: 0x5C392, offset: 0x5C392, size: 0x8, addend: 0x0, symName: __ZNSt3__117__compressed_pairIPN7tinyobj6face_tERNS_9allocatorIS2_EEE6secondB8ue170006Ev, symObjAddr: 0x258A4, symBinAddr: 0x100029B3C, symSize: 0x28 }
  - { offsetInCU: 0x5C3B8, offset: 0x5C3B8, size: 0x8, addend: 0x0, symName: __ZNSt3__122__compressed_pair_elemIRNS_9allocatorIN7tinyobj6face_tEEELi1ELb0EE5__getB8ue170006Ev, symObjAddr: 0x258CC, symBinAddr: 0x100029B64, symSize: 0x18 }
  - { offsetInCU: 0x5C3DE, offset: 0x5C3DE, size: 0x8, addend: 0x0, symName: __ZNSt3__117__compressed_pairIPN7tinyobj6face_tERNS_9allocatorIS2_EEE5firstB8ue170006Ev, symObjAddr: 0x258E4, symBinAddr: 0x100029B7C, symSize: 0x24 }
  - { offsetInCU: 0x5C404, offset: 0x5C404, size: 0x8, addend: 0x0, symName: __ZNKSt3__16vectorIN7tinyobj6face_tENS_9allocatorIS2_EEE17__annotate_deleteB8ue170006Ev, symObjAddr: 0x25908, symBinAddr: 0x100029BA0, symSize: 0xB8 }
  - { offsetInCU: 0x5C42A, offset: 0x5C42A, size: 0x8, addend: 0x0, symName: __ZNSt3__116reverse_iteratorIPN7tinyobj6face_tEEC1B8ue170006ES3_, symObjAddr: 0x25AEC, symBinAddr: 0x100029D84, symSize: 0x34 }
  - { offsetInCU: 0x5C462, offset: 0x5C462, size: 0x8, addend: 0x0, symName: __ZNKSt3__116reverse_iteratorIPN7tinyobj6face_tEE4baseB8ue170006Ev, symObjAddr: 0x25B20, symBinAddr: 0x100029DB8, symSize: 0x18 }
  - { offsetInCU: 0x5C488, offset: 0x5C488, size: 0x8, addend: 0x0, symName: __ZNKSt3__16vectorIN7tinyobj6face_tENS_9allocatorIS2_EEE14__annotate_newB8ue170006Em, symObjAddr: 0x25B74, symBinAddr: 0x100029E0C, symSize: 0xAC }
  - { offsetInCU: 0x5C4BD, offset: 0x5C4BD, size: 0x8, addend: 0x0, symName: __ZNKSt3__16vectorIN7tinyobj6face_tENS_9allocatorIS2_EEE31__annotate_contiguous_containerB8ue170006EPKvS7_S7_S7_, symObjAddr: 0x25C20, symBinAddr: 0x100029EB8, symSize: 0x20 }
  - { offsetInCU: 0x5C513, offset: 0x5C513, size: 0x8, addend: 0x0, symName: __ZNKSt3__16vectorIN7tinyobj6face_tENS_9allocatorIS2_EEE4dataB8ue170006Ev, symObjAddr: 0x25C40, symBinAddr: 0x100029ED8, symSize: 0x28 }
  - { offsetInCU: 0x5C539, offset: 0x5C539, size: 0x8, addend: 0x0, symName: __ZNSt3__129_AllocatorDestroyRangeReverseINS_9allocatorIN7tinyobj6face_tEEENS_16reverse_iteratorIPS3_EEEC1B8ue170006ERS4_RS7_SA_, symObjAddr: 0x25CB4, symBinAddr: 0x100029F4C, symSize: 0x44 }
  - { offsetInCU: 0x5C596, offset: 0x5C596, size: 0x8, addend: 0x0, symName: __ZNSt3__116allocator_traitsINS_9allocatorIN7tinyobj6face_tEEEE9constructB8ue170006IS3_JS3_EvvEEvRS4_PT_DpOT0_, symObjAddr: 0x25D40, symBinAddr: 0x100029FD8, symSize: 0x30 }
  - { offsetInCU: 0x5C5EB, offset: 0x5C5EB, size: 0x8, addend: 0x0, symName: __ZNKSt3__116reverse_iteratorIPN7tinyobj6face_tEEdeB8ue170006Ev, symObjAddr: 0x25D94, symBinAddr: 0x10002A02C, symSize: 0x28 }
  - { offsetInCU: 0x5C61F, offset: 0x5C61F, size: 0x8, addend: 0x0, symName: __ZNSt3__116reverse_iteratorIPN7tinyobj6face_tEEppB8ue170006Ev, symObjAddr: 0x25DBC, symBinAddr: 0x10002A054, symSize: 0x20 }
  - { offsetInCU: 0x5C645, offset: 0x5C645, size: 0x8, addend: 0x0, symName: __ZNSt3__128__exception_guard_exceptionsINS_29_AllocatorDestroyRangeReverseINS_9allocatorIN7tinyobj6face_tEEENS_16reverse_iteratorIPS4_EEEEE10__completeB8ue170006Ev, symObjAddr: 0x25DDC, symBinAddr: 0x10002A074, symSize: 0x1C }
  - { offsetInCU: 0x5C66B, offset: 0x5C66B, size: 0x8, addend: 0x0, symName: __ZNSt3__128__exception_guard_exceptionsINS_29_AllocatorDestroyRangeReverseINS_9allocatorIN7tinyobj6face_tEEENS_16reverse_iteratorIPS4_EEEEED1B8ue170006Ev, symObjAddr: 0x25DF8, symBinAddr: 0x10002A090, symSize: 0x2C }
  - { offsetInCU: 0x5C695, offset: 0x5C695, size: 0x8, addend: 0x0, symName: __ZNSt3__128__exception_guard_exceptionsINS_29_AllocatorDestroyRangeReverseINS_9allocatorIN7tinyobj6face_tEEENS_16reverse_iteratorIPS4_EEEEEC1B8ue170006ES9_, symObjAddr: 0x25E24, symBinAddr: 0x10002A0BC, symSize: 0x34 }
  - { offsetInCU: 0x5C6CE, offset: 0x5C6CE, size: 0x8, addend: 0x0, symName: __ZNSt3__128__exception_guard_exceptionsINS_29_AllocatorDestroyRangeReverseINS_9allocatorIN7tinyobj6face_tEEENS_16reverse_iteratorIPS4_EEEEEC2B8ue170006ES9_, symObjAddr: 0x25E58, symBinAddr: 0x10002A0F0, symSize: 0x30 }
  - { offsetInCU: 0x5C707, offset: 0x5C707, size: 0x8, addend: 0x0, symName: __ZNSt3__129_AllocatorDestroyRangeReverseINS_9allocatorIN7tinyobj6face_tEEENS_16reverse_iteratorIPS3_EEEC2B8ue170006ERS4_RS7_SA_, symObjAddr: 0x25E88, symBinAddr: 0x10002A120, symSize: 0x38 }
  - { offsetInCU: 0x5C75E, offset: 0x5C75E, size: 0x8, addend: 0x0, symName: __ZN7tinyobj6face_tC1EOS0_, symObjAddr: 0x25EFC, symBinAddr: 0x10002A194, symSize: 0x34 }
  - { offsetInCU: 0x5C794, offset: 0x5C794, size: 0x8, addend: 0x0, symName: __ZN7tinyobj6face_tC2EOS0_, symObjAddr: 0x25F30, symBinAddr: 0x10002A1C8, symSize: 0x48 }
  - { offsetInCU: 0x5C7CF, offset: 0x5C7CF, size: 0x8, addend: 0x0, symName: __ZNSt3__119__to_address_helperINS_16reverse_iteratorIPN7tinyobj6face_tEEEvE6__callB8ue170006ERKS5_, symObjAddr: 0x25F78, symBinAddr: 0x10002A210, symSize: 0x38 }
  - { offsetInCU: 0x5C7F2, offset: 0x5C7F2, size: 0x8, addend: 0x0, symName: __ZNKSt3__116reverse_iteratorIPN7tinyobj6face_tEEptB8ue170006Ev, symObjAddr: 0x25FB0, symBinAddr: 0x10002A248, symSize: 0x2C }
  - { offsetInCU: 0x5C818, offset: 0x5C818, size: 0x8, addend: 0x0, symName: __ZNSt3__128__exception_guard_exceptionsINS_29_AllocatorDestroyRangeReverseINS_9allocatorIN7tinyobj6face_tEEENS_16reverse_iteratorIPS4_EEEEED2B8ue170006Ev, symObjAddr: 0x26078, symBinAddr: 0x10002A310, symSize: 0x50 }
  - { offsetInCU: 0x5C842, offset: 0x5C842, size: 0x8, addend: 0x0, symName: __ZNKSt3__129_AllocatorDestroyRangeReverseINS_9allocatorIN7tinyobj6face_tEEENS_16reverse_iteratorIPS3_EEEclB8ue170006Ev, symObjAddr: 0x260C8, symBinAddr: 0x10002A360, symSize: 0xB4 }
  - { offsetInCU: 0x5C869, offset: 0x5C869, size: 0x8, addend: 0x0, symName: __ZNSt3__116reverse_iteratorINS0_IPN7tinyobj6face_tEEEEC1B8ue170006ES4_, symObjAddr: 0x261EC, symBinAddr: 0x10002A484, symSize: 0x3C }
  - { offsetInCU: 0x5C8A1, offset: 0x5C8A1, size: 0x8, addend: 0x0, symName: __ZNSt3__116allocator_traitsINS_9allocatorIN7tinyobj6face_tEEEE7destroyB8ue170006IS3_vvEEvRS4_PT_, symObjAddr: 0x26288, symBinAddr: 0x10002A520, symSize: 0x28 }
  - { offsetInCU: 0x5C8DC, offset: 0x5C8DC, size: 0x8, addend: 0x0, symName: __ZNSt3__116reverse_iteratorINS0_IPN7tinyobj6face_tEEEEppB8ue170006Ev, symObjAddr: 0x262D4, symBinAddr: 0x10002A56C, symSize: 0x30 }
  - { offsetInCU: 0x5C902, offset: 0x5C902, size: 0x8, addend: 0x0, symName: __ZNKSt3__116reverse_iteratorINS0_IPN7tinyobj6face_tEEEE4baseB8ue170006Ev, symObjAddr: 0x26304, symBinAddr: 0x10002A59C, symSize: 0x24 }
  - { offsetInCU: 0x5C92D, offset: 0x5C92D, size: 0x8, addend: 0x0, symName: __ZNSt3__119__to_address_helperINS_16reverse_iteratorINS1_IPN7tinyobj6face_tEEEEEvE6__callB8ue170006ERKS6_, symObjAddr: 0x26370, symBinAddr: 0x10002A608, symSize: 0x38 }
  - { offsetInCU: 0x5C950, offset: 0x5C950, size: 0x8, addend: 0x0, symName: __ZNKSt3__116reverse_iteratorINS0_IPN7tinyobj6face_tEEEEptB8ue170006Ev, symObjAddr: 0x263A8, symBinAddr: 0x10002A640, symSize: 0x4C }
  - { offsetInCU: 0x5C976, offset: 0x5C976, size: 0x8, addend: 0x0, symName: __ZNSt3__116reverse_iteratorIPN7tinyobj6face_tEEpLB8ue170006El, symObjAddr: 0x264A4, symBinAddr: 0x10002A73C, symSize: 0x30 }
  - { offsetInCU: 0x5C9AA, offset: 0x5C9AA, size: 0x8, addend: 0x0, symName: __ZNSt3__116reverse_iteratorIPN7tinyobj6face_tEEmmB8ue170006Ev, symObjAddr: 0x264D4, symBinAddr: 0x10002A76C, symSize: 0x20 }
  - { offsetInCU: 0x5C9D0, offset: 0x5C9D0, size: 0x8, addend: 0x0, symName: __ZNSt3__116reverse_iteratorINS0_IPN7tinyobj6face_tEEEEC2B8ue170006ES4_, symObjAddr: 0x264F4, symBinAddr: 0x10002A78C, symSize: 0x2C }
  - { offsetInCU: 0x5CA08, offset: 0x5CA08, size: 0x8, addend: 0x0, symName: __ZNSt3__116reverse_iteratorIPN7tinyobj6face_tEEC2B8ue170006ES3_, symObjAddr: 0x26520, symBinAddr: 0x10002A7B8, symSize: 0x28 }
  - { offsetInCU: 0x5CA40, offset: 0x5CA40, size: 0x8, addend: 0x0, symName: __ZNSt3__114__split_bufferIN7tinyobj6face_tERNS_9allocatorIS2_EEED2Ev, symObjAddr: 0x26548, symBinAddr: 0x10002A7E0, symSize: 0x8C }
  - { offsetInCU: 0x5CA6C, offset: 0x5CA6C, size: 0x8, addend: 0x0, symName: __ZNSt3__114__split_bufferIN7tinyobj6face_tERNS_9allocatorIS2_EEE5clearB8ue170006Ev, symObjAddr: 0x265D4, symBinAddr: 0x10002A86C, symSize: 0x28 }
  - { offsetInCU: 0x5CA92, offset: 0x5CA92, size: 0x8, addend: 0x0, symName: __ZNSt3__116allocator_traitsINS_9allocatorIN7tinyobj6face_tEEEE10deallocateB8ue170006ERS4_PS3_m, symObjAddr: 0x265FC, symBinAddr: 0x10002A894, symSize: 0x34 }
  - { offsetInCU: 0x5CAD4, offset: 0x5CAD4, size: 0x8, addend: 0x0, symName: __ZNKSt3__114__split_bufferIN7tinyobj6face_tERNS_9allocatorIS2_EEE8capacityB8ue170006Ev, symObjAddr: 0x26630, symBinAddr: 0x10002A8C8, symSize: 0x40 }
  - { offsetInCU: 0x5CAFA, offset: 0x5CAFA, size: 0x8, addend: 0x0, symName: __ZNSt3__114__split_bufferIN7tinyobj6face_tERNS_9allocatorIS2_EEE17__destruct_at_endB8ue170006EPS2_, symObjAddr: 0x26670, symBinAddr: 0x10002A908, symSize: 0x2C }
  - { offsetInCU: 0x5CB2E, offset: 0x5CB2E, size: 0x8, addend: 0x0, symName: __ZNSt3__114__split_bufferIN7tinyobj6face_tERNS_9allocatorIS2_EEE17__destruct_at_endB8ue170006EPS2_NS_17integral_constantIbLb0EEE, symObjAddr: 0x2669C, symBinAddr: 0x10002A934, symSize: 0x80 }
  - { offsetInCU: 0x5CB6E, offset: 0x5CB6E, size: 0x8, addend: 0x0, symName: __ZNSt3__19allocatorIN7tinyobj6face_tEE10deallocateB8ue170006EPS2_m, symObjAddr: 0x2671C, symBinAddr: 0x10002A9B4, symSize: 0x40 }
  - { offsetInCU: 0x5CBB0, offset: 0x5CBB0, size: 0x8, addend: 0x0, symName: __ZNKSt3__114__split_bufferIN7tinyobj6face_tERNS_9allocatorIS2_EEE9__end_capB8ue170006Ev, symObjAddr: 0x2675C, symBinAddr: 0x10002A9F4, symSize: 0x28 }
  - { offsetInCU: 0x5CBD6, offset: 0x5CBD6, size: 0x8, addend: 0x0, symName: __ZNKSt3__117__compressed_pairIPN7tinyobj6face_tERNS_9allocatorIS2_EEE5firstB8ue170006Ev, symObjAddr: 0x26784, symBinAddr: 0x10002AA1C, symSize: 0x24 }
  - { offsetInCU: 0x5CBFC, offset: 0x5CBFC, size: 0x8, addend: 0x0, symName: __ZN7tinyobj6face_tD2Ev, symObjAddr: 0x267A8, symBinAddr: 0x10002AA40, symSize: 0x30 }
  - { offsetInCU: 0x5CC29, offset: 0x5CC29, size: 0x8, addend: 0x0, symName: __ZNK7tinyobj9PrimGroup7IsEmptyEv, symObjAddr: 0x267D8, symBinAddr: 0x10002AA70, symSize: 0x70 }
  - { offsetInCU: 0x5CC4F, offset: 0x5CC4F, size: 0x8, addend: 0x0, symName: __ZNKSt3__16vectorIN7tinyobj6face_tENS_9allocatorIS2_EEE5emptyB8ue170006Ev, symObjAddr: 0x26848, symBinAddr: 0x10002AAE0, symSize: 0x28 }
  - { offsetInCU: 0x5CC75, offset: 0x5CC75, size: 0x8, addend: 0x0, symName: __ZNKSt3__16vectorIN7tinyobj6face_tENS_9allocatorIS2_EEEixB8ue170006Em, symObjAddr: 0x26870, symBinAddr: 0x10002AB08, symSize: 0x24 }
  - { offsetInCU: 0x5CCAC, offset: 0x5CCAC, size: 0x8, addend: 0x0, symName: __ZNKSt3__16vectorIN7tinyobj14vertex_index_tENS_9allocatorIS2_EEEixB8ue170006Em, symObjAddr: 0x26894, symBinAddr: 0x10002AB2C, symSize: 0x2C }
  - { offsetInCU: 0x5CCE3, offset: 0x5CCE3, size: 0x8, addend: 0x0, symName: __ZNKSt3__16vectorIfNS_9allocatorIfEEEixB8ue170006Em, symObjAddr: 0x268C0, symBinAddr: 0x10002AB58, symSize: 0x24 }
  - { offsetInCU: 0x5CD1A, offset: 0x5CD1A, size: 0x8, addend: 0x0, symName: __ZNSt3__16vectorIiNS_9allocatorIiEEE9push_backB8ue170006ERKi, symObjAddr: 0x268E4, symBinAddr: 0x10002AB7C, symSize: 0x6C }
  - { offsetInCU: 0x5CD51, offset: 0x5CD51, size: 0x8, addend: 0x0, symName: __ZNSt3__16vectorIjNS_9allocatorIjEEE9push_backB8ue170006ERKj, symObjAddr: 0x26950, symBinAddr: 0x10002ABE8, symSize: 0x6C }
  - { offsetInCU: 0x5CD88, offset: 0x5CD88, size: 0x8, addend: 0x0, symName: __Z4fabsB8ue170006f, symObjAddr: 0x269BC, symBinAddr: 0x10002AC54, symSize: 0x18 }
  - { offsetInCU: 0x5CDB6, offset: 0x5CDB6, size: 0x8, addend: 0x0, symName: __ZNSt3__114numeric_limitsIfE7epsilonB8ue170006Ev, symObjAddr: 0x269D4, symBinAddr: 0x10002AC6C, symSize: 0x14 }
  - { offsetInCU: 0x5CDCA, offset: 0x5CDCA, size: 0x8, addend: 0x0, symName: __ZNSt3__16vectorIN7tinyobj14vertex_index_tENS_9allocatorIS2_EEEixB8ue170006Em, symObjAddr: 0x269E8, symBinAddr: 0x10002AC80, symSize: 0x2C }
  - { offsetInCU: 0x5CE01, offset: 0x5CE01, size: 0x8, addend: 0x0, symName: __ZNSt3__16vectorIN7tinyobj14vertex_index_tENS_9allocatorIS2_EEE8pop_backEv, symObjAddr: 0x26B58, symBinAddr: 0x10002ADF0, symSize: 0x2C }
  - { offsetInCU: 0x5CE29, offset: 0x5CE29, size: 0x8, addend: 0x0, symName: __ZNSt3__16vectorIN7tinyobj5tag_tENS_9allocatorIS2_EEEaSB8ue170006ERKS5_, symObjAddr: 0x26B84, symBinAddr: 0x10002AE1C, symSize: 0x68 }
  - { offsetInCU: 0x5CE60, offset: 0x5CE60, size: 0x8, addend: 0x0, symName: __ZNKSt3__16vectorIN7tinyobj8__line_tENS_9allocatorIS2_EEE5emptyB8ue170006Ev, symObjAddr: 0x26BEC, symBinAddr: 0x10002AE84, symSize: 0x28 }
  - { offsetInCU: 0x5CE86, offset: 0x5CE86, size: 0x8, addend: 0x0, symName: __ZNKSt3__16vectorIN7tinyobj8__line_tENS_9allocatorIS2_EEEixB8ue170006Em, symObjAddr: 0x26C14, symBinAddr: 0x10002AEAC, symSize: 0x2C }
  - { offsetInCU: 0x5CEBD, offset: 0x5CEBD, size: 0x8, addend: 0x0, symName: __ZNSt3__16vectorIiNS_9allocatorIiEEE9push_backB8ue170006EOi, symObjAddr: 0x26C40, symBinAddr: 0x10002AED8, symSize: 0x6C }
  - { offsetInCU: 0x5CEF4, offset: 0x5CEF4, size: 0x8, addend: 0x0, symName: __ZNKSt3__16vectorIN7tinyobj10__points_tENS_9allocatorIS2_EEE5emptyB8ue170006Ev, symObjAddr: 0x26CAC, symBinAddr: 0x10002AF44, symSize: 0x28 }
  - { offsetInCU: 0x5CF1A, offset: 0x5CF1A, size: 0x8, addend: 0x0, symName: __ZNKSt3__16vectorIN7tinyobj10__points_tENS_9allocatorIS2_EEEixB8ue170006Em, symObjAddr: 0x26CD4, symBinAddr: 0x10002AF6C, symSize: 0x2C }
  - { offsetInCU: 0x5CF51, offset: 0x5CF51, size: 0x8, addend: 0x0, symName: __ZNSt3__16vectorIiNS_9allocatorIiEEE9__end_capB8ue170006Ev, symObjAddr: 0x26D00, symBinAddr: 0x10002AF98, symSize: 0x28 }
  - { offsetInCU: 0x5CF7C, offset: 0x5CF7C, size: 0x8, addend: 0x0, symName: __ZNSt3__16vectorIiNS_9allocatorIiEEE22__construct_one_at_endB8ue170006IJRKiEEEvDpOT_, symObjAddr: 0x26D28, symBinAddr: 0x10002AFC0, symSize: 0x90 }
  - { offsetInCU: 0x5CFCB, offset: 0x5CFCB, size: 0x8, addend: 0x0, symName: __ZNSt3__16vectorIiNS_9allocatorIiEEE21__push_back_slow_pathIRKiEEvOT_, symObjAddr: 0x26DB8, symBinAddr: 0x10002B050, symSize: 0xD8 }
  - { offsetInCU: 0x5D029, offset: 0x5D029, size: 0x8, addend: 0x0, symName: __ZNSt3__117__compressed_pairIPiNS_9allocatorIiEEE5firstB8ue170006Ev, symObjAddr: 0x26E90, symBinAddr: 0x10002B128, symSize: 0x24 }
  - { offsetInCU: 0x5D04F, offset: 0x5D04F, size: 0x8, addend: 0x0, symName: __ZNSt3__122__compressed_pair_elemIPiLi0ELb0EE5__getB8ue170006Ev, symObjAddr: 0x26EB4, symBinAddr: 0x10002B14C, symSize: 0x14 }
  - { offsetInCU: 0x5D08E, offset: 0x5D08E, size: 0x8, addend: 0x0, symName: __ZNSt3__16vectorIiNS_9allocatorIiEEE21_ConstructTransactionC1B8ue170006ERS3_m, symObjAddr: 0x26EC8, symBinAddr: 0x10002B160, symSize: 0x3C }
  - { offsetInCU: 0x5D0D6, offset: 0x5D0D6, size: 0x8, addend: 0x0, symName: __ZNSt3__116allocator_traitsINS_9allocatorIiEEE9constructB8ue170006IiJRKiEvvEEvRS2_PT_DpOT0_, symObjAddr: 0x26F04, symBinAddr: 0x10002B19C, symSize: 0x30 }
  - { offsetInCU: 0x5D12B, offset: 0x5D12B, size: 0x8, addend: 0x0, symName: __ZNSt3__16vectorIiNS_9allocatorIiEEE7__allocB8ue170006Ev, symObjAddr: 0x26F34, symBinAddr: 0x10002B1CC, symSize: 0x28 }
  - { offsetInCU: 0x5D151, offset: 0x5D151, size: 0x8, addend: 0x0, symName: __ZNSt3__16vectorIiNS_9allocatorIiEEE21_ConstructTransactionD1B8ue170006Ev, symObjAddr: 0x26F70, symBinAddr: 0x10002B208, symSize: 0x2C }
  - { offsetInCU: 0x5D17B, offset: 0x5D17B, size: 0x8, addend: 0x0, symName: __ZNSt3__16vectorIiNS_9allocatorIiEEE21_ConstructTransactionC2B8ue170006ERS3_m, symObjAddr: 0x26F9C, symBinAddr: 0x10002B234, symSize: 0x44 }
  - { offsetInCU: 0x5D1C3, offset: 0x5D1C3, size: 0x8, addend: 0x0, symName: __ZNSt3__117__compressed_pairIPiNS_9allocatorIiEEE6secondB8ue170006Ev, symObjAddr: 0x2700C, symBinAddr: 0x10002B2A4, symSize: 0x24 }
  - { offsetInCU: 0x5D1E9, offset: 0x5D1E9, size: 0x8, addend: 0x0, symName: __ZNSt3__122__compressed_pair_elemINS_9allocatorIiEELi1ELb1EE5__getB8ue170006Ev, symObjAddr: 0x27030, symBinAddr: 0x10002B2C8, symSize: 0x14 }
  - { offsetInCU: 0x5D20F, offset: 0x5D20F, size: 0x8, addend: 0x0, symName: __ZNSt3__16vectorIiNS_9allocatorIiEEE21_ConstructTransactionD2B8ue170006Ev, symObjAddr: 0x27044, symBinAddr: 0x10002B2DC, symSize: 0x20 }
  - { offsetInCU: 0x5D239, offset: 0x5D239, size: 0x8, addend: 0x0, symName: __ZNKSt3__16vectorIiNS_9allocatorIiEEE11__recommendB8ue170006Em, symObjAddr: 0x27064, symBinAddr: 0x10002B2FC, symSize: 0xB4 }
  - { offsetInCU: 0x5D28E, offset: 0x5D28E, size: 0x8, addend: 0x0, symName: __ZNKSt3__16vectorIiNS_9allocatorIiEEE4sizeB8ue170006Ev, symObjAddr: 0x27118, symBinAddr: 0x10002B3B0, symSize: 0x28 }
  - { offsetInCU: 0x5D2B4, offset: 0x5D2B4, size: 0x8, addend: 0x0, symName: __ZNSt3__114__split_bufferIiRNS_9allocatorIiEEEC1EmmS3_, symObjAddr: 0x27140, symBinAddr: 0x10002B3D8, symSize: 0x44 }
  - { offsetInCU: 0x5D30A, offset: 0x5D30A, size: 0x8, addend: 0x0, symName: __ZNSt3__114__split_bufferIiRNS_9allocatorIiEEED1Ev, symObjAddr: 0x27294, symBinAddr: 0x10002B52C, symSize: 0x2C }
  - { offsetInCU: 0x5D336, offset: 0x5D336, size: 0x8, addend: 0x0, symName: __ZNKSt3__16vectorIiNS_9allocatorIiEEE8max_sizeEv, symObjAddr: 0x272C0, symBinAddr: 0x10002B558, symSize: 0x60 }
  - { offsetInCU: 0x5D35E, offset: 0x5D35E, size: 0x8, addend: 0x0, symName: __ZNKSt3__16vectorIiNS_9allocatorIiEEE20__throw_length_errorB8ue170006Ev, symObjAddr: 0x27320, symBinAddr: 0x10002B5B8, symSize: 0x1C }
  - { offsetInCU: 0x5D384, offset: 0x5D384, size: 0x8, addend: 0x0, symName: __ZNKSt3__16vectorIiNS_9allocatorIiEEE8capacityB8ue170006Ev, symObjAddr: 0x2733C, symBinAddr: 0x10002B5D4, symSize: 0x40 }
  - { offsetInCU: 0x5D3B4, offset: 0x5D3B4, size: 0x8, addend: 0x0, symName: __ZNSt3__116allocator_traitsINS_9allocatorIiEEE8max_sizeB8ue170006IS2_vvEEmRKS2_, symObjAddr: 0x2737C, symBinAddr: 0x10002B614, symSize: 0x28 }
  - { offsetInCU: 0x5D3E0, offset: 0x5D3E0, size: 0x8, addend: 0x0, symName: __ZNKSt3__16vectorIiNS_9allocatorIiEEE7__allocB8ue170006Ev, symObjAddr: 0x273A4, symBinAddr: 0x10002B63C, symSize: 0x28 }
  - { offsetInCU: 0x5D406, offset: 0x5D406, size: 0x8, addend: 0x0, symName: __ZNKSt3__117__compressed_pairIPiNS_9allocatorIiEEE6secondB8ue170006Ev, symObjAddr: 0x273CC, symBinAddr: 0x10002B664, symSize: 0x24 }
  - { offsetInCU: 0x5D42C, offset: 0x5D42C, size: 0x8, addend: 0x0, symName: __ZNKSt3__122__compressed_pair_elemINS_9allocatorIiEELi1ELb1EE5__getB8ue170006Ev, symObjAddr: 0x273F0, symBinAddr: 0x10002B688, symSize: 0x14 }
  - { offsetInCU: 0x5D452, offset: 0x5D452, size: 0x8, addend: 0x0, symName: __ZNKSt3__16vectorIiNS_9allocatorIiEEE9__end_capB8ue170006Ev, symObjAddr: 0x27404, symBinAddr: 0x10002B69C, symSize: 0x28 }
  - { offsetInCU: 0x5D478, offset: 0x5D478, size: 0x8, addend: 0x0, symName: __ZNKSt3__117__compressed_pairIPiNS_9allocatorIiEEE5firstB8ue170006Ev, symObjAddr: 0x2742C, symBinAddr: 0x10002B6C4, symSize: 0x24 }
  - { offsetInCU: 0x5D49E, offset: 0x5D49E, size: 0x8, addend: 0x0, symName: __ZNKSt3__122__compressed_pair_elemIPiLi0ELb0EE5__getB8ue170006Ev, symObjAddr: 0x27450, symBinAddr: 0x10002B6E8, symSize: 0x14 }
  - { offsetInCU: 0x5D4C4, offset: 0x5D4C4, size: 0x8, addend: 0x0, symName: __ZNSt3__114__split_bufferIiRNS_9allocatorIiEEEC2EmmS3_, symObjAddr: 0x27464, symBinAddr: 0x10002B6FC, symSize: 0xD4 }
  - { offsetInCU: 0x5D537, offset: 0x5D537, size: 0x8, addend: 0x0, symName: __ZNSt3__117__compressed_pairIPiRNS_9allocatorIiEEEC1B8ue170006IDnS4_EEOT_OT0_, symObjAddr: 0x27538, symBinAddr: 0x10002B7D0, symSize: 0x3C }
  - { offsetInCU: 0x5D58F, offset: 0x5D58F, size: 0x8, addend: 0x0, symName: __ZNSt3__114__split_bufferIiRNS_9allocatorIiEEE7__allocB8ue170006Ev, symObjAddr: 0x275B4, symBinAddr: 0x10002B84C, symSize: 0x28 }
  - { offsetInCU: 0x5D5B5, offset: 0x5D5B5, size: 0x8, addend: 0x0, symName: __ZNSt3__114__split_bufferIiRNS_9allocatorIiEEE9__end_capB8ue170006Ev, symObjAddr: 0x275DC, symBinAddr: 0x10002B874, symSize: 0x28 }
  - { offsetInCU: 0x5D5DB, offset: 0x5D5DB, size: 0x8, addend: 0x0, symName: __ZNSt3__117__compressed_pairIPiRNS_9allocatorIiEEEC2B8ue170006IDnS4_EEOT_OT0_, symObjAddr: 0x27604, symBinAddr: 0x10002B89C, symSize: 0x48 }
  - { offsetInCU: 0x5D633, offset: 0x5D633, size: 0x8, addend: 0x0, symName: __ZNSt3__122__compressed_pair_elemIRNS_9allocatorIiEELi1ELb0EEC2B8ue170006IS3_vEEOT_, symObjAddr: 0x2764C, symBinAddr: 0x10002B8E4, symSize: 0x20 }
  - { offsetInCU: 0x5D675, offset: 0x5D675, size: 0x8, addend: 0x0, symName: __ZNSt3__19allocatorIiE8allocateB8ue170006Em, symObjAddr: 0x2766C, symBinAddr: 0x10002B904, symSize: 0x58 }
  - { offsetInCU: 0x5D6A9, offset: 0x5D6A9, size: 0x8, addend: 0x0, symName: __ZNSt3__117__compressed_pairIPiRNS_9allocatorIiEEE6secondB8ue170006Ev, symObjAddr: 0x276C4, symBinAddr: 0x10002B95C, symSize: 0x28 }
  - { offsetInCU: 0x5D6CF, offset: 0x5D6CF, size: 0x8, addend: 0x0, symName: __ZNSt3__122__compressed_pair_elemIRNS_9allocatorIiEELi1ELb0EE5__getB8ue170006Ev, symObjAddr: 0x276EC, symBinAddr: 0x10002B984, symSize: 0x18 }
  - { offsetInCU: 0x5D6F5, offset: 0x5D6F5, size: 0x8, addend: 0x0, symName: __ZNSt3__117__compressed_pairIPiRNS_9allocatorIiEEE5firstB8ue170006Ev, symObjAddr: 0x27704, symBinAddr: 0x10002B99C, symSize: 0x24 }
  - { offsetInCU: 0x5D71B, offset: 0x5D71B, size: 0x8, addend: 0x0, symName: __ZNKSt3__16vectorIiNS_9allocatorIiEEE17__annotate_deleteB8ue170006Ev, symObjAddr: 0x27728, symBinAddr: 0x10002B9C0, symSize: 0xB8 }
  - { offsetInCU: 0x5D741, offset: 0x5D741, size: 0x8, addend: 0x0, symName: __ZNSt3__116reverse_iteratorIPiEC1B8ue170006ES1_, symObjAddr: 0x27858, symBinAddr: 0x10002BAF0, symSize: 0x34 }
  - { offsetInCU: 0x5D779, offset: 0x5D779, size: 0x8, addend: 0x0, symName: __ZNKSt3__116reverse_iteratorIPiE4baseB8ue170006Ev, symObjAddr: 0x2788C, symBinAddr: 0x10002BB24, symSize: 0x18 }
  - { offsetInCU: 0x5D79F, offset: 0x5D79F, size: 0x8, addend: 0x0, symName: __ZNKSt3__16vectorIiNS_9allocatorIiEEE14__annotate_newB8ue170006Em, symObjAddr: 0x278E0, symBinAddr: 0x10002BB78, symSize: 0xAC }
  - { offsetInCU: 0x5D7D4, offset: 0x5D7D4, size: 0x8, addend: 0x0, symName: __ZNKSt3__16vectorIiNS_9allocatorIiEEE31__annotate_contiguous_containerB8ue170006EPKvS5_S5_S5_, symObjAddr: 0x2798C, symBinAddr: 0x10002BC24, symSize: 0x20 }
  - { offsetInCU: 0x5D82A, offset: 0x5D82A, size: 0x8, addend: 0x0, symName: __ZNKSt3__16vectorIiNS_9allocatorIiEEE4dataB8ue170006Ev, symObjAddr: 0x279AC, symBinAddr: 0x10002BC44, symSize: 0x28 }
  - { offsetInCU: 0x5D86A, offset: 0x5D86A, size: 0x8, addend: 0x0, symName: __ZNKSt3__111__move_loopINS_17_ClassicAlgPolicyEEclB8ue170006INS_16reverse_iteratorIPiEES6_S6_EENS_4pairIT_T1_EES8_T0_S9_, symObjAddr: 0x27C8C, symBinAddr: 0x10002BF24, symSize: 0xA0 }
  - { offsetInCU: 0x5D8D5, offset: 0x5D8D5, size: 0x8, addend: 0x0, symName: __ZNSt3__119__unwrap_range_implINS_16reverse_iteratorIPiEES3_E8__unwrapB8ue170006ES3_S3_, symObjAddr: 0x27E78, symBinAddr: 0x10002C110, symSize: 0x84 }
  - { offsetInCU: 0x5D90C, offset: 0x5D90C, size: 0x8, addend: 0x0, symName: __ZNSt3__14pairINS_16reverse_iteratorIPiEES3_EC1B8ue170006IS3_S3_LPv0EEEOT_OT0_, symObjAddr: 0x27EFC, symBinAddr: 0x10002C194, symSize: 0x3C }
  - { offsetInCU: 0x5D96A, offset: 0x5D96A, size: 0x8, addend: 0x0, symName: __ZNSt3__14pairINS_16reverse_iteratorIPiEES3_EC2B8ue170006IS3_S3_LPv0EEEOT_OT0_, symObjAddr: 0x27F38, symBinAddr: 0x10002C1D0, symSize: 0x34 }
  - { offsetInCU: 0x5D9C8, offset: 0x5D9C8, size: 0x8, addend: 0x0, symName: __ZNSt3__18_IterOpsINS_17_ClassicAlgPolicyEE11__iter_moveB8ue170006IRNS_16reverse_iteratorIPiEEEENS_9enable_ifIXsr12is_referenceIDTdeclsr3stdE7declvalIRT_EEEEE5valueEDTclsr3stdE4movedeclsr3stdE7declvalISA_EEEEE4typeEOS9_, symObjAddr: 0x27FB4, symBinAddr: 0x10002C24C, symSize: 0x28 }
  - { offsetInCU: 0x5D9F4, offset: 0x5D9F4, size: 0x8, addend: 0x0, symName: __ZNKSt3__116reverse_iteratorIPiEdeB8ue170006Ev, symObjAddr: 0x27FDC, symBinAddr: 0x10002C274, symSize: 0x28 }
  - { offsetInCU: 0x5DA28, offset: 0x5DA28, size: 0x8, addend: 0x0, symName: __ZNSt3__116reverse_iteratorIPiEppB8ue170006Ev, symObjAddr: 0x28004, symBinAddr: 0x10002C29C, symSize: 0x20 }
  - { offsetInCU: 0x5DA4E, offset: 0x5DA4E, size: 0x8, addend: 0x0, symName: __ZNSt3__18_IterOpsINS_17_ClassicAlgPolicyEE25__validate_iter_referenceB8ue170006IRNS_16reverse_iteratorIPiEEEEvv, symObjAddr: 0x28024, symBinAddr: 0x10002C2BC, symSize: 0x4 }
  - { offsetInCU: 0x5DA6C, offset: 0x5DA6C, size: 0x8, addend: 0x0, symName: __ZNSt3__118__unwrap_iter_implINS_16reverse_iteratorIPiEELb0EE8__unwrapB8ue170006ES3_, symObjAddr: 0x28028, symBinAddr: 0x10002C2C0, symSize: 0x24 }
  - { offsetInCU: 0x5DA8F, offset: 0x5DA8F, size: 0x8, addend: 0x0, symName: __ZNSt3__119__unwrap_range_implINS_16reverse_iteratorIPiEES3_E8__rewrapB8ue170006ES3_S3_, symObjAddr: 0x2804C, symBinAddr: 0x10002C2E4, symSize: 0x5C }
  - { offsetInCU: 0x5DAC0, offset: 0x5DAC0, size: 0x8, addend: 0x0, symName: __ZNSt3__118__unwrap_iter_implINS_16reverse_iteratorIPiEELb0EE8__rewrapB8ue170006ES3_S3_, symObjAddr: 0x280A8, symBinAddr: 0x10002C340, symSize: 0x2C }
  - { offsetInCU: 0x5DAED, offset: 0x5DAED, size: 0x8, addend: 0x0, symName: __ZNSt3__116reverse_iteratorIPiEC2B8ue170006ES1_, symObjAddr: 0x280D4, symBinAddr: 0x10002C36C, symSize: 0x28 }
  - { offsetInCU: 0x5DB25, offset: 0x5DB25, size: 0x8, addend: 0x0, symName: __ZNSt3__114__split_bufferIiRNS_9allocatorIiEEED2Ev, symObjAddr: 0x280FC, symBinAddr: 0x10002C394, symSize: 0x8C }
  - { offsetInCU: 0x5DB51, offset: 0x5DB51, size: 0x8, addend: 0x0, symName: __ZNSt3__114__split_bufferIiRNS_9allocatorIiEEE5clearB8ue170006Ev, symObjAddr: 0x28188, symBinAddr: 0x10002C420, symSize: 0x28 }
  - { offsetInCU: 0x5DB77, offset: 0x5DB77, size: 0x8, addend: 0x0, symName: __ZNSt3__116allocator_traitsINS_9allocatorIiEEE10deallocateB8ue170006ERS2_Pim, symObjAddr: 0x281B0, symBinAddr: 0x10002C448, symSize: 0x34 }
  - { offsetInCU: 0x5DBB9, offset: 0x5DBB9, size: 0x8, addend: 0x0, symName: __ZNKSt3__114__split_bufferIiRNS_9allocatorIiEEE8capacityB8ue170006Ev, symObjAddr: 0x281E4, symBinAddr: 0x10002C47C, symSize: 0x40 }
  - { offsetInCU: 0x5DBDF, offset: 0x5DBDF, size: 0x8, addend: 0x0, symName: __ZNSt3__114__split_bufferIiRNS_9allocatorIiEEE17__destruct_at_endB8ue170006EPi, symObjAddr: 0x28224, symBinAddr: 0x10002C4BC, symSize: 0x2C }
  - { offsetInCU: 0x5DC13, offset: 0x5DC13, size: 0x8, addend: 0x0, symName: __ZNSt3__114__split_bufferIiRNS_9allocatorIiEEE17__destruct_at_endB8ue170006EPiNS_17integral_constantIbLb0EEE, symObjAddr: 0x28250, symBinAddr: 0x10002C4E8, symSize: 0x80 }
  - { offsetInCU: 0x5DC53, offset: 0x5DC53, size: 0x8, addend: 0x0, symName: __ZNSt3__116allocator_traitsINS_9allocatorIiEEE7destroyB8ue170006IivvEEvRS2_PT_, symObjAddr: 0x282D0, symBinAddr: 0x10002C568, symSize: 0x28 }
  - { offsetInCU: 0x5DC8E, offset: 0x5DC8E, size: 0x8, addend: 0x0, symName: __ZNSt3__19allocatorIiE10deallocateB8ue170006EPim, symObjAddr: 0x2832C, symBinAddr: 0x10002C5C4, symSize: 0x40 }
  - { offsetInCU: 0x5DCD0, offset: 0x5DCD0, size: 0x8, addend: 0x0, symName: __ZNKSt3__114__split_bufferIiRNS_9allocatorIiEEE9__end_capB8ue170006Ev, symObjAddr: 0x2836C, symBinAddr: 0x10002C604, symSize: 0x28 }
  - { offsetInCU: 0x5DCF6, offset: 0x5DCF6, size: 0x8, addend: 0x0, symName: __ZNKSt3__117__compressed_pairIPiRNS_9allocatorIiEEE5firstB8ue170006Ev, symObjAddr: 0x28394, symBinAddr: 0x10002C62C, symSize: 0x24 }
  - { offsetInCU: 0x5DD1C, offset: 0x5DD1C, size: 0x8, addend: 0x0, symName: __ZNSt3__16vectorIjNS_9allocatorIjEEE9__end_capB8ue170006Ev, symObjAddr: 0x283B8, symBinAddr: 0x10002C650, symSize: 0x28 }
  - { offsetInCU: 0x5DD47, offset: 0x5DD47, size: 0x8, addend: 0x0, symName: __ZNSt3__16vectorIjNS_9allocatorIjEEE22__construct_one_at_endB8ue170006IJRKjEEEvDpOT_, symObjAddr: 0x283E0, symBinAddr: 0x10002C678, symSize: 0x90 }
  - { offsetInCU: 0x5DD96, offset: 0x5DD96, size: 0x8, addend: 0x0, symName: __ZNSt3__16vectorIjNS_9allocatorIjEEE21__push_back_slow_pathIRKjEEvOT_, symObjAddr: 0x28470, symBinAddr: 0x10002C708, symSize: 0xD8 }
  - { offsetInCU: 0x5DDF4, offset: 0x5DDF4, size: 0x8, addend: 0x0, symName: __ZNSt3__117__compressed_pairIPjNS_9allocatorIjEEE5firstB8ue170006Ev, symObjAddr: 0x28548, symBinAddr: 0x10002C7E0, symSize: 0x24 }
  - { offsetInCU: 0x5DE1A, offset: 0x5DE1A, size: 0x8, addend: 0x0, symName: __ZNSt3__122__compressed_pair_elemIPjLi0ELb0EE5__getB8ue170006Ev, symObjAddr: 0x2856C, symBinAddr: 0x10002C804, symSize: 0x14 }
  - { offsetInCU: 0x5DE59, offset: 0x5DE59, size: 0x8, addend: 0x0, symName: __ZNSt3__16vectorIjNS_9allocatorIjEEE21_ConstructTransactionC1B8ue170006ERS3_m, symObjAddr: 0x28580, symBinAddr: 0x10002C818, symSize: 0x3C }
  - { offsetInCU: 0x5DEA1, offset: 0x5DEA1, size: 0x8, addend: 0x0, symName: __ZNSt3__116allocator_traitsINS_9allocatorIjEEE9constructB8ue170006IjJRKjEvvEEvRS2_PT_DpOT0_, symObjAddr: 0x285BC, symBinAddr: 0x10002C854, symSize: 0x30 }
  - { offsetInCU: 0x5DEF6, offset: 0x5DEF6, size: 0x8, addend: 0x0, symName: __ZNSt3__16vectorIjNS_9allocatorIjEEE7__allocB8ue170006Ev, symObjAddr: 0x285EC, symBinAddr: 0x10002C884, symSize: 0x28 }
  - { offsetInCU: 0x5DF1C, offset: 0x5DF1C, size: 0x8, addend: 0x0, symName: __ZNSt3__16vectorIjNS_9allocatorIjEEE21_ConstructTransactionD1B8ue170006Ev, symObjAddr: 0x28628, symBinAddr: 0x10002C8C0, symSize: 0x2C }
  - { offsetInCU: 0x5DF46, offset: 0x5DF46, size: 0x8, addend: 0x0, symName: __ZNSt3__16vectorIjNS_9allocatorIjEEE21_ConstructTransactionC2B8ue170006ERS3_m, symObjAddr: 0x28654, symBinAddr: 0x10002C8EC, symSize: 0x44 }
  - { offsetInCU: 0x5DF8E, offset: 0x5DF8E, size: 0x8, addend: 0x0, symName: __ZNSt3__117__compressed_pairIPjNS_9allocatorIjEEE6secondB8ue170006Ev, symObjAddr: 0x286C4, symBinAddr: 0x10002C95C, symSize: 0x24 }
  - { offsetInCU: 0x5DFB4, offset: 0x5DFB4, size: 0x8, addend: 0x0, symName: __ZNSt3__122__compressed_pair_elemINS_9allocatorIjEELi1ELb1EE5__getB8ue170006Ev, symObjAddr: 0x286E8, symBinAddr: 0x10002C980, symSize: 0x14 }
  - { offsetInCU: 0x5DFDA, offset: 0x5DFDA, size: 0x8, addend: 0x0, symName: __ZNSt3__16vectorIjNS_9allocatorIjEEE21_ConstructTransactionD2B8ue170006Ev, symObjAddr: 0x286FC, symBinAddr: 0x10002C994, symSize: 0x20 }
  - { offsetInCU: 0x5E004, offset: 0x5E004, size: 0x8, addend: 0x0, symName: __ZNKSt3__16vectorIjNS_9allocatorIjEEE11__recommendB8ue170006Em, symObjAddr: 0x2871C, symBinAddr: 0x10002C9B4, symSize: 0xB4 }
  - { offsetInCU: 0x5E059, offset: 0x5E059, size: 0x8, addend: 0x0, symName: __ZNSt3__114__split_bufferIjRNS_9allocatorIjEEEC1EmmS3_, symObjAddr: 0x287D0, symBinAddr: 0x10002CA68, symSize: 0x44 }
  - { offsetInCU: 0x5E0AF, offset: 0x5E0AF, size: 0x8, addend: 0x0, symName: __ZNSt3__114__split_bufferIjRNS_9allocatorIjEEED1Ev, symObjAddr: 0x28924, symBinAddr: 0x10002CBBC, symSize: 0x2C }
  - { offsetInCU: 0x5E0DB, offset: 0x5E0DB, size: 0x8, addend: 0x0, symName: __ZNKSt3__16vectorIjNS_9allocatorIjEEE8max_sizeEv, symObjAddr: 0x28950, symBinAddr: 0x10002CBE8, symSize: 0x60 }
  - { offsetInCU: 0x5E103, offset: 0x5E103, size: 0x8, addend: 0x0, symName: __ZNKSt3__16vectorIjNS_9allocatorIjEEE20__throw_length_errorB8ue170006Ev, symObjAddr: 0x289B0, symBinAddr: 0x10002CC48, symSize: 0x1C }
  - { offsetInCU: 0x5E129, offset: 0x5E129, size: 0x8, addend: 0x0, symName: __ZNKSt3__16vectorIjNS_9allocatorIjEEE8capacityB8ue170006Ev, symObjAddr: 0x289CC, symBinAddr: 0x10002CC64, symSize: 0x40 }
  - { offsetInCU: 0x5E159, offset: 0x5E159, size: 0x8, addend: 0x0, symName: __ZNSt3__116allocator_traitsINS_9allocatorIjEEE8max_sizeB8ue170006IS2_vvEEmRKS2_, symObjAddr: 0x28A0C, symBinAddr: 0x10002CCA4, symSize: 0x28 }
  - { offsetInCU: 0x5E185, offset: 0x5E185, size: 0x8, addend: 0x0, symName: __ZNKSt3__16vectorIjNS_9allocatorIjEEE7__allocB8ue170006Ev, symObjAddr: 0x28A34, symBinAddr: 0x10002CCCC, symSize: 0x28 }
  - { offsetInCU: 0x5E1AB, offset: 0x5E1AB, size: 0x8, addend: 0x0, symName: __ZNKSt3__117__compressed_pairIPjNS_9allocatorIjEEE6secondB8ue170006Ev, symObjAddr: 0x28A5C, symBinAddr: 0x10002CCF4, symSize: 0x24 }
  - { offsetInCU: 0x5E1D1, offset: 0x5E1D1, size: 0x8, addend: 0x0, symName: __ZNKSt3__122__compressed_pair_elemINS_9allocatorIjEELi1ELb1EE5__getB8ue170006Ev, symObjAddr: 0x28A80, symBinAddr: 0x10002CD18, symSize: 0x14 }
  - { offsetInCU: 0x5E1F7, offset: 0x5E1F7, size: 0x8, addend: 0x0, symName: __ZNKSt3__16vectorIjNS_9allocatorIjEEE9__end_capB8ue170006Ev, symObjAddr: 0x28A94, symBinAddr: 0x10002CD2C, symSize: 0x28 }
  - { offsetInCU: 0x5E21D, offset: 0x5E21D, size: 0x8, addend: 0x0, symName: __ZNKSt3__117__compressed_pairIPjNS_9allocatorIjEEE5firstB8ue170006Ev, symObjAddr: 0x28ABC, symBinAddr: 0x10002CD54, symSize: 0x24 }
  - { offsetInCU: 0x5E243, offset: 0x5E243, size: 0x8, addend: 0x0, symName: __ZNKSt3__122__compressed_pair_elemIPjLi0ELb0EE5__getB8ue170006Ev, symObjAddr: 0x28AE0, symBinAddr: 0x10002CD78, symSize: 0x14 }
  - { offsetInCU: 0x5E269, offset: 0x5E269, size: 0x8, addend: 0x0, symName: __ZNSt3__114__split_bufferIjRNS_9allocatorIjEEEC2EmmS3_, symObjAddr: 0x28AF4, symBinAddr: 0x10002CD8C, symSize: 0xD4 }
  - { offsetInCU: 0x5E2DC, offset: 0x5E2DC, size: 0x8, addend: 0x0, symName: __ZNSt3__117__compressed_pairIPjRNS_9allocatorIjEEEC1B8ue170006IDnS4_EEOT_OT0_, symObjAddr: 0x28BC8, symBinAddr: 0x10002CE60, symSize: 0x3C }
  - { offsetInCU: 0x5E334, offset: 0x5E334, size: 0x8, addend: 0x0, symName: __ZNSt3__114__split_bufferIjRNS_9allocatorIjEEE7__allocB8ue170006Ev, symObjAddr: 0x28C44, symBinAddr: 0x10002CEDC, symSize: 0x28 }
  - { offsetInCU: 0x5E35A, offset: 0x5E35A, size: 0x8, addend: 0x0, symName: __ZNSt3__114__split_bufferIjRNS_9allocatorIjEEE9__end_capB8ue170006Ev, symObjAddr: 0x28C6C, symBinAddr: 0x10002CF04, symSize: 0x28 }
  - { offsetInCU: 0x5E380, offset: 0x5E380, size: 0x8, addend: 0x0, symName: __ZNSt3__117__compressed_pairIPjRNS_9allocatorIjEEEC2B8ue170006IDnS4_EEOT_OT0_, symObjAddr: 0x28C94, symBinAddr: 0x10002CF2C, symSize: 0x48 }
  - { offsetInCU: 0x5E3D8, offset: 0x5E3D8, size: 0x8, addend: 0x0, symName: __ZNSt3__122__compressed_pair_elemIRNS_9allocatorIjEELi1ELb0EEC2B8ue170006IS3_vEEOT_, symObjAddr: 0x28CDC, symBinAddr: 0x10002CF74, symSize: 0x20 }
  - { offsetInCU: 0x5E41A, offset: 0x5E41A, size: 0x8, addend: 0x0, symName: __ZNSt3__19allocatorIjE8allocateB8ue170006Em, symObjAddr: 0x28CFC, symBinAddr: 0x10002CF94, symSize: 0x58 }
  - { offsetInCU: 0x5E44E, offset: 0x5E44E, size: 0x8, addend: 0x0, symName: __ZNSt3__117__compressed_pairIPjRNS_9allocatorIjEEE6secondB8ue170006Ev, symObjAddr: 0x28D54, symBinAddr: 0x10002CFEC, symSize: 0x28 }
  - { offsetInCU: 0x5E474, offset: 0x5E474, size: 0x8, addend: 0x0, symName: __ZNSt3__122__compressed_pair_elemIRNS_9allocatorIjEELi1ELb0EE5__getB8ue170006Ev, symObjAddr: 0x28D7C, symBinAddr: 0x10002D014, symSize: 0x18 }
  - { offsetInCU: 0x5E49A, offset: 0x5E49A, size: 0x8, addend: 0x0, symName: __ZNSt3__117__compressed_pairIPjRNS_9allocatorIjEEE5firstB8ue170006Ev, symObjAddr: 0x28D94, symBinAddr: 0x10002D02C, symSize: 0x24 }
  - { offsetInCU: 0x5E4C0, offset: 0x5E4C0, size: 0x8, addend: 0x0, symName: __ZNKSt3__16vectorIjNS_9allocatorIjEEE17__annotate_deleteB8ue170006Ev, symObjAddr: 0x28DB8, symBinAddr: 0x10002D050, symSize: 0xB8 }
  - { offsetInCU: 0x5E4E6, offset: 0x5E4E6, size: 0x8, addend: 0x0, symName: __ZNSt3__116reverse_iteratorIPjEC1B8ue170006ES1_, symObjAddr: 0x28EE8, symBinAddr: 0x10002D180, symSize: 0x34 }
  - { offsetInCU: 0x5E51E, offset: 0x5E51E, size: 0x8, addend: 0x0, symName: __ZNKSt3__116reverse_iteratorIPjE4baseB8ue170006Ev, symObjAddr: 0x28F1C, symBinAddr: 0x10002D1B4, symSize: 0x18 }
  - { offsetInCU: 0x5E544, offset: 0x5E544, size: 0x8, addend: 0x0, symName: __ZNKSt3__16vectorIjNS_9allocatorIjEEE14__annotate_newB8ue170006Em, symObjAddr: 0x28F70, symBinAddr: 0x10002D208, symSize: 0xAC }
  - { offsetInCU: 0x5E579, offset: 0x5E579, size: 0x8, addend: 0x0, symName: __ZNKSt3__16vectorIjNS_9allocatorIjEEE31__annotate_contiguous_containerB8ue170006EPKvS5_S5_S5_, symObjAddr: 0x2901C, symBinAddr: 0x10002D2B4, symSize: 0x20 }
  - { offsetInCU: 0x5E5CF, offset: 0x5E5CF, size: 0x8, addend: 0x0, symName: __ZNKSt3__16vectorIjNS_9allocatorIjEEE4dataB8ue170006Ev, symObjAddr: 0x2903C, symBinAddr: 0x10002D2D4, symSize: 0x28 }
  - { offsetInCU: 0x5E60F, offset: 0x5E60F, size: 0x8, addend: 0x0, symName: __ZNKSt3__111__move_loopINS_17_ClassicAlgPolicyEEclB8ue170006INS_16reverse_iteratorIPjEES6_S6_EENS_4pairIT_T1_EES8_T0_S9_, symObjAddr: 0x2931C, symBinAddr: 0x10002D5B4, symSize: 0xA0 }
  - { offsetInCU: 0x5E67A, offset: 0x5E67A, size: 0x8, addend: 0x0, symName: __ZNSt3__119__unwrap_range_implINS_16reverse_iteratorIPjEES3_E8__unwrapB8ue170006ES3_S3_, symObjAddr: 0x29508, symBinAddr: 0x10002D7A0, symSize: 0x84 }
  - { offsetInCU: 0x5E6B1, offset: 0x5E6B1, size: 0x8, addend: 0x0, symName: __ZNSt3__14pairINS_16reverse_iteratorIPjEES3_EC1B8ue170006IS3_S3_LPv0EEEOT_OT0_, symObjAddr: 0x2958C, symBinAddr: 0x10002D824, symSize: 0x3C }
  - { offsetInCU: 0x5E70F, offset: 0x5E70F, size: 0x8, addend: 0x0, symName: __ZNSt3__14pairINS_16reverse_iteratorIPjEES3_EC2B8ue170006IS3_S3_LPv0EEEOT_OT0_, symObjAddr: 0x295C8, symBinAddr: 0x10002D860, symSize: 0x34 }
  - { offsetInCU: 0x5E773, offset: 0x5E773, size: 0x8, addend: 0x0, symName: __ZNSt3__18_IterOpsINS_17_ClassicAlgPolicyEE11__iter_moveB8ue170006IRNS_16reverse_iteratorIPjEEEENS_9enable_ifIXsr12is_referenceIDTdeclsr3stdE7declvalIRT_EEEEE5valueEDTclsr3stdE4movedeclsr3stdE7declvalISA_EEEEE4typeEOS9_, symObjAddr: 0x29644, symBinAddr: 0x10002D8DC, symSize: 0x28 }
  - { offsetInCU: 0x5E79F, offset: 0x5E79F, size: 0x8, addend: 0x0, symName: __ZNKSt3__116reverse_iteratorIPjEdeB8ue170006Ev, symObjAddr: 0x2966C, symBinAddr: 0x10002D904, symSize: 0x28 }
  - { offsetInCU: 0x5E7D3, offset: 0x5E7D3, size: 0x8, addend: 0x0, symName: __ZNSt3__116reverse_iteratorIPjEppB8ue170006Ev, symObjAddr: 0x29694, symBinAddr: 0x10002D92C, symSize: 0x20 }
  - { offsetInCU: 0x5E7F9, offset: 0x5E7F9, size: 0x8, addend: 0x0, symName: __ZNSt3__18_IterOpsINS_17_ClassicAlgPolicyEE25__validate_iter_referenceB8ue170006IRNS_16reverse_iteratorIPjEEEEvv, symObjAddr: 0x296B4, symBinAddr: 0x10002D94C, symSize: 0x4 }
  - { offsetInCU: 0x5E817, offset: 0x5E817, size: 0x8, addend: 0x0, symName: __ZNSt3__118__unwrap_iter_implINS_16reverse_iteratorIPjEELb0EE8__unwrapB8ue170006ES3_, symObjAddr: 0x296B8, symBinAddr: 0x10002D950, symSize: 0x24 }
  - { offsetInCU: 0x5E83A, offset: 0x5E83A, size: 0x8, addend: 0x0, symName: __ZNSt3__119__unwrap_range_implINS_16reverse_iteratorIPjEES3_E8__rewrapB8ue170006ES3_S3_, symObjAddr: 0x296DC, symBinAddr: 0x10002D974, symSize: 0x5C }
  - { offsetInCU: 0x5E86B, offset: 0x5E86B, size: 0x8, addend: 0x0, symName: __ZNSt3__118__unwrap_iter_implINS_16reverse_iteratorIPjEELb0EE8__rewrapB8ue170006ES3_S3_, symObjAddr: 0x29738, symBinAddr: 0x10002D9D0, symSize: 0x2C }
  - { offsetInCU: 0x5E898, offset: 0x5E898, size: 0x8, addend: 0x0, symName: __ZNSt3__116reverse_iteratorIPjEC2B8ue170006ES1_, symObjAddr: 0x29764, symBinAddr: 0x10002D9FC, symSize: 0x28 }
  - { offsetInCU: 0x5E8D0, offset: 0x5E8D0, size: 0x8, addend: 0x0, symName: __ZNSt3__114__split_bufferIjRNS_9allocatorIjEEED2Ev, symObjAddr: 0x2978C, symBinAddr: 0x10002DA24, symSize: 0x8C }
  - { offsetInCU: 0x5E8FC, offset: 0x5E8FC, size: 0x8, addend: 0x0, symName: __ZNSt3__114__split_bufferIjRNS_9allocatorIjEEE5clearB8ue170006Ev, symObjAddr: 0x29818, symBinAddr: 0x10002DAB0, symSize: 0x28 }
  - { offsetInCU: 0x5E922, offset: 0x5E922, size: 0x8, addend: 0x0, symName: __ZNSt3__116allocator_traitsINS_9allocatorIjEEE10deallocateB8ue170006ERS2_Pjm, symObjAddr: 0x29840, symBinAddr: 0x10002DAD8, symSize: 0x34 }
  - { offsetInCU: 0x5E964, offset: 0x5E964, size: 0x8, addend: 0x0, symName: __ZNKSt3__114__split_bufferIjRNS_9allocatorIjEEE8capacityB8ue170006Ev, symObjAddr: 0x29874, symBinAddr: 0x10002DB0C, symSize: 0x40 }
  - { offsetInCU: 0x5E98A, offset: 0x5E98A, size: 0x8, addend: 0x0, symName: __ZNSt3__114__split_bufferIjRNS_9allocatorIjEEE17__destruct_at_endB8ue170006EPj, symObjAddr: 0x298B4, symBinAddr: 0x10002DB4C, symSize: 0x2C }
  - { offsetInCU: 0x5E9BE, offset: 0x5E9BE, size: 0x8, addend: 0x0, symName: __ZNSt3__114__split_bufferIjRNS_9allocatorIjEEE17__destruct_at_endB8ue170006EPjNS_17integral_constantIbLb0EEE, symObjAddr: 0x298E0, symBinAddr: 0x10002DB78, symSize: 0x80 }
  - { offsetInCU: 0x5E9FE, offset: 0x5E9FE, size: 0x8, addend: 0x0, symName: __ZNSt3__116allocator_traitsINS_9allocatorIjEEE7destroyB8ue170006IjvvEEvRS2_PT_, symObjAddr: 0x29960, symBinAddr: 0x10002DBF8, symSize: 0x28 }
  - { offsetInCU: 0x5EA39, offset: 0x5EA39, size: 0x8, addend: 0x0, symName: __ZNSt3__19allocatorIjE10deallocateB8ue170006EPjm, symObjAddr: 0x299BC, symBinAddr: 0x10002DC54, symSize: 0x40 }
  - { offsetInCU: 0x5EA7B, offset: 0x5EA7B, size: 0x8, addend: 0x0, symName: __ZNKSt3__114__split_bufferIjRNS_9allocatorIjEEE9__end_capB8ue170006Ev, symObjAddr: 0x299FC, symBinAddr: 0x10002DC94, symSize: 0x28 }
  - { offsetInCU: 0x5EAA1, offset: 0x5EAA1, size: 0x8, addend: 0x0, symName: __ZNKSt3__117__compressed_pairIPjRNS_9allocatorIjEEE5firstB8ue170006Ev, symObjAddr: 0x29A24, symBinAddr: 0x10002DCBC, symSize: 0x24 }
  - { offsetInCU: 0x5EAC7, offset: 0x5EAC7, size: 0x8, addend: 0x0, symName: __ZNSt3__123__libcpp_numeric_limitsIfLb1EE7epsilonB8ue170006Ev, symObjAddr: 0x29A48, symBinAddr: 0x10002DCE0, symSize: 0x8 }
  - { offsetInCU: 0x5EADB, offset: 0x5EADB, size: 0x8, addend: 0x0, symName: __ZNSt3__16vectorIN7tinyobj14vertex_index_tENS_9allocatorIS2_EEE17__destruct_at_endB8ue170006EPS2_, symObjAddr: 0x29A50, symBinAddr: 0x10002DCE8, symSize: 0x4C }
  - { offsetInCU: 0x5EB1F, offset: 0x5EB1F, size: 0x8, addend: 0x0, symName: __ZNKSt3__16vectorIN7tinyobj14vertex_index_tENS_9allocatorIS2_EEE17__annotate_shrinkB8ue170006Em, symObjAddr: 0x29A9C, symBinAddr: 0x10002DD34, symSize: 0xD0 }
  - { offsetInCU: 0x5EB54, offset: 0x5EB54, size: 0x8, addend: 0x0, symName: __ZNSt3__16vectorIN7tinyobj5tag_tENS_9allocatorIS2_EEE19__copy_assign_allocB8ue170006ERKS5_, symObjAddr: 0x29B6C, symBinAddr: 0x10002DE04, symSize: 0x2C }
  - { offsetInCU: 0x5EB89, offset: 0x5EB89, size: 0x8, addend: 0x0, symName: __ZNSt3__16vectorIN7tinyobj5tag_tENS_9allocatorIS2_EEE6assignIPS2_Li0EEEvT_S8_, symObjAddr: 0x29B98, symBinAddr: 0x10002DE30, symSize: 0x5C }
  - { offsetInCU: 0x5EBDE, offset: 0x5EBDE, size: 0x8, addend: 0x0, symName: __ZNSt3__16vectorIN7tinyobj5tag_tENS_9allocatorIS2_EEE19__copy_assign_allocB8ue170006ERKS5_NS_17integral_constantIbLb0EEE, symObjAddr: 0x29BF4, symBinAddr: 0x10002DE8C, symSize: 0x14 }
  - { offsetInCU: 0x5EC1C, offset: 0x5EC1C, size: 0x8, addend: 0x0, symName: __ZNSt3__16vectorIN7tinyobj5tag_tENS_9allocatorIS2_EEE18__assign_with_sizeB8ue170006IPS2_S7_EEvT_T0_l, symObjAddr: 0x29C08, symBinAddr: 0x10002DEA0, symSize: 0x164 }
  - { offsetInCU: 0x5ECCC, offset: 0x5ECCC, size: 0x8, addend: 0x0, symName: __ZNKSt3__16vectorIN7tinyobj5tag_tENS_9allocatorIS2_EEE8capacityB8ue170006Ev, symObjAddr: 0x29D98, symBinAddr: 0x10002E030, symSize: 0x40 }
  - { offsetInCU: 0x5ECF2, offset: 0x5ECF2, size: 0x8, addend: 0x0, symName: __ZNKSt3__16vectorIN7tinyobj5tag_tENS_9allocatorIS2_EEE4sizeB8ue170006Ev, symObjAddr: 0x29DD8, symBinAddr: 0x10002E070, symSize: 0x28 }
  - { offsetInCU: 0x5ED18, offset: 0x5ED18, size: 0x8, addend: 0x0, symName: __ZNSt3__16vectorIN7tinyobj5tag_tENS_9allocatorIS2_EEE18__construct_at_endIPS2_S7_EEvT_T0_m, symObjAddr: 0x29E74, symBinAddr: 0x10002E10C, symSize: 0x8C }
  - { offsetInCU: 0x5ED8E, offset: 0x5ED8E, size: 0x8, addend: 0x0, symName: __ZNSt3__16vectorIN7tinyobj5tag_tENS_9allocatorIS2_EEE17__destruct_at_endB8ue170006EPS2_, symObjAddr: 0x29F44, symBinAddr: 0x10002E1DC, symSize: 0x4C }
  - { offsetInCU: 0x5EDD2, offset: 0x5EDD2, size: 0x8, addend: 0x0, symName: __ZNSt3__16vectorIN7tinyobj5tag_tENS_9allocatorIS2_EEE13__vdeallocateEv, symObjAddr: 0x29F90, symBinAddr: 0x10002E228, symSize: 0x94 }
  - { offsetInCU: 0x5EDFA, offset: 0x5EDFA, size: 0x8, addend: 0x0, symName: __ZNSt3__16vectorIN7tinyobj5tag_tENS_9allocatorIS2_EEE11__vallocateB8ue170006Em, symObjAddr: 0x2A024, symBinAddr: 0x10002E2BC, symSize: 0xB4 }
  - { offsetInCU: 0x5EE3E, offset: 0x5EE3E, size: 0x8, addend: 0x0, symName: __ZNKSt3__16vectorIN7tinyobj5tag_tENS_9allocatorIS2_EEE11__recommendB8ue170006Em, symObjAddr: 0x2A0D8, symBinAddr: 0x10002E370, symSize: 0xB4 }
  - { offsetInCU: 0x5EE93, offset: 0x5EE93, size: 0x8, addend: 0x0, symName: __ZNKSt3__16vectorIN7tinyobj5tag_tENS_9allocatorIS2_EEE9__end_capB8ue170006Ev, symObjAddr: 0x2A18C, symBinAddr: 0x10002E424, symSize: 0x28 }
  - { offsetInCU: 0x5EEB9, offset: 0x5EEB9, size: 0x8, addend: 0x0, symName: __ZNKSt3__117__compressed_pairIPN7tinyobj5tag_tENS_9allocatorIS2_EEE5firstB8ue170006Ev, symObjAddr: 0x2A1B4, symBinAddr: 0x10002E44C, symSize: 0x24 }
  - { offsetInCU: 0x5EEDF, offset: 0x5EEDF, size: 0x8, addend: 0x0, symName: __ZNKSt3__122__compressed_pair_elemIPN7tinyobj5tag_tELi0ELb0EE5__getB8ue170006Ev, symObjAddr: 0x2A1D8, symBinAddr: 0x10002E470, symSize: 0x14 }
  - { offsetInCU: 0x5EF1E, offset: 0x5EF1E, size: 0x8, addend: 0x0, symName: __ZNSt3__16vectorIN7tinyobj5tag_tENS_9allocatorIS2_EEE21_ConstructTransactionC1B8ue170006ERS5_m, symObjAddr: 0x2A254, symBinAddr: 0x10002E4EC, symSize: 0x3C }
  - { offsetInCU: 0x5EF66, offset: 0x5EF66, size: 0x8, addend: 0x0, symName: __ZNSt3__16vectorIN7tinyobj5tag_tENS_9allocatorIS2_EEE7__allocB8ue170006Ev, symObjAddr: 0x2A310, symBinAddr: 0x10002E5A8, symSize: 0x28 }
  - { offsetInCU: 0x5EF8C, offset: 0x5EF8C, size: 0x8, addend: 0x0, symName: __ZNSt3__16vectorIN7tinyobj5tag_tENS_9allocatorIS2_EEE21_ConstructTransactionD1B8ue170006Ev, symObjAddr: 0x2A338, symBinAddr: 0x10002E5D0, symSize: 0x2C }
  - { offsetInCU: 0x5EFB6, offset: 0x5EFB6, size: 0x8, addend: 0x0, symName: __ZNSt3__16vectorIN7tinyobj5tag_tENS_9allocatorIS2_EEE21_ConstructTransactionC2B8ue170006ERS5_m, symObjAddr: 0x2A364, symBinAddr: 0x10002E5FC, symSize: 0x4C }
  - { offsetInCU: 0x5F018, offset: 0x5F018, size: 0x8, addend: 0x0, symName: __ZNSt3__119__unwrap_range_implIPN7tinyobj5tag_tES3_E8__unwrapB8ue170006ES3_S3_, symObjAddr: 0x2A540, symBinAddr: 0x10002E7D8, symSize: 0x58 }
  - { offsetInCU: 0x5F04F, offset: 0x5F04F, size: 0x8, addend: 0x0, symName: __ZNSt3__14pairIPN7tinyobj5tag_tES3_EC1B8ue170006IS3_S3_LPv0EEEOT_OT0_, symObjAddr: 0x2A598, symBinAddr: 0x10002E830, symSize: 0x3C }
  - { offsetInCU: 0x5F0AD, offset: 0x5F0AD, size: 0x8, addend: 0x0, symName: __ZNSt3__14pairIPN7tinyobj5tag_tES3_EC2B8ue170006IS3_S3_LPv0EEEOT_OT0_, symObjAddr: 0x2A5D4, symBinAddr: 0x10002E86C, symSize: 0x34 }
  - { offsetInCU: 0x5F10B, offset: 0x5F10B, size: 0x8, addend: 0x0, symName: __ZNSt3__129_AllocatorDestroyRangeReverseINS_9allocatorIN7tinyobj5tag_tEEEPS3_EC1B8ue170006ERS4_RS5_S8_, symObjAddr: 0x2A654, symBinAddr: 0x10002E8EC, symSize: 0x44 }
  - { offsetInCU: 0x5F162, offset: 0x5F162, size: 0x8, addend: 0x0, symName: __ZNSt3__116allocator_traitsINS_9allocatorIN7tinyobj5tag_tEEEE9constructB8ue170006IS3_JRS3_EvvEEvRS4_PT_DpOT0_, symObjAddr: 0x2A698, symBinAddr: 0x10002E930, symSize: 0x30 }
  - { offsetInCU: 0x5F1B7, offset: 0x5F1B7, size: 0x8, addend: 0x0, symName: __ZNSt3__128__exception_guard_exceptionsINS_29_AllocatorDestroyRangeReverseINS_9allocatorIN7tinyobj5tag_tEEEPS4_EEE10__completeB8ue170006Ev, symObjAddr: 0x2A6DC, symBinAddr: 0x10002E974, symSize: 0x1C }
  - { offsetInCU: 0x5F1DD, offset: 0x5F1DD, size: 0x8, addend: 0x0, symName: __ZNSt3__128__exception_guard_exceptionsINS_29_AllocatorDestroyRangeReverseINS_9allocatorIN7tinyobj5tag_tEEEPS4_EEED1B8ue170006Ev, symObjAddr: 0x2A6F8, symBinAddr: 0x10002E990, symSize: 0x2C }
  - { offsetInCU: 0x5F207, offset: 0x5F207, size: 0x8, addend: 0x0, symName: __ZNSt3__128__exception_guard_exceptionsINS_29_AllocatorDestroyRangeReverseINS_9allocatorIN7tinyobj5tag_tEEEPS4_EEEC1B8ue170006ES7_, symObjAddr: 0x2A724, symBinAddr: 0x10002E9BC, symSize: 0x34 }
  - { offsetInCU: 0x5F240, offset: 0x5F240, size: 0x8, addend: 0x0, symName: __ZNSt3__128__exception_guard_exceptionsINS_29_AllocatorDestroyRangeReverseINS_9allocatorIN7tinyobj5tag_tEEEPS4_EEEC2B8ue170006ES7_, symObjAddr: 0x2A758, symBinAddr: 0x10002E9F0, symSize: 0x30 }
  - { offsetInCU: 0x5F279, offset: 0x5F279, size: 0x8, addend: 0x0, symName: __ZNSt3__129_AllocatorDestroyRangeReverseINS_9allocatorIN7tinyobj5tag_tEEEPS3_EC2B8ue170006ERS4_RS5_S8_, symObjAddr: 0x2A788, symBinAddr: 0x10002EA20, symSize: 0x38 }
  - { offsetInCU: 0x5F2D5, offset: 0x5F2D5, size: 0x8, addend: 0x0, symName: __ZN7tinyobj5tag_tC1ERKS0_, symObjAddr: 0x2A7FC, symBinAddr: 0x10002EA94, symSize: 0x34 }
  - { offsetInCU: 0x5F30B, offset: 0x5F30B, size: 0x8, addend: 0x0, symName: __ZN7tinyobj5tag_tC2ERKS0_, symObjAddr: 0x2A830, symBinAddr: 0x10002EAC8, symSize: 0xE0 }
  - { offsetInCU: 0x5F341, offset: 0x5F341, size: 0x8, addend: 0x0, symName: __ZNSt3__16vectorIiNS_9allocatorIiEEEC1ERKS3_, symObjAddr: 0x2A910, symBinAddr: 0x10002EBA8, symSize: 0x34 }
  - { offsetInCU: 0x5F37C, offset: 0x5F37C, size: 0x8, addend: 0x0, symName: __ZNSt3__16vectorIfNS_9allocatorIfEEEC1ERKS3_, symObjAddr: 0x2A944, symBinAddr: 0x10002EBDC, symSize: 0x34 }
  - { offsetInCU: 0x5F3B7, offset: 0x5F3B7, size: 0x8, addend: 0x0, symName: __ZNSt3__16vectorINS_12basic_stringIcNS_11char_traitsIcEENS_9allocatorIcEEEENS4_IS6_EEEC1ERKS8_, symObjAddr: 0x2A978, symBinAddr: 0x10002EC10, symSize: 0x34 }
  - { offsetInCU: 0x5F3F2, offset: 0x5F3F2, size: 0x8, addend: 0x0, symName: __ZNSt3__16vectorIiNS_9allocatorIiEEED1B8ue170006Ev, symObjAddr: 0x2A9AC, symBinAddr: 0x10002EC44, symSize: 0x2C }
  - { offsetInCU: 0x5F41C, offset: 0x5F41C, size: 0x8, addend: 0x0, symName: __ZNSt3__16vectorIiNS_9allocatorIiEEEC2ERKS3_, symObjAddr: 0x2A9D8, symBinAddr: 0x10002EC70, symSize: 0x94 }
  - { offsetInCU: 0x5F457, offset: 0x5F457, size: 0x8, addend: 0x0, symName: __ZNSt3__116allocator_traitsINS_9allocatorIiEEE37select_on_container_copy_constructionB8ue170006IS2_vvEES2_RKS2_, symObjAddr: 0x2AA6C, symBinAddr: 0x10002ED04, symSize: 0x10 }
  - { offsetInCU: 0x5F48C, offset: 0x5F48C, size: 0x8, addend: 0x0, symName: __ZNSt3__117__compressed_pairIPiNS_9allocatorIiEEEC1B8ue170006IDnS3_EEOT_OT0_, symObjAddr: 0x2AA7C, symBinAddr: 0x10002ED14, symSize: 0x3C }
  - { offsetInCU: 0x5F4E4, offset: 0x5F4E4, size: 0x8, addend: 0x0, symName: __ZNSt3__16vectorIiNS_9allocatorIiEEE16__init_with_sizeB8ue170006IPiS5_EEvT_T0_m, symObjAddr: 0x2AAB8, symBinAddr: 0x10002ED50, symSize: 0xB8 }
  - { offsetInCU: 0x5F558, offset: 0x5F558, size: 0x8, addend: 0x0, symName: __ZNSt3__117__compressed_pairIPiNS_9allocatorIiEEEC2B8ue170006IDnS3_EEOT_OT0_, symObjAddr: 0x2AB70, symBinAddr: 0x10002EE08, symSize: 0x44 }
  - { offsetInCU: 0x5F5B0, offset: 0x5F5B0, size: 0x8, addend: 0x0, symName: __ZNSt3__122__compressed_pair_elemINS_9allocatorIiEELi1ELb1EEC2B8ue170006IS2_vEEOT_, symObjAddr: 0x2ABB4, symBinAddr: 0x10002EE4C, symSize: 0x18 }
  - { offsetInCU: 0x5F5F2, offset: 0x5F5F2, size: 0x8, addend: 0x0, symName: __ZNSt3__16vectorIiNS_9allocatorIiEEE16__destroy_vectorC1B8ue170006ERS3_, symObjAddr: 0x2AC0C, symBinAddr: 0x10002EEA4, symSize: 0x34 }
  - { offsetInCU: 0x5F62B, offset: 0x5F62B, size: 0x8, addend: 0x0, symName: __ZNSt3__16vectorIiNS_9allocatorIiEEE11__vallocateB8ue170006Em, symObjAddr: 0x2AC40, symBinAddr: 0x10002EED8, symSize: 0xAC }
  - { offsetInCU: 0x5F66F, offset: 0x5F66F, size: 0x8, addend: 0x0, symName: __ZNSt3__16vectorIiNS_9allocatorIiEEE18__construct_at_endIPiS5_EEvT_T0_m, symObjAddr: 0x2ACEC, symBinAddr: 0x10002EF84, symSize: 0x8C }
  - { offsetInCU: 0x5F6E5, offset: 0x5F6E5, size: 0x8, addend: 0x0, symName: __ZNSt3__128__exception_guard_exceptionsINS_6vectorIiNS_9allocatorIiEEE16__destroy_vectorEE10__completeB8ue170006Ev, symObjAddr: 0x2AD78, symBinAddr: 0x10002F010, symSize: 0x1C }
  - { offsetInCU: 0x5F70B, offset: 0x5F70B, size: 0x8, addend: 0x0, symName: __ZNSt3__128__exception_guard_exceptionsINS_6vectorIiNS_9allocatorIiEEE16__destroy_vectorEED1B8ue170006Ev, symObjAddr: 0x2AD94, symBinAddr: 0x10002F02C, symSize: 0x2C }
  - { offsetInCU: 0x5F735, offset: 0x5F735, size: 0x8, addend: 0x0, symName: __ZNSt3__128__exception_guard_exceptionsINS_6vectorIiNS_9allocatorIiEEE16__destroy_vectorEEC1B8ue170006ES5_, symObjAddr: 0x2ADC0, symBinAddr: 0x10002F058, symSize: 0x34 }
  - { offsetInCU: 0x5F76D, offset: 0x5F76D, size: 0x8, addend: 0x0, symName: __ZNSt3__128__exception_guard_exceptionsINS_6vectorIiNS_9allocatorIiEEE16__destroy_vectorEEC2B8ue170006ES5_, symObjAddr: 0x2ADF4, symBinAddr: 0x10002F08C, symSize: 0x24 }
  - { offsetInCU: 0x5F7A5, offset: 0x5F7A5, size: 0x8, addend: 0x0, symName: __ZNSt3__16vectorIiNS_9allocatorIiEEE16__destroy_vectorC2B8ue170006ERS3_, symObjAddr: 0x2AE18, symBinAddr: 0x10002F0B0, symSize: 0x20 }
  - { offsetInCU: 0x5F7F8, offset: 0x5F7F8, size: 0x8, addend: 0x0, symName: __ZNSt3__119__unwrap_range_implIPiS1_E8__unwrapB8ue170006ES1_S1_, symObjAddr: 0x2AF8C, symBinAddr: 0x10002F224, symSize: 0x58 }
  - { offsetInCU: 0x5F82F, offset: 0x5F82F, size: 0x8, addend: 0x0, symName: __ZNSt3__14pairIPiS1_EC1B8ue170006IS1_S1_LPv0EEEOT_OT0_, symObjAddr: 0x2AFE4, symBinAddr: 0x10002F27C, symSize: 0x3C }
  - { offsetInCU: 0x5F88D, offset: 0x5F88D, size: 0x8, addend: 0x0, symName: __ZNSt3__14pairIPiS1_EC2B8ue170006IS1_S1_LPv0EEEOT_OT0_, symObjAddr: 0x2B020, symBinAddr: 0x10002F2B8, symSize: 0x34 }
  - { offsetInCU: 0x5F8EB, offset: 0x5F8EB, size: 0x8, addend: 0x0, symName: __ZNKSt3__114__copy_trivialclB8ue170006IiiLi0EEENS_4pairIPT_PT0_EES4_S4_S6_, symObjAddr: 0x2B1D0, symBinAddr: 0x10002F468, symSize: 0x48 }
  - { offsetInCU: 0x5F953, offset: 0x5F953, size: 0x8, addend: 0x0, symName: __ZNSt3__14pairIPiS1_EC1B8ue170006IRS1_S1_LPv0EEEOT_OT0_, symObjAddr: 0x2B398, symBinAddr: 0x10002F630, symSize: 0x3C }
  - { offsetInCU: 0x5F9B1, offset: 0x5F9B1, size: 0x8, addend: 0x0, symName: __ZNSt3__14pairIPiS1_EC2B8ue170006IRS1_S1_LPv0EEEOT_OT0_, symObjAddr: 0x2B3D4, symBinAddr: 0x10002F66C, symSize: 0x34 }
  - { offsetInCU: 0x5FA0F, offset: 0x5FA0F, size: 0x8, addend: 0x0, symName: __ZNSt3__119__unwrap_range_implIPiS1_E8__rewrapB8ue170006ES1_S1_, symObjAddr: 0x2B408, symBinAddr: 0x10002F6A0, symSize: 0x2C }
  - { offsetInCU: 0x5FA40, offset: 0x5FA40, size: 0x8, addend: 0x0, symName: __ZNSt3__118__unwrap_iter_implIPiLb1EE8__unwrapB8ue170006ES1_, symObjAddr: 0x2B434, symBinAddr: 0x10002F6CC, symSize: 0x24 }
